
a.out:     file format elf32-littlearm


Disassembly of section .text:

03800100 <_start>:
 3800100:	ea000070 	b	38002c8 <arm7_main>

03800104 <_Z11arm7_rwmodev>:
 3800104:	e59f30f8 	ldr	r3, [pc, #248]	; 3800204 <_Z11arm7_rwmodev+0x100>
 3800108:	e3a02902 	mov	r2, #32768	; 0x8000
 380010c:	e92d4010 	push	{r4, r14}
 3800110:	e1a01003 	mov	r1, r3
 3800114:	e3a0c641 	mov	r12, #68157440	; 0x4100000
 3800118:	e3a0e301 	mov	r14, #67108864	; 0x4000000
 380011c:	e3a04000 	mov	r4, #0
 3800120:	e1c328b4 	strh	r2, [r3, #132]	; 0x84
 3800124:	e1d138b4 	ldrh	r3, [r1, #132]	; 0x84
 3800128:	e3130c01 	tst	r3, #256	; 0x100
 380012c:	1afffffc 	bne	3800124 <_Z11arm7_rwmodev+0x20>
 3800130:	e59c3000 	ldr	r3, [r12]
 3800134:	e1a00e23 	lsr	r0, r3, #28
 3800138:	e2402004 	sub	r2, r0, #4
 380013c:	e3520002 	cmp	r2, #2
 3800140:	e3c3220f 	bic	r2, r3, #-268435456	; 0xf0000000
 3800144:	9a000009 	bls	3800170 <_Z11arm7_rwmodev+0x6c>
 3800148:	e3500006 	cmp	r0, #6
 380014c:	979ff100 	ldrls	r15, [r15, r0, lsl #2]
 3800150:	ea000026 	b	38001f0 <_Z11arm7_rwmodev+0xec>
 3800154:	038001f0 	orreq	r0, r0, #240, 2	; 0x3c
 3800158:	038001d0 	orreq	r0, r0, #208, 2	; 0x34
 380015c:	038001c4 	orreq	r0, r0, #196, 2	; 0x31
 3800160:	038001b4 	orreq	r0, r0, #180, 2	; 0x2d
 3800164:	038001a4 	orreq	r0, r0, #164, 2	; 0x29
 3800168:	0380018c 	orreq	r0, r0, #140, 2	; 0x23
 380016c:	038001dc 	orreq	r0, r0, #220, 2	; 0x37
 3800170:	e1d138b4 	ldrh	r3, [r1, #132]	; 0x84
 3800174:	e3130c01 	tst	r3, #256	; 0x100
 3800178:	0afffff2 	beq	3800148 <_Z11arm7_rwmodev+0x44>
 380017c:	e1d138b4 	ldrh	r3, [r1, #132]	; 0x84
 3800180:	e3130c01 	tst	r3, #256	; 0x100
 3800184:	1afffff9 	bne	3800170 <_Z11arm7_rwmodev+0x6c>
 3800188:	eaffffee 	b	3800148 <_Z11arm7_rwmodev+0x44>
 380018c:	e59c3000 	ldr	r3, [r12]
 3800190:	e1a03803 	lsl	r3, r3, #16
 3800194:	e1a03823 	lsr	r3, r3, #16
 3800198:	e1c230b0 	strh	r3, [r2]
 380019c:	e58e4188 	str	r4, [r14, #392]	; 0x188
 38001a0:	eaffffdf 	b	3800124 <_Z11arm7_rwmodev+0x20>
 38001a4:	e59c3000 	ldr	r3, [r12]
 38001a8:	e5823000 	str	r3, [r2]
 38001ac:	e58e4188 	str	r4, [r14, #392]	; 0x188
 38001b0:	eaffffdb 	b	3800124 <_Z11arm7_rwmodev+0x20>
 38001b4:	e5d23000 	ldrb	r3, [r2]
 38001b8:	e20330ff 	and	r3, r3, #255	; 0xff
 38001bc:	e58e3188 	str	r3, [r14, #392]	; 0x188
 38001c0:	eaffffd7 	b	3800124 <_Z11arm7_rwmodev+0x20>
 38001c4:	e1d230b0 	ldrh	r3, [r2]
 38001c8:	e58e3188 	str	r3, [r14, #392]	; 0x188
 38001cc:	eaffffd4 	b	3800124 <_Z11arm7_rwmodev+0x20>
 38001d0:	e5923000 	ldr	r3, [r2]
 38001d4:	e58e3188 	str	r3, [r14, #392]	; 0x188
 38001d8:	eaffffd1 	b	3800124 <_Z11arm7_rwmodev+0x20>
 38001dc:	e59c3000 	ldr	r3, [r12]
 38001e0:	e20330ff 	and	r3, r3, #255	; 0xff
 38001e4:	e5c23000 	strb	r3, [r2]
 38001e8:	e58e4188 	str	r4, [r14, #392]	; 0x188
 38001ec:	eaffffcc 	b	3800124 <_Z11arm7_rwmodev+0x20>
 38001f0:	e3a03301 	mov	r3, #67108864	; 0x4000000
 38001f4:	e3a02000 	mov	r2, #0
 38001f8:	e8bd4010 	pop	{r4, r14}
 38001fc:	e5832188 	str	r2, [r3, #392]	; 0x188
 3800200:	e12fff1e 	bx	r14
 3800204:	04000100 	streq	r0, [r0], #-256	; 0xffffff00

03800208 <arm7_waitloop>:
 3800208:	e92d4010 	push	{r4, r14}
 380020c:	e3a00701 	mov	r0, #262144	; 0x40000
 3800210:	eb000148 	bl	3800738 <wait_busy>
 3800214:	e59f30a4 	ldr	r3, [pc, #164]	; 38002c0 <arm7_waitloop+0xb8>
 3800218:	e3a00000 	mov	r0, #0
 380021c:	e3a01902 	mov	r1, #32768	; 0x8000
 3800220:	e1a02003 	mov	r2, r3
 3800224:	e3a0ec02 	mov	r14, #512	; 0x200
 3800228:	e3a0cc01 	mov	r12, #256	; 0x100
 380022c:	e1c308b0 	strh	r0, [r3, #128]	; 0x80
 3800230:	e1c318b4 	strh	r1, [r3, #132]	; 0x84
 3800234:	e1d238b0 	ldrh	r3, [r2, #128]	; 0x80
 3800238:	e203300f 	and	r3, r3, #15
 380023c:	e2433001 	sub	r3, r3, #1
 3800240:	e353000c 	cmp	r3, #12
 3800244:	979ff103 	ldrls	r15, [r15, r3, lsl #2]
 3800248:	eafffff9 	b	3800234 <arm7_waitloop+0x2c>
 380024c:	038002b8 	orreq	r0, r0, #184, 4	; 0x8000000b
 3800250:	038002b0 	orreq	r0, r0, #176, 4
 3800254:	03800234 	orreq	r0, r0, #52, 4	; 0x40000003
 3800258:	03800234 	orreq	r0, r0, #52, 4	; 0x40000003
 380025c:	03800234 	orreq	r0, r0, #52, 4	; 0x40000003
 3800260:	03800234 	orreq	r0, r0, #52, 4	; 0x40000003
 3800264:	03800234 	orreq	r0, r0, #52, 4	; 0x40000003
 3800268:	03800234 	orreq	r0, r0, #52, 4	; 0x40000003
 380026c:	03800234 	orreq	r0, r0, #52, 4	; 0x40000003
 3800270:	038002a4 	orreq	r0, r0, #164, 4	; 0x4000000a
 3800274:	03800298 	orreq	r0, r0, #152, 4	; 0x80000009
 3800278:	0380028c 	orreq	r0, r0, #140, 4	; 0xc0000008
 380027c:	03800280 	orreq	r0, r0, #128, 4
 3800280:	eb0000f4 	bl	3800658 <_Z17arm7_ipcsync_testv>
 3800284:	e8bd4010 	pop	{r4, r14}
 3800288:	e12fff1e 	bx	r14
 380028c:	eb000054 	bl	38003e4 <_Z17arm7_ipcfifo_testv>
 3800290:	e8bd4010 	pop	{r4, r14}
 3800294:	e12fff1e 	bx	r14
 3800298:	eb00009a 	bl	3800508 <_Z21arm7_ipcfifo_irq_testv>
 380029c:	e8bd4010 	pop	{r4, r14}
 38002a0:	e12fff1e 	bx	r14
 38002a4:	ebffff96 	bl	3800104 <_Z11arm7_rwmodev>
 38002a8:	e8bd4010 	pop	{r4, r14}
 38002ac:	e12fff1e 	bx	r14
 38002b0:	e1c2e8b0 	strh	r14, [r2, #128]	; 0x80
 38002b4:	eaffffde 	b	3800234 <arm7_waitloop+0x2c>
 38002b8:	e1c2c8b0 	strh	r12, [r2, #128]	; 0x80
 38002bc:	eaffffdc 	b	3800234 <arm7_waitloop+0x2c>
 38002c0:	04000100 	streq	r0, [r0], #-256	; 0xffffff00

038002c4 <val_CPSR>:
 38002c4:	00000000 	andeq	r0, r0, r0

038002c8 <arm7_main>:
 38002c8:	e10f0000 	mrs	r0, CPSR
 38002cc:	e50f0010 	str	r0, [pc, #-16]	; 38002c4 <val_CPSR>
 38002d0:	eb000007 	bl	38002f4 <arm7_main+0x2c>
 38002d4:	eb000012 	bl	3800324 <test_initialstate>
 38002d8:	eb000005 	bl	38002f4 <arm7_main+0x2c>
 38002dc:	ebffffc9 	bl	3800208 <arm7_waitloop>
 38002e0:	e59f0030 	ldr	r0, [pc, #48]	; 3800318 <arm7_main+0x50>
 38002e4:	e3a01000 	mov	r1, #0
 38002e8:	e5801000 	str	r1, [r0]
 38002ec:	eb00010b 	bl	3800720 <disable_trace>
 38002f0:	eafffff8 	b	38002d8 <arm7_main+0x10>
 38002f4:	e10f3000 	mrs	r3, CPSR
 38002f8:	e1a04003 	mov	r4, r3
 38002fc:	e3c3301f 	bic	r3, r3, #31
 3800300:	e3833012 	orr	r3, r3, #18
 3800304:	e121f003 	msr	CPSR_c, r3
 3800308:	e59fd00c 	ldr	r13, [pc, #12]	; 380031c <arm7_main+0x54>
 380030c:	e121f004 	msr	CPSR_c, r4
 3800310:	e59fd008 	ldr	r13, [pc, #8]	; 3800320 <arm7_main+0x58>
 3800314:	e12fff1e 	bx	r14
 3800318:	04000208 	streq	r0, [r0], #-520	; 0xfffffdf8
 380031c:	0380ff00 	orreq	r15, r0, #0, 30
 3800320:	0380f000 	orreq	r15, r0, #0

03800324 <test_initialstate>:
 3800324:	e92d4010 	push	{r4, r14}
 3800328:	e24dd008 	sub	r13, r13, #8
 380032c:	eb000108 	bl	3800754 <l_DIC>
 3800330:	e3a0e402 	mov	r14, #33554432	; 0x2000000
 3800334:	e3a04903 	mov	r4, #49152	; 0xc000
 3800338:	e59f2098 	ldr	r2, [pc, #152]	; 38003d8 <test_initialstate+0xb4>
 380033c:	e1d238b0 	ldrh	r3, [r2, #128]	; 0x80
 3800340:	e58e3004 	str	r3, [r14, #4]
 3800344:	e1d2c8b4 	ldrh	r12, [r2, #132]	; 0x84
 3800348:	e1a01002 	mov	r1, r2
 380034c:	e58ec008 	str	r12, [r14, #8]
 3800350:	e3a03000 	mov	r3, #0
 3800354:	e3a00641 	mov	r0, #68157440	; 0x4100000
 3800358:	e1c248b4 	strh	r4, [r2, #132]	; 0x84
 380035c:	ea000004 	b	3800374 <test_initialstate+0x50>
 3800360:	e2833001 	add	r3, r3, #1
 3800364:	e5902000 	ldr	r2, [r0]
 3800368:	e3530015 	cmp	r3, #21
 380036c:	e58d2004 	str	r2, [r13, #4]
 3800370:	0a000016 	beq	38003d0 <test_initialstate+0xac>
 3800374:	e1d128b4 	ldrh	r2, [r1, #132]	; 0x84
 3800378:	e3120c01 	tst	r2, #256	; 0x100
 380037c:	0afffff7 	beq	3800360 <test_initialstate+0x3c>
 3800380:	e3a01402 	mov	r1, #33554432	; 0x2000000
 3800384:	e3a02301 	mov	r2, #67108864	; 0x4000000
 3800388:	e3a00000 	mov	r0, #0
 380038c:	e3e0c000 	mvn	r12, #0
 3800390:	e581300c 	str	r3, [r1, #12]
 3800394:	e5923208 	ldr	r3, [r2, #520]	; 0x208
 3800398:	e5813010 	str	r3, [r1, #16]
 380039c:	e5923210 	ldr	r3, [r2, #528]	; 0x210
 38003a0:	e5813014 	str	r3, [r1, #20]
 38003a4:	e5923214 	ldr	r3, [r2, #532]	; 0x214
 38003a8:	e5813018 	str	r3, [r1, #24]
 38003ac:	e5820208 	str	r0, [r2, #520]	; 0x208
 38003b0:	e59f3024 	ldr	r3, [pc, #36]	; 38003dc <test_initialstate+0xb8>
 38003b4:	e5820210 	str	r0, [r2, #528]	; 0x210
 38003b8:	e582c214 	str	r12, [r2, #532]	; 0x214
 38003bc:	e5933000 	ldr	r3, [r3]
 38003c0:	e581301c 	str	r3, [r1, #28]
 38003c4:	e28dd008 	add	r13, r13, #8
 38003c8:	e8bd4010 	pop	{r4, r14}
 38003cc:	e12fff1e 	bx	r14
 38003d0:	e59f3008 	ldr	r3, [pc, #8]	; 38003e0 <test_initialstate+0xbc>
 38003d4:	eaffffe9 	b	3800380 <test_initialstate+0x5c>
 38003d8:	04000100 	streq	r0, [r0], #-256	; 0xffffff00
 38003dc:	038002c4 	orreq	r0, r0, #196, 4	; 0x4000000c
 38003e0:	0000ffff 	strdeq	r15, [r0], -r15	; <UNPREDICTABLE>

038003e4 <_Z17arm7_ipcfifo_testv>:
 38003e4:	e3a03301 	mov	r3, #67108864	; 0x4000000
 38003e8:	e59f20e4 	ldr	r2, [pc, #228]	; 38004d4 <_Z17arm7_ipcfifo_testv+0xf0>
 38003ec:	e92d4010 	push	{r4, r14}
 38003f0:	e3a00a01 	mov	r0, #4096	; 0x1000
 38003f4:	e5832188 	str	r2, [r3, #392]	; 0x188
 38003f8:	eb0000ce 	bl	3800738 <wait_busy>
 38003fc:	e59f30d4 	ldr	r3, [pc, #212]	; 38004d8 <_Z17arm7_ipcfifo_testv+0xf4>
 3800400:	e1d328b4 	ldrh	r2, [r3, #132]	; 0x84
 3800404:	e3120001 	tst	r2, #1
 3800408:	0a00002f 	beq	38004cc <_Z17arm7_ipcfifo_testv+0xe8>
 380040c:	e1d328b4 	ldrh	r2, [r3, #132]	; 0x84
 3800410:	e3120002 	tst	r2, #2
 3800414:	1a00002c 	bne	38004cc <_Z17arm7_ipcfifo_testv+0xe8>
 3800418:	e1d328b4 	ldrh	r2, [r3, #132]	; 0x84
 380041c:	e3120c01 	tst	r2, #256	; 0x100
 3800420:	1a000029 	bne	38004cc <_Z17arm7_ipcfifo_testv+0xe8>
 3800424:	e1d328b4 	ldrh	r2, [r3, #132]	; 0x84
 3800428:	e3120c02 	tst	r2, #512	; 0x200
 380042c:	1a000026 	bne	38004cc <_Z17arm7_ipcfifo_testv+0xe8>
 3800430:	e1d328b4 	ldrh	r2, [r3, #132]	; 0x84
 3800434:	e3120901 	tst	r2, #16384	; 0x4000
 3800438:	1a000023 	bne	38004cc <_Z17arm7_ipcfifo_testv+0xe8>
 380043c:	e3a02641 	mov	r2, #68157440	; 0x4100000
 3800440:	e592c000 	ldr	r12, [r2]
 3800444:	e5921000 	ldr	r1, [r2]
 3800448:	e5920000 	ldr	r0, [r2]
 380044c:	e1d328b4 	ldrh	r2, [r3, #132]	; 0x84
 3800450:	e3120001 	tst	r2, #1
 3800454:	0a00001c 	beq	38004cc <_Z17arm7_ipcfifo_testv+0xe8>
 3800458:	e1d328b4 	ldrh	r2, [r3, #132]	; 0x84
 380045c:	e3120002 	tst	r2, #2
 3800460:	1a000019 	bne	38004cc <_Z17arm7_ipcfifo_testv+0xe8>
 3800464:	e1d328b4 	ldrh	r2, [r3, #132]	; 0x84
 3800468:	e3120c01 	tst	r2, #256	; 0x100
 380046c:	0a000016 	beq	38004cc <_Z17arm7_ipcfifo_testv+0xe8>
 3800470:	e1d328b4 	ldrh	r2, [r3, #132]	; 0x84
 3800474:	e3120c02 	tst	r2, #512	; 0x200
 3800478:	1a000013 	bne	38004cc <_Z17arm7_ipcfifo_testv+0xe8>
 380047c:	e59f2058 	ldr	r2, [pc, #88]	; 38004dc <_Z17arm7_ipcfifo_testv+0xf8>
 3800480:	e59fe058 	ldr	r14, [pc, #88]	; 38004e0 <_Z17arm7_ipcfifo_testv+0xfc>
 3800484:	e15c0002 	cmp	r12, r2
 3800488:	0151000e 	cmpeq	r1, r14
 380048c:	13a01001 	movne	r1, #1
 3800490:	03a01000 	moveq	r1, #0
 3800494:	e2822001 	add	r2, r2, #1
 3800498:	e1500002 	cmp	r0, r2
 380049c:	13811001 	orrne	r1, r1, #1
 38004a0:	e1d338b4 	ldrh	r3, [r3, #132]	; 0x84
 38004a4:	e1a03883 	lsl	r3, r3, #17
 38004a8:	e1913fa3 	orrs	r3, r1, r3, lsr #31
 38004ac:	1a000006 	bne	38004cc <_Z17arm7_ipcfifo_testv+0xe8>
 38004b0:	e3a03411 	mov	r3, #285212672	; 0x11000000
 38004b4:	e3a01301 	mov	r1, #67108864	; 0x4000000
 38004b8:	e59f2024 	ldr	r2, [pc, #36]	; 38004e4 <_Z17arm7_ipcfifo_testv+0x100>
 38004bc:	e5813188 	str	r3, [r1, #392]	; 0x188
 38004c0:	e2833001 	add	r3, r3, #1
 38004c4:	e1530002 	cmp	r3, r2
 38004c8:	1afffffb 	bne	38004bc <_Z17arm7_ipcfifo_testv+0xd8>
 38004cc:	e8bd4010 	pop	{r4, r14}
 38004d0:	e12fff1e 	bx	r14
 38004d4:	12345678 	eorsne	r5, r4, #120, 12	; 0x7800000
 38004d8:	04000100 	streq	r0, [r0], #-256	; 0xffffff00
 38004dc:	1844ccab 	stmdane	r4, {r0, r1, r3, r5, r7, r10, r11, r14, r15}^
 38004e0:	b914a201 	ldmdblt	r4, {r0, r9, r13, r15}
 38004e4:	11000010 	tstne	r0, r0, lsl r0
 38004e8:	e3a01301 	mov	r1, #67108864	; 0x4000000
 38004ec:	e3a00802 	mov	r0, #131072	; 0x20000
 38004f0:	e3a02059 	mov	r2, #89	; 0x59
 38004f4:	e59f3008 	ldr	r3, [pc, #8]	; 3800504 <_Z17arm7_ipcfifo_testv+0x120>
 38004f8:	e5810214 	str	r0, [r1, #532]	; 0x214
 38004fc:	e5832000 	str	r2, [r3]
 3800500:	e12fff1e 	bx	r14
 3800504:	03800764 	orreq	r0, r0, #100, 14	; 0x1900000

03800508 <_Z21arm7_ipcfifo_irq_testv>:
 3800508:	e92d4010 	push	{r4, r14}
 380050c:	e3a00801 	mov	r0, #65536	; 0x10000
 3800510:	eb000088 	bl	3800738 <wait_busy>
 3800514:	e3a04301 	mov	r4, #67108864	; 0x4000000
 3800518:	e3a03802 	mov	r3, #131072	; 0x20000
 380051c:	e3a02001 	mov	r2, #1
 3800520:	e59f0080 	ldr	r0, [pc, #128]	; 38005a8 <_Z21arm7_ipcfifo_irq_testv+0xa0>
 3800524:	e59fc080 	ldr	r12, [pc, #128]	; 38005ac <_Z21arm7_ipcfifo_irq_testv+0xa4>
 3800528:	e59f1080 	ldr	r1, [pc, #128]	; 38005b0 <_Z21arm7_ipcfifo_irq_testv+0xa8>
 380052c:	e1c0c8b4 	strh	r12, [r0, #132]	; 0x84
 3800530:	e59f007c 	ldr	r0, [pc, #124]	; 38005b4 <_Z21arm7_ipcfifo_irq_testv+0xac>
 3800534:	e5810ffc 	str	r0, [r1, #4092]	; 0xffc
 3800538:	e5843214 	str	r3, [r4, #532]	; 0x214
 380053c:	e5843210 	str	r3, [r4, #528]	; 0x210
 3800540:	e5842208 	str	r2, [r4, #520]	; 0x208
 3800544:	eb00007e 	bl	3800744 <l_EIC>
 3800548:	e3a00029 	mov	r0, #41	; 0x29
 380054c:	e3a02c81 	mov	r2, #33024	; 0x8100
 3800550:	e59f1060 	ldr	r1, [pc, #96]	; 38005b8 <_Z21arm7_ipcfifo_irq_testv+0xb0>
 3800554:	e3a03601 	mov	r3, #1048576	; 0x100000
 3800558:	e5810000 	str	r0, [r1]
 380055c:	e5842188 	str	r2, [r4, #392]	; 0x188
 3800560:	ea000001 	b	380056c <_Z21arm7_ipcfifo_irq_testv+0x64>
 3800564:	e2533001 	subs	r3, r3, #1
 3800568:	0a00000c 	beq	38005a0 <_Z21arm7_ipcfifo_irq_testv+0x98>
 380056c:	e5912000 	ldr	r2, [r1]
 3800570:	e3520059 	cmp	r2, #89	; 0x59
 3800574:	1afffffa 	bne	3800564 <_Z21arm7_ipcfifo_irq_testv+0x5c>
 3800578:	e59f3028 	ldr	r3, [pc, #40]	; 38005a8 <_Z21arm7_ipcfifo_irq_testv+0xa0>
 380057c:	e59f2038 	ldr	r2, [pc, #56]	; 38005bc <_Z21arm7_ipcfifo_irq_testv+0xb4>
 3800580:	e3a00a02 	mov	r0, #8192	; 0x2000
 3800584:	e1c328b4 	strh	r2, [r3, #132]	; 0x84
 3800588:	eb00006a 	bl	3800738 <wait_busy>
 380058c:	e3a03301 	mov	r3, #67108864	; 0x4000000
 3800590:	e3a01ea5 	mov	r1, #2640	; 0xa50
 3800594:	e3a02000 	mov	r2, #0
 3800598:	e5831188 	str	r1, [r3, #392]	; 0x188
 380059c:	e5832208 	str	r2, [r3, #520]	; 0x208
 38005a0:	e8bd4010 	pop	{r4, r14}
 38005a4:	e12fff1e 	bx	r14
 38005a8:	04000100 	streq	r0, [r0], #-256	; 0xffffff00
 38005ac:	ffff800c 			; <UNDEFINED> instruction: 0xffff800c
 38005b0:	0380f000 	orreq	r15, r0, #0
 38005b4:	038004e8 	orreq	r0, r0, #232, 8	; 0xe8000000
 38005b8:	03800764 	orreq	r0, r0, #100, 14	; 0x1900000
 38005bc:	ffff8008 			; <UNDEFINED> instruction: 0xffff8008
 38005c0:	e3a03301 	mov	r3, #67108864	; 0x4000000
 38005c4:	e3a02801 	mov	r2, #65536	; 0x10000
 38005c8:	e92d4010 	push	{r4, r14}
 38005cc:	e59f4044 	ldr	r4, [pc, #68]	; 3800618 <_Z21arm7_ipcfifo_irq_testv+0x110>
 38005d0:	e5832214 	str	r2, [r3, #532]	; 0x214
 38005d4:	e1d438b0 	ldrh	r3, [r4, #128]	; 0x80
 38005d8:	e203300f 	and	r3, r3, #15
 38005dc:	e3530009 	cmp	r3, #9
 38005e0:	0a000001 	beq	38005ec <_Z21arm7_ipcfifo_irq_testv+0xe4>
 38005e4:	e8bd4010 	pop	{r4, r14}
 38005e8:	e12fff1e 	bx	r14
 38005ec:	e3a03c0b 	mov	r3, #2816	; 0xb00
 38005f0:	e3a01069 	mov	r1, #105	; 0x69
 38005f4:	e59f2020 	ldr	r2, [pc, #32]	; 380061c <_Z21arm7_ipcfifo_irq_testv+0x114>
 38005f8:	e3a00a02 	mov	r0, #8192	; 0x2000
 38005fc:	e5821000 	str	r1, [r2]
 3800600:	e1c438b0 	strh	r3, [r4, #128]	; 0x80
 3800604:	eb00004b 	bl	3800738 <wait_busy>
 3800608:	e3a03a02 	mov	r3, #8192	; 0x2000
 380060c:	e1c438b0 	strh	r3, [r4, #128]	; 0x80
 3800610:	e8bd4010 	pop	{r4, r14}
 3800614:	e12fff1e 	bx	r14
 3800618:	04000100 	streq	r0, [r0], #-256	; 0xffffff00
 380061c:	03800768 	orreq	r0, r0, #104, 14	; 0x1a00000

03800620 <_Z18wait_ipcsync_valuei>:
 3800620:	e3a02a01 	mov	r2, #4096	; 0x1000
 3800624:	e59f1028 	ldr	r1, [pc, #40]	; 3800654 <_Z18wait_ipcsync_valuei+0x34>
 3800628:	ea000001 	b	3800634 <_Z18wait_ipcsync_valuei+0x14>
 380062c:	e2522001 	subs	r2, r2, #1
 3800630:	0a000005 	beq	380064c <_Z18wait_ipcsync_valuei+0x2c>
 3800634:	e1d138b0 	ldrh	r3, [r1, #128]	; 0x80
 3800638:	e203300f 	and	r3, r3, #15
 380063c:	e1530000 	cmp	r3, r0
 3800640:	1afffff9 	bne	380062c <_Z18wait_ipcsync_valuei+0xc>
 3800644:	e3a00001 	mov	r0, #1
 3800648:	e12fff1e 	bx	r14
 380064c:	e1a00002 	mov	r0, r2
 3800650:	e12fff1e 	bx	r14
 3800654:	04000100 	streq	r0, [r0], #-256	; 0xffffff00

03800658 <_Z17arm7_ipcsync_testv>:
 3800658:	e3a01b01 	mov	r1, #1024	; 0x400
 380065c:	e59f3094 	ldr	r3, [pc, #148]	; 38006f8 <_Z17arm7_ipcsync_testv+0xa0>
 3800660:	e92d4070 	push	{r4, r5, r6, r14}
 3800664:	e3a02a01 	mov	r2, #4096	; 0x1000
 3800668:	e1a05003 	mov	r5, r3
 380066c:	e1c318b0 	strh	r1, [r3, #128]	; 0x80
 3800670:	ea000001 	b	380067c <_Z17arm7_ipcsync_testv+0x24>
 3800674:	e2522001 	subs	r2, r2, #1
 3800678:	0a00001c 	beq	38006f0 <_Z17arm7_ipcsync_testv+0x98>
 380067c:	e1d538b0 	ldrh	r3, [r5, #128]	; 0x80
 3800680:	e203300f 	and	r3, r3, #15
 3800684:	e3530005 	cmp	r3, #5
 3800688:	1afffff9 	bne	3800674 <_Z17arm7_ipcsync_testv+0x1c>
 380068c:	e3a0000b 	mov	r0, #11
 3800690:	e3a03301 	mov	r3, #67108864	; 0x4000000
 3800694:	e3a04801 	mov	r4, #65536	; 0x10000
 3800698:	e3a02001 	mov	r2, #1
 380069c:	e59f6058 	ldr	r6, [pc, #88]	; 38006fc <_Z17arm7_ipcsync_testv+0xa4>
 38006a0:	e59f1058 	ldr	r1, [pc, #88]	; 3800700 <_Z17arm7_ipcsync_testv+0xa8>
 38006a4:	e5860000 	str	r0, [r6]
 38006a8:	e59f0054 	ldr	r0, [pc, #84]	; 3800704 <_Z17arm7_ipcsync_testv+0xac>
 38006ac:	e5810ffc 	str	r0, [r1, #4092]	; 0xffc
 38006b0:	e5834214 	str	r4, [r3, #532]	; 0x214
 38006b4:	e5834210 	str	r4, [r3, #528]	; 0x210
 38006b8:	e5832208 	str	r2, [r3, #520]	; 0x208
 38006bc:	eb000020 	bl	3800744 <l_EIC>
 38006c0:	e3a02c47 	mov	r2, #18176	; 0x4700
 38006c4:	e1a03004 	mov	r3, r4
 38006c8:	e1c528b0 	strh	r2, [r5, #128]	; 0x80
 38006cc:	ea000001 	b	38006d8 <_Z17arm7_ipcsync_testv+0x80>
 38006d0:	e2533001 	subs	r3, r3, #1
 38006d4:	0a000005 	beq	38006f0 <_Z17arm7_ipcsync_testv+0x98>
 38006d8:	e5962000 	ldr	r2, [r6]
 38006dc:	e3520069 	cmp	r2, #105	; 0x69
 38006e0:	1afffffa 	bne	38006d0 <_Z17arm7_ipcsync_testv+0x78>
 38006e4:	e3a03301 	mov	r3, #67108864	; 0x4000000
 38006e8:	e3a02000 	mov	r2, #0
 38006ec:	e5832208 	str	r2, [r3, #520]	; 0x208
 38006f0:	e8bd4070 	pop	{r4, r5, r6, r14}
 38006f4:	e12fff1e 	bx	r14
 38006f8:	04000100 	streq	r0, [r0], #-256	; 0xffffff00
 38006fc:	03800768 	orreq	r0, r0, #104, 14	; 0x1a00000
 3800700:	0380f000 	orreq	r15, r0, #0
 3800704:	038005c0 	orreq	r0, r0, #192, 10	; 0x30000000

03800708 <enable_trace>:
 3800708:	e59f3008 	ldr	r3, [pc, #8]	; 3800718 <enable_trace+0x10>
 380070c:	e59f2008 	ldr	r2, [pc, #8]	; 380071c <enable_trace+0x14>
 3800710:	e5832400 	str	r2, [r3, #1024]	; 0x400
 3800714:	e12fff1e 	bx	r14
 3800718:	08004000 	stmdaeq	r0, {r14}
 380071c:	08004400 	stmdaeq	r0, {r10, r14}

03800720 <disable_trace>:
 3800720:	e59f3008 	ldr	r3, [pc, #8]	; 3800730 <disable_trace+0x10>
 3800724:	e59f2008 	ldr	r2, [pc, #8]	; 3800734 <disable_trace+0x14>
 3800728:	e5832500 	str	r2, [r3, #1280]	; 0x500
 380072c:	e12fff1e 	bx	r14
 3800730:	08005000 	stmdaeq	r0, {r12, r14}
 3800734:	08005500 	stmdaeq	r0, {r8, r10, r12, r14}

03800738 <wait_busy>:
 3800738:	e2500001 	subs	r0, r0, #1
 380073c:	1afffffd 	bne	3800738 <wait_busy>
 3800740:	e12fff1e 	bx	r14

03800744 <l_EIC>:
 3800744:	e10f3000 	mrs	r3, CPSR
 3800748:	e3c33080 	bic	r3, r3, #128	; 0x80
 380074c:	e121f003 	msr	CPSR_c, r3
 3800750:	e12fff1e 	bx	r14

03800754 <l_DIC>:
 3800754:	e10f3000 	mrs	r3, CPSR
 3800758:	e3833080 	orr	r3, r3, #128	; 0x80
 380075c:	e121f003 	msr	CPSR_c, r3
 3800760:	e12fff1e 	bx	r14

Disassembly of section .bss:

03810764 <magic>:
	...

Disassembly of section .comment:

00000000 <_stack-0x80000>:
   0:	3a434347 	bcc	10d0d24 <_stack+0x1050d24>
   4:	65642820 	strbvs	r2, [r4, #-2080]!	; 0xfffff7e0
   8:	74696b76 	strbtvc	r6, [r9], #-2934	; 0xfffff48a
   c:	204d5241 	subcs	r5, r13, r1, asr #4
  10:	656c6572 	strbvs	r6, [r12, #-1394]!	; 0xfffffa8e
  14:	20657361 	rsbcs	r7, r5, r1, ror #6
  18:	20293235 	eorcs	r3, r9, r5, lsr r2
  1c:	2e332e38 	mrccs	14, 1, r2, cr3, cr8, {1}
  20:	Address 0x0000000000000020 is out of bounds.


Disassembly of section .ARM.attributes:

00000000 <.ARM.attributes>:
   0:	00002541 	andeq	r2, r0, r1, asr #10
   4:	61656100 	cmnvs	r5, r0, lsl #2
   8:	01006962 	tsteq	r0, r2, ror #18
   c:	0000001b 	andeq	r0, r0, r11, lsl r0
  10:	00543405 	subseq	r3, r4, r5, lsl #8
  14:	01080206 	tsteq	r8, r6, lsl #4
  18:	04120109 	ldreq	r0, [r2], #-265	; 0xfffffef7
  1c:	01150114 	tsteq	r5, r4, lsl r1
  20:	01180317 	tsteq	r8, r7, lsl r3
  24:	Address 0x0000000000000024 is out of bounds.

