
a.out:     file format elf32-littlearm


Disassembly of section .text:

02000100 <_start>:
 2000100:	ea000ac9 	b	2002c2c <arm9_main>

02000104 <_Z17read_from_IPCFIFOi>:
 2000104:	e92d4070 	push	{r4, r5, r6, r14}
 2000108:	e59f5034 	ldr	r5, [pc, #52]	; 2000144 <_Z17read_from_IPCFIFOi+0x40>
 200010c:	e1a06000 	mov	r6, r0
 2000110:	e3a04901 	mov	r4, #16384	; 0x4000
 2000114:	ea000001 	b	2000120 <_Z17read_from_IPCFIFOi+0x1c>
 2000118:	e2544001 	subs	r4, r4, #1
 200011c:	0a000005 	beq	2000138 <_Z17read_from_IPCFIFOi+0x34>
 2000120:	e1d538b4 	ldrh	r3, [r5, #132]	; 0x84
 2000124:	e3130c01 	tst	r3, #256	; 0x100
 2000128:	1afffffa 	bne	2000118 <_Z17read_from_IPCFIFOi+0x14>
 200012c:	e3a03641 	mov	r3, #68157440	; 0x4100000
 2000130:	e5930000 	ldr	r0, [r3]
 2000134:	e8bd8070 	pop	{r4, r5, r6, r15}
 2000138:	e1a00006 	mov	r0, r6
 200013c:	eb001303 	bl	2004d50 <timeout_test>
 2000140:	eafffff6 	b	2000120 <_Z17read_from_IPCFIFOi+0x1c>
 2000144:	04000100 	streq	r0, [r0], #-256	; 0xffffff00

02000148 <init_iostate>:
 2000148:	e59f2038 	ldr	r2, [pc, #56]	; 2000188 <init_iostate+0x40>
 200014c:	e92d4010 	push	{r4, r14}
 2000150:	e3a03802 	mov	r3, #131072	; 0x20000
 2000154:	e3a04301 	mov	r4, #67108864	; 0x4000000
 2000158:	e3e0107f 	mvn	r1, #127	; 0x7f
 200015c:	e59f0028 	ldr	r0, [pc, #40]	; 200018c <init_iostate+0x44>
 2000160:	e5840304 	str	r0, [r4, #772]	; 0x304
 2000164:	e5c21040 	strb	r1, [r2, #64]	; 0x40
 2000168:	e59f0020 	ldr	r0, [pc, #32]	; 2000190 <init_iostate+0x48>
 200016c:	e5843000 	str	r3, [r4]
 2000170:	eb00028f 	bl	2000bb4 <cp15_set_DTCMcontrol>
 2000174:	e3a0000c 	mov	r0, #12
 2000178:	eb000291 	bl	2000bc4 <cp15_set_ITCMcontrol>
 200017c:	e3a03000 	mov	r3, #0
 2000180:	e5843208 	str	r3, [r4, #520]	; 0x208
 2000184:	e8bd8010 	pop	{r4, r15}
 2000188:	04000200 	streq	r0, [r0], #-512	; 0xfffffe00
 200018c:	00008003 	andeq	r8, r0, r3
 2000190:	0080000a 	addeq	r0, r0, r10

02000194 <_Z11wait_vblankv>:
 2000194:	e3a02301 	mov	r2, #67108864	; 0x4000000
 2000198:	e1d230b4 	ldrh	r3, [r2, #4]
 200019c:	e3130001 	tst	r3, #1
 20001a0:	1afffffc 	bne	2000198 <_Z11wait_vblankv+0x4>
 20001a4:	e3a02301 	mov	r2, #67108864	; 0x4000000
 20001a8:	e1d230b4 	ldrh	r3, [r2, #4]
 20001ac:	e3130001 	tst	r3, #1
 20001b0:	0afffffc 	beq	20001a8 <_Z11wait_vblankv+0x14>
 20001b4:	e12fff1e 	bx	r14

020001b8 <l_resetIPCSYNC>:
 20001b8:	e59f3008 	ldr	r3, [pc, #8]	; 20001c8 <l_resetIPCSYNC+0x10>
 20001bc:	e3a02000 	mov	r2, #0
 20001c0:	e1c328b0 	strh	r2, [r3, #128]	; 0x80
 20001c4:	e12fff1e 	bx	r14
 20001c8:	04000100 	streq	r0, [r0], #-256	; 0xffffff00

020001cc <_Z12clear_screenv>:
 20001cc:	e59f1014 	ldr	r1, [pc, #20]	; 20001e8 <_Z12clear_screenv+0x1c>
 20001d0:	e59f2014 	ldr	r2, [pc, #20]	; 20001ec <_Z12clear_screenv+0x20>
 20001d4:	e3a0351a 	mov	r3, #109051904	; 0x6800000
 20001d8:	e4831004 	str	r1, [r3], #4
 20001dc:	e1530002 	cmp	r3, r2
 20001e0:	1afffffc 	bne	20001d8 <_Z12clear_screenv+0xc>
 20001e4:	e12fff1e 	bx	r14
 20001e8:	56b556b5 			; <UNDEFINED> instruction: 0x56b556b5
 20001ec:	06818000 	streq	r8, [r1], r0

020001f0 <_Z14draw_cleartileiit>:
 20001f0:	e1a00180 	lsl	r0, r0, #3
 20001f4:	e0801581 	add	r1, r0, r1, lsl #11
 20001f8:	e59f0030 	ldr	r0, [pc, #48]	; 2000230 <_Z14draw_cleartileiit+0x40>
 20001fc:	e281350d 	add	r3, r1, #54525952	; 0x3400000
 2000200:	e0810000 	add	r0, r1, r0
 2000204:	e2833008 	add	r3, r3, #8
 2000208:	e1a01083 	lsl	r1, r3, #1
 200020c:	e1a00080 	lsl	r0, r0, #1
 2000210:	e2413010 	sub	r3, r1, #16
 2000214:	e0c320b2 	strh	r2, [r3], #2
 2000218:	e1510003 	cmp	r1, r3
 200021c:	1afffffc 	bne	2000214 <_Z14draw_cleartileiit+0x24>
 2000220:	e2811c02 	add	r1, r1, #512	; 0x200
 2000224:	e1510000 	cmp	r1, r0
 2000228:	1afffff8 	bne	2000210 <_Z14draw_cleartileiit+0x20>
 200022c:	e12fff1e 	bx	r14
 2000230:	03400808 	movteq	r0, #2056	; 0x808

02000234 <_Z9draw_tileiii>:
 2000234:	e92d4010 	push	{r4, r14}
 2000238:	e1a01581 	lsl	r1, r1, #11
 200023c:	e59f404c 	ldr	r4, [pc, #76]	; 2000290 <_Z9draw_tileiii+0x5c>
 2000240:	e081e180 	add	r14, r1, r0, lsl #3
 2000244:	e0844302 	add	r4, r4, r2, lsl #6
 2000248:	e28ee50d 	add	r14, r14, #54525952	; 0x3400000
 200024c:	e59fc040 	ldr	r12, [pc, #64]	; 2000294 <_Z9draw_tileiii+0x60>
 2000250:	e2840008 	add	r0, r4, #8
 2000254:	e1a0e08e 	lsl	r14, r14, #1
 2000258:	e2844048 	add	r4, r4, #72	; 0x48
 200025c:	e2402008 	sub	r2, r0, #8
 2000260:	e1a0100e 	mov	r1, r14
 2000264:	e4d23001 	ldrb	r3, [r2], #1
 2000268:	e1a03083 	lsl	r3, r3, #1
 200026c:	e19c30b3 	ldrh	r3, [r12, r3]
 2000270:	e1500002 	cmp	r0, r2
 2000274:	e0c130b2 	strh	r3, [r1], #2
 2000278:	1afffff9 	bne	2000264 <_Z9draw_tileiii+0x30>
 200027c:	e2800008 	add	r0, r0, #8
 2000280:	e1540000 	cmp	r4, r0
 2000284:	e28eec02 	add	r14, r14, #512	; 0x200
 2000288:	1afffff3 	bne	200025c <_Z9draw_tileiii+0x28>
 200028c:	e8bd8010 	pop	{r4, r15}
 2000290:	02000bcc 	andeq	r0, r0, #204, 22	; 0x33000
 2000294:	0200777c 	andeq	r7, r0, #124, 14	; 0x1f00000

02000298 <_Z11draw_stringiiPKc>:
 2000298:	e92d4070 	push	{r4, r5, r6, r14}
 200029c:	e1a04002 	mov	r4, r2
 20002a0:	e5d22000 	ldrb	r2, [r2]
 20002a4:	e3520000 	cmp	r2, #0
 20002a8:	08bd8070 	popeq	{r4, r5, r6, r15}
 20002ac:	e1a06001 	mov	r6, r1
 20002b0:	e0405004 	sub	r5, r0, r4
 20002b4:	e0840005 	add	r0, r4, r5
 20002b8:	e1a01006 	mov	r1, r6
 20002bc:	ebffffdc 	bl	2000234 <_Z9draw_tileiii>
 20002c0:	e5f42001 	ldrb	r2, [r4, #1]!
 20002c4:	e3520000 	cmp	r2, #0
 20002c8:	1afffff9 	bne	20002b4 <_Z11draw_stringiiPKc+0x1c>
 20002cc:	e8bd8070 	pop	{r4, r5, r6, r15}

020002d0 <cpp_menu>:
 20002d0:	e59f35b4 	ldr	r3, [pc, #1460]	; 200088c <cpp_menu+0x5bc>
 20002d4:	e92d4ff0 	push	{r4, r5, r6, r7, r8, r9, r10, r11, r14}
 20002d8:	e5930000 	ldr	r0, [r3]
 20002dc:	e59f75ac 	ldr	r7, [pc, #1452]	; 2000890 <cpp_menu+0x5c0>
 20002e0:	e3500000 	cmp	r0, #0
 20002e4:	059f35a8 	ldreq	r3, [pc, #1448]	; 2000894 <cpp_menu+0x5c4>
 20002e8:	059f259c 	ldreq	r2, [pc, #1436]	; 200088c <cpp_menu+0x5bc>
 20002ec:	e24dd044 	sub	r13, r13, #68	; 0x44
 20002f0:	05870000 	streq	r0, [r7]
 20002f4:	01a00003 	moveq	r0, r3
 20002f8:	05823000 	streq	r3, [r2]
 20002fc:	eb000182 	bl	200090c <_ZNK4Menu4drawEv>
 2000300:	e1a0300d 	mov	r3, r13
 2000304:	e28d1040 	add	r1, r13, #64	; 0x40
 2000308:	e3a02000 	mov	r2, #0
 200030c:	e4832004 	str	r2, [r3], #4
 2000310:	e1530001 	cmp	r3, r1
 2000314:	1afffffc 	bne	200030c <cpp_menu+0x3c>
 2000318:	e3a09000 	mov	r9, #0
 200031c:	e59f6574 	ldr	r6, [pc, #1396]	; 2000898 <cpp_menu+0x5c8>
 2000320:	e1a04009 	mov	r4, r9
 2000324:	e3a08001 	mov	r8, #1
 2000328:	ebffff99 	bl	2000194 <_Z11wait_vblankv>
 200032c:	e1d623b0 	ldrh	r2, [r6, #48]	; 0x30
 2000330:	e3a03000 	mov	r3, #0
 2000334:	e1844002 	orr	r4, r4, r2
 2000338:	e1e0a004 	mvn	r10, r4
 200033c:	e1e04002 	mvn	r4, r2
 2000340:	e1a0a80a 	lsl	r10, r10, #16
 2000344:	e1a04804 	lsl	r4, r4, #16
 2000348:	e1a0a82a 	lsr	r10, r10, #16
 200034c:	e1a04824 	lsr	r4, r4, #16
 2000350:	e1a05003 	mov	r5, r3
 2000354:	e1a0100d 	mov	r1, r13
 2000358:	e3a00001 	mov	r0, #1
 200035c:	e1a02354 	asr	r2, r4, r3
 2000360:	e2122001 	ands	r2, r2, #1
 2000364:	05812000 	streq	r2, [r1]
 2000368:	0a00000b 	beq	200039c <cpp_menu+0xcc>
 200036c:	e5912000 	ldr	r2, [r1]
 2000370:	e185c310 	orr	r12, r5, r0, lsl r3
 2000374:	e2822001 	add	r2, r2, #1
 2000378:	e3520001 	cmp	r2, #1
 200037c:	e5812000 	str	r2, [r1]
 2000380:	0a000003 	beq	2000394 <cpp_menu+0xc4>
 2000384:	e352001e 	cmp	r2, #30
 2000388:	da000003 	ble	200039c <cpp_menu+0xcc>
 200038c:	e3120007 	tst	r2, #7
 2000390:	1a000001 	bne	200039c <cpp_menu+0xcc>
 2000394:	e1a0580c 	lsl	r5, r12, #16
 2000398:	e1a05825 	lsr	r5, r5, #16
 200039c:	e2833001 	add	r3, r3, #1
 20003a0:	e3530010 	cmp	r3, #16
 20003a4:	e2811004 	add	r1, r1, #4
 20003a8:	1affffeb 	bne	200035c <cpp_menu+0x8c>
 20003ac:	e3150040 	tst	r5, #64	; 0x40
 20003b0:	1a00005b 	bne	2000524 <cpp_menu+0x254>
 20003b4:	e3150080 	tst	r5, #128	; 0x80
 20003b8:	1a000072 	bne	2000588 <cpp_menu+0x2b8>
 20003bc:	e31a0001 	tst	r10, #1
 20003c0:	1a000029 	bne	200046c <cpp_menu+0x19c>
 20003c4:	e31a0002 	tst	r10, #2
 20003c8:	0a000004 	beq	20003e0 <cpp_menu+0x110>
 20003cc:	e59f24b8 	ldr	r2, [pc, #1208]	; 200088c <cpp_menu+0x5bc>
 20003d0:	e5920000 	ldr	r0, [r2]
 20003d4:	e5905008 	ldr	r5, [r0, #8]
 20003d8:	e3550000 	cmp	r5, #0
 20003dc:	1a00008d 	bne	2000618 <cpp_menu+0x348>
 20003e0:	e5971000 	ldr	r1, [r7]
 20003e4:	e3a02016 	mov	r2, #22
 20003e8:	e2811002 	add	r1, r1, #2
 20003ec:	e3a00001 	mov	r0, #1
 20003f0:	ebffff8f 	bl	2000234 <_Z9draw_tileiii>
 20003f4:	e1d638b0 	ldrh	r3, [r6, #128]	; 0x80
 20003f8:	e203300f 	and	r3, r3, #15
 20003fc:	e1530008 	cmp	r3, r8
 2000400:	0a00000e 	beq	2000440 <cpp_menu+0x170>
 2000404:	e1a03c08 	lsl	r3, r8, #24
 2000408:	e1a03823 	lsr	r3, r3, #16
 200040c:	e59f2488 	ldr	r2, [pc, #1160]	; 200089c <cpp_menu+0x5cc>
 2000410:	e2899001 	add	r9, r9, #1
 2000414:	e1c638b0 	strh	r3, [r6, #128]	; 0x80
 2000418:	e3a01000 	mov	r1, #0
 200041c:	e3a0001b 	mov	r0, #27
 2000420:	ebffff9c 	bl	2000298 <_Z11draw_stringiiPKc>
 2000424:	e3590006 	cmp	r9, #6
 2000428:	b3a02e3e 	movlt	r2, #992	; 0x3e0
 200042c:	a3a0201f 	movge	r2, #31
 2000430:	e3a01000 	mov	r1, #0
 2000434:	e3a0001f 	mov	r0, #31
 2000438:	ebffff6c 	bl	20001f0 <_Z14draw_cleartileiit>
 200043c:	eaffffb9 	b	2000328 <cpp_menu+0x58>
 2000440:	e2688003 	rsb	r8, r8, #3
 2000444:	e1a03c08 	lsl	r3, r8, #24
 2000448:	e1a03823 	lsr	r3, r3, #16
 200044c:	e59f2448 	ldr	r2, [pc, #1096]	; 200089c <cpp_menu+0x5cc>
 2000450:	e1c638b0 	strh	r3, [r6, #128]	; 0x80
 2000454:	e3a01000 	mov	r1, #0
 2000458:	e3a0001b 	mov	r0, #27
 200045c:	ebffff8d 	bl	2000298 <_Z11draw_stringiiPKc>
 2000460:	e3a09000 	mov	r9, #0
 2000464:	e3a02e3e 	mov	r2, #992	; 0x3e0
 2000468:	eafffff0 	b	2000430 <cpp_menu+0x160>
 200046c:	ebffff56 	bl	20001cc <_Z12clear_screenv>
 2000470:	e59f3414 	ldr	r3, [pc, #1044]	; 200088c <cpp_menu+0x5bc>
 2000474:	e5932000 	ldr	r2, [r3]
 2000478:	e5973000 	ldr	r3, [r7]
 200047c:	e5922000 	ldr	r2, [r2]
 2000480:	e0833083 	add	r3, r3, r3, lsl #1
 2000484:	e0823103 	add	r3, r2, r3, lsl #2
 2000488:	e5935008 	ldr	r5, [r3, #8]
 200048c:	e3550000 	cmp	r5, #0
 2000490:	0a00009d 	beq	200070c <cpp_menu+0x43c>
 2000494:	e3550001 	cmp	r5, #1
 2000498:	0a0000be 	beq	2000798 <cpp_menu+0x4c8>
 200049c:	e3550002 	cmp	r5, #2
 20004a0:	1affffc7 	bne	20003c4 <cpp_menu+0xf4>
 20004a4:	e5933004 	ldr	r3, [r3, #4]
 20004a8:	e12fff33 	blx	r3
 20004ac:	e1d633b0 	ldrh	r3, [r6, #48]	; 0x30
 20004b0:	e2133002 	ands	r3, r3, #2
 20004b4:	1afffffc 	bne	20004ac <cpp_menu+0x1dc>
 20004b8:	e1a0b003 	mov	r11, r3
 20004bc:	e59f33c8 	ldr	r3, [pc, #968]	; 200088c <cpp_menu+0x5bc>
 20004c0:	e5935000 	ldr	r5, [r3]
 20004c4:	ebffff40 	bl	20001cc <_Z12clear_screenv>
 20004c8:	e5952004 	ldr	r2, [r5, #4]
 20004cc:	e1a0100b 	mov	r1, r11
 20004d0:	e3a00003 	mov	r0, #3
 20004d4:	ebffff6f 	bl	2000298 <_Z11draw_stringiiPKc>
 20004d8:	e5950000 	ldr	r0, [r5]
 20004dc:	e1a03000 	mov	r3, r0
 20004e0:	e493200c 	ldr	r2, [r3], #12
 20004e4:	e3520000 	cmp	r2, #0
 20004e8:	0a000082 	beq	20006f8 <cpp_menu+0x428>
 20004ec:	e3a02000 	mov	r2, #0
 20004f0:	e493100c 	ldr	r1, [r3], #12
 20004f4:	e2822001 	add	r2, r2, #1
 20004f8:	e3510000 	cmp	r1, #0
 20004fc:	1afffffb 	bne	20004f0 <cpp_menu+0x220>
 2000500:	e152000b 	cmp	r2, r11
 2000504:	da00007b 	ble	20006f8 <cpp_menu+0x428>
 2000508:	e08b308b 	add	r3, r11, r11, lsl #1
 200050c:	e7902103 	ldr	r2, [r0, r3, lsl #2]
 2000510:	e28b1002 	add	r1, r11, #2
 2000514:	e3a00002 	mov	r0, #2
 2000518:	e28bb001 	add	r11, r11, #1
 200051c:	ebffff5d 	bl	2000298 <_Z11draw_stringiiPKc>
 2000520:	eaffffec 	b	20004d8 <cpp_menu+0x208>
 2000524:	e5971000 	ldr	r1, [r7]
 2000528:	e59f2370 	ldr	r2, [pc, #880]	; 20008a0 <cpp_menu+0x5d0>
 200052c:	e2811002 	add	r1, r1, #2
 2000530:	e3a00001 	mov	r0, #1
 2000534:	ebffff2d 	bl	20001f0 <_Z14draw_cleartileiit>
 2000538:	e5973000 	ldr	r3, [r7]
 200053c:	e2433001 	sub	r3, r3, #1
 2000540:	e3530000 	cmp	r3, #0
 2000544:	e5873000 	str	r3, [r7]
 2000548:	aaffff99 	bge	20003b4 <cpp_menu+0xe4>
 200054c:	e59f2338 	ldr	r2, [pc, #824]	; 200088c <cpp_menu+0x5bc>
 2000550:	e5922000 	ldr	r2, [r2]
 2000554:	e5922000 	ldr	r2, [r2]
 2000558:	e492100c 	ldr	r1, [r2], #12
 200055c:	e3510000 	cmp	r1, #0
 2000560:	0a000005 	beq	200057c <cpp_menu+0x2ac>
 2000564:	e3a01000 	mov	r1, #0
 2000568:	e492000c 	ldr	r0, [r2], #12
 200056c:	e2811001 	add	r1, r1, #1
 2000570:	e3500000 	cmp	r0, #0
 2000574:	1afffffb 	bne	2000568 <cpp_menu+0x298>
 2000578:	e0833001 	add	r3, r3, r1
 200057c:	e3150080 	tst	r5, #128	; 0x80
 2000580:	e5873000 	str	r3, [r7]
 2000584:	0affff8c 	beq	20003bc <cpp_menu+0xec>
 2000588:	e5971000 	ldr	r1, [r7]
 200058c:	e59f230c 	ldr	r2, [pc, #780]	; 20008a0 <cpp_menu+0x5d0>
 2000590:	e2811002 	add	r1, r1, #2
 2000594:	e3a00001 	mov	r0, #1
 2000598:	ebffff14 	bl	20001f0 <_Z14draw_cleartileiit>
 200059c:	e59f32e8 	ldr	r3, [pc, #744]	; 200088c <cpp_menu+0x5bc>
 20005a0:	e597e000 	ldr	r14, [r7]
 20005a4:	e5933000 	ldr	r3, [r3]
 20005a8:	e593c000 	ldr	r12, [r3]
 20005ac:	e28e3001 	add	r3, r14, #1
 20005b0:	e49c200c 	ldr	r2, [r12], #12
 20005b4:	e5873000 	str	r3, [r7]
 20005b8:	e3520000 	cmp	r2, #0
 20005bc:	0a0000af 	beq	2000880 <cpp_menu+0x5b0>
 20005c0:	e1a0100c 	mov	r1, r12
 20005c4:	e3a02000 	mov	r2, #0
 20005c8:	ea000000 	b	20005d0 <cpp_menu+0x300>
 20005cc:	e1a02000 	mov	r2, r0
 20005d0:	e491300c 	ldr	r3, [r1], #12
 20005d4:	e2820001 	add	r0, r2, #1
 20005d8:	e3530000 	cmp	r3, #0
 20005dc:	1afffffa 	bne	20005cc <cpp_menu+0x2fc>
 20005e0:	e15e0002 	cmp	r14, r2
 20005e4:	baffff74 	blt	20003bc <cpp_menu+0xec>
 20005e8:	e49c200c 	ldr	r2, [r12], #12
 20005ec:	e2831001 	add	r1, r3, #1
 20005f0:	e3520000 	cmp	r2, #0
 20005f4:	0a000004 	beq	200060c <cpp_menu+0x33c>
 20005f8:	e49c200c 	ldr	r2, [r12], #12
 20005fc:	e1a03001 	mov	r3, r1
 2000600:	e3520000 	cmp	r2, #0
 2000604:	e2831001 	add	r1, r3, #1
 2000608:	1afffffa 	bne	20005f8 <cpp_menu+0x328>
 200060c:	e04e3003 	sub	r3, r14, r3
 2000610:	e5873000 	str	r3, [r7]
 2000614:	eaffff68 	b	20003bc <cpp_menu+0xec>
 2000618:	e5953000 	ldr	r3, [r5]
 200061c:	e5825000 	str	r5, [r2]
 2000620:	e5931004 	ldr	r1, [r3, #4]
 2000624:	e3a02000 	mov	r2, #0
 2000628:	e1500001 	cmp	r0, r1
 200062c:	e5872000 	str	r2, [r7]
 2000630:	0a000007 	beq	2000654 <cpp_menu+0x384>
 2000634:	e3a02001 	mov	r2, #1
 2000638:	e5931010 	ldr	r1, [r3, #16]
 200063c:	e283300c 	add	r3, r3, #12
 2000640:	e1500001 	cmp	r0, r1
 2000644:	e1a01002 	mov	r1, r2
 2000648:	e2822001 	add	r2, r2, #1
 200064c:	1afffff9 	bne	2000638 <cpp_menu+0x368>
 2000650:	e5871000 	str	r1, [r7]
 2000654:	ebfffedc 	bl	20001cc <_Z12clear_screenv>
 2000658:	e5952004 	ldr	r2, [r5, #4]
 200065c:	e3a01000 	mov	r1, #0
 2000660:	e3a00003 	mov	r0, #3
 2000664:	ebffff0b 	bl	2000298 <_Z11draw_stringiiPKc>
 2000668:	e3a0a000 	mov	r10, #0
 200066c:	e5950000 	ldr	r0, [r5]
 2000670:	e1a03000 	mov	r3, r0
 2000674:	e493200c 	ldr	r2, [r3], #12
 2000678:	e3520000 	cmp	r2, #0
 200067c:	0a00000d 	beq	20006b8 <cpp_menu+0x3e8>
 2000680:	e3a02000 	mov	r2, #0
 2000684:	e493100c 	ldr	r1, [r3], #12
 2000688:	e2822001 	add	r2, r2, #1
 200068c:	e3510000 	cmp	r1, #0
 2000690:	1afffffb 	bne	2000684 <cpp_menu+0x3b4>
 2000694:	e152000a 	cmp	r2, r10
 2000698:	da000006 	ble	20006b8 <cpp_menu+0x3e8>
 200069c:	e08a308a 	add	r3, r10, r10, lsl #1
 20006a0:	e7902103 	ldr	r2, [r0, r3, lsl #2]
 20006a4:	e28a1002 	add	r1, r10, #2
 20006a8:	e3a00002 	mov	r0, #2
 20006ac:	e28aa001 	add	r10, r10, #1
 20006b0:	ebfffef8 	bl	2000298 <_Z11draw_stringiiPKc>
 20006b4:	eaffffec 	b	200066c <cpp_menu+0x39c>
 20006b8:	e5953008 	ldr	r3, [r5, #8]
 20006bc:	e3530000 	cmp	r3, #0
 20006c0:	1affff46 	bne	20003e0 <cpp_menu+0x110>
 20006c4:	e59f21d8 	ldr	r2, [pc, #472]	; 20008a4 <cpp_menu+0x5d4>
 20006c8:	e3a01015 	mov	r1, #21
 20006cc:	e3a00003 	mov	r0, #3
 20006d0:	ebfffef0 	bl	2000298 <_Z11draw_stringiiPKc>
 20006d4:	e59f21cc 	ldr	r2, [pc, #460]	; 20008a8 <cpp_menu+0x5d8>
 20006d8:	e3a01016 	mov	r1, #22
 20006dc:	e3a00003 	mov	r0, #3
 20006e0:	ebfffeec 	bl	2000298 <_Z11draw_stringiiPKc>
 20006e4:	e59f21c0 	ldr	r2, [pc, #448]	; 20008ac <cpp_menu+0x5dc>
 20006e8:	e3a01017 	mov	r1, #23
 20006ec:	e3a00003 	mov	r0, #3
 20006f0:	ebfffee8 	bl	2000298 <_Z11draw_stringiiPKc>
 20006f4:	eaffff39 	b	20003e0 <cpp_menu+0x110>
 20006f8:	e5953008 	ldr	r3, [r5, #8]
 20006fc:	e3530000 	cmp	r3, #0
 2000700:	0a000051 	beq	200084c <cpp_menu+0x57c>
 2000704:	e3844002 	orr	r4, r4, #2
 2000708:	eaffff2d 	b	20003c4 <cpp_menu+0xf4>
 200070c:	e5933004 	ldr	r3, [r3, #4]
 2000710:	e12fff33 	blx	r3
 2000714:	e59f2194 	ldr	r2, [pc, #404]	; 20008b0 <cpp_menu+0x5e0>
 2000718:	e1a01005 	mov	r1, r5
 200071c:	e1a00005 	mov	r0, r5
 2000720:	ebfffedc 	bl	2000298 <_Z11draw_stringiiPKc>
 2000724:	e1d633b0 	ldrh	r3, [r6, #48]	; 0x30
 2000728:	e213b002 	ands	r11, r3, #2
 200072c:	1afffffc 	bne	2000724 <cpp_menu+0x454>
 2000730:	e59f3154 	ldr	r3, [pc, #340]	; 200088c <cpp_menu+0x5bc>
 2000734:	e5935000 	ldr	r5, [r3]
 2000738:	ebfffea3 	bl	20001cc <_Z12clear_screenv>
 200073c:	e5952004 	ldr	r2, [r5, #4]
 2000740:	e1a0100b 	mov	r1, r11
 2000744:	e3a00003 	mov	r0, #3
 2000748:	ebfffed2 	bl	2000298 <_Z11draw_stringiiPKc>
 200074c:	e5950000 	ldr	r0, [r5]
 2000750:	e1a03000 	mov	r3, r0
 2000754:	e493200c 	ldr	r2, [r3], #12
 2000758:	e3520000 	cmp	r2, #0
 200075c:	0affffe5 	beq	20006f8 <cpp_menu+0x428>
 2000760:	e3a02000 	mov	r2, #0
 2000764:	e493100c 	ldr	r1, [r3], #12
 2000768:	e2822001 	add	r2, r2, #1
 200076c:	e3510000 	cmp	r1, #0
 2000770:	1afffffb 	bne	2000764 <cpp_menu+0x494>
 2000774:	e152000b 	cmp	r2, r11
 2000778:	daffffde 	ble	20006f8 <cpp_menu+0x428>
 200077c:	e08b308b 	add	r3, r11, r11, lsl #1
 2000780:	e7902103 	ldr	r2, [r0, r3, lsl #2]
 2000784:	e28b1002 	add	r1, r11, #2
 2000788:	e3a00002 	mov	r0, #2
 200078c:	e28bb001 	add	r11, r11, #1
 2000790:	ebfffec0 	bl	2000298 <_Z11draw_stringiiPKc>
 2000794:	eaffffec 	b	200074c <cpp_menu+0x47c>
 2000798:	e5935004 	ldr	r5, [r3, #4]
 200079c:	e59f30e8 	ldr	r3, [pc, #232]	; 200088c <cpp_menu+0x5bc>
 20007a0:	e3a0b000 	mov	r11, #0
 20007a4:	e5835000 	str	r5, [r3]
 20007a8:	e587b000 	str	r11, [r7]
 20007ac:	ebfffe86 	bl	20001cc <_Z12clear_screenv>
 20007b0:	e5952004 	ldr	r2, [r5, #4]
 20007b4:	e1a0100b 	mov	r1, r11
 20007b8:	e3a00003 	mov	r0, #3
 20007bc:	ebfffeb5 	bl	2000298 <_Z11draw_stringiiPKc>
 20007c0:	e5950000 	ldr	r0, [r5]
 20007c4:	e1a03000 	mov	r3, r0
 20007c8:	e493200c 	ldr	r2, [r3], #12
 20007cc:	e3520000 	cmp	r2, #0
 20007d0:	0a00000d 	beq	200080c <cpp_menu+0x53c>
 20007d4:	e3a02000 	mov	r2, #0
 20007d8:	e493100c 	ldr	r1, [r3], #12
 20007dc:	e2822001 	add	r2, r2, #1
 20007e0:	e3510000 	cmp	r1, #0
 20007e4:	1afffffb 	bne	20007d8 <cpp_menu+0x508>
 20007e8:	e152000b 	cmp	r2, r11
 20007ec:	da000006 	ble	200080c <cpp_menu+0x53c>
 20007f0:	e08b308b 	add	r3, r11, r11, lsl #1
 20007f4:	e7902103 	ldr	r2, [r0, r3, lsl #2]
 20007f8:	e28b1002 	add	r1, r11, #2
 20007fc:	e3a00002 	mov	r0, #2
 2000800:	e28bb001 	add	r11, r11, #1
 2000804:	ebfffea3 	bl	2000298 <_Z11draw_stringiiPKc>
 2000808:	eaffffec 	b	20007c0 <cpp_menu+0x4f0>
 200080c:	e5953008 	ldr	r3, [r5, #8]
 2000810:	e3530000 	cmp	r3, #0
 2000814:	1afffeea 	bne	20003c4 <cpp_menu+0xf4>
 2000818:	e59f2084 	ldr	r2, [pc, #132]	; 20008a4 <cpp_menu+0x5d4>
 200081c:	e3a01015 	mov	r1, #21
 2000820:	e3a00003 	mov	r0, #3
 2000824:	ebfffe9b 	bl	2000298 <_Z11draw_stringiiPKc>
 2000828:	e59f2078 	ldr	r2, [pc, #120]	; 20008a8 <cpp_menu+0x5d8>
 200082c:	e3a01016 	mov	r1, #22
 2000830:	e3a00003 	mov	r0, #3
 2000834:	ebfffe97 	bl	2000298 <_Z11draw_stringiiPKc>
 2000838:	e59f206c 	ldr	r2, [pc, #108]	; 20008ac <cpp_menu+0x5dc>
 200083c:	e3a01017 	mov	r1, #23
 2000840:	e3a00003 	mov	r0, #3
 2000844:	ebfffe93 	bl	2000298 <_Z11draw_stringiiPKc>
 2000848:	eafffedd 	b	20003c4 <cpp_menu+0xf4>
 200084c:	e59f2050 	ldr	r2, [pc, #80]	; 20008a4 <cpp_menu+0x5d4>
 2000850:	e3a01015 	mov	r1, #21
 2000854:	e3a00003 	mov	r0, #3
 2000858:	ebfffe8e 	bl	2000298 <_Z11draw_stringiiPKc>
 200085c:	e59f2044 	ldr	r2, [pc, #68]	; 20008a8 <cpp_menu+0x5d8>
 2000860:	e3a01016 	mov	r1, #22
 2000864:	e3a00003 	mov	r0, #3
 2000868:	ebfffe8a 	bl	2000298 <_Z11draw_stringiiPKc>
 200086c:	e59f2038 	ldr	r2, [pc, #56]	; 20008ac <cpp_menu+0x5dc>
 2000870:	e3a01017 	mov	r1, #23
 2000874:	e3a00003 	mov	r0, #3
 2000878:	ebfffe86 	bl	2000298 <_Z11draw_stringiiPKc>
 200087c:	eaffffa0 	b	2000704 <cpp_menu+0x434>
 2000880:	e3530000 	cmp	r3, #0
 2000884:	bafffecc 	blt	20003bc <cpp_menu+0xec>
 2000888:	eaffff60 	b	2000610 <cpp_menu+0x340>
 200088c:	02004d0c 	andeq	r4, r0, #12, 26	; 0x300
 2000890:	02004d10 	andeq	r4, r0, #16, 26	; 0x400
 2000894:	02007784 	andeq	r7, r0, #132, 14	; 0x2100000
 2000898:	04000100 	streq	r0, [r0], #-256	; 0xffffff00
 200089c:	02008564 	andeq	r8, r0, #100, 10	; 0x19000000
 20008a0:	000056b5 			; <UNDEFINED> instruction: 0x000056b5
 20008a4:	02008528 	andeq	r8, r0, #40, 10	; 0xa000000
 20008a8:	02008544 	andeq	r8, r0, #68, 10	; 0x11000000
 20008ac:	02004db0 	andeq	r4, r0, #176, 26	; 0x2c00
 20008b0:	02008560 	andeq	r8, r0, #96, 10	; 0x18000000

020008b4 <cpp_fail_test>:
 20008b4:	e92d4070 	push	{r4, r5, r6, r14}
 20008b8:	e1a05000 	mov	r5, r0
 20008bc:	e1a06002 	mov	r6, r2
 20008c0:	e1a04001 	mov	r4, r1
 20008c4:	ebfffe1f 	bl	2000148 <init_iostate>
 20008c8:	e3a01000 	mov	r1, #0
 20008cc:	e1a02005 	mov	r2, r5
 20008d0:	e1a00001 	mov	r0, r1
 20008d4:	ebfffe6f 	bl	2000298 <_Z11draw_stringiiPKc>
 20008d8:	e3560000 	cmp	r6, #0
 20008dc:	b8bd8070 	poplt	{r4, r5, r6, r15}
 20008e0:	e3a05008 	mov	r5, #8
 20008e4:	e1a02536 	lsr	r2, r6, r5
 20008e8:	e1a00004 	mov	r0, r4
 20008ec:	e3a01000 	mov	r1, #0
 20008f0:	e202200f 	and	r2, r2, #15
 20008f4:	e2455004 	sub	r5, r5, #4
 20008f8:	ebfffe4d 	bl	2000234 <_Z9draw_tileiii>
 20008fc:	e3750004 	cmn	r5, #4
 2000900:	e2844001 	add	r4, r4, #1
 2000904:	1afffff6 	bne	20008e4 <cpp_fail_test+0x30>
 2000908:	e8bd8070 	pop	{r4, r5, r6, r15}

0200090c <_ZNK4Menu4drawEv>:
 200090c:	e92d4070 	push	{r4, r5, r6, r14}
 2000910:	e1a05000 	mov	r5, r0
 2000914:	ebfffe2c 	bl	20001cc <_Z12clear_screenv>
 2000918:	e5952004 	ldr	r2, [r5, #4]
 200091c:	e3a01000 	mov	r1, #0
 2000920:	e3a00003 	mov	r0, #3
 2000924:	ebfffe5b 	bl	2000298 <_Z11draw_stringiiPKc>
 2000928:	e3a04000 	mov	r4, #0
 200092c:	e5950000 	ldr	r0, [r5]
 2000930:	e1a03000 	mov	r3, r0
 2000934:	e493200c 	ldr	r2, [r3], #12
 2000938:	e3520000 	cmp	r2, #0
 200093c:	0a00000d 	beq	2000978 <_ZNK4Menu4drawEv+0x6c>
 2000940:	e3a02000 	mov	r2, #0
 2000944:	e493100c 	ldr	r1, [r3], #12
 2000948:	e2822001 	add	r2, r2, #1
 200094c:	e3510000 	cmp	r1, #0
 2000950:	1afffffb 	bne	2000944 <_ZNK4Menu4drawEv+0x38>
 2000954:	e1540002 	cmp	r4, r2
 2000958:	aa000006 	bge	2000978 <_ZNK4Menu4drawEv+0x6c>
 200095c:	e0843084 	add	r3, r4, r4, lsl #1
 2000960:	e7902103 	ldr	r2, [r0, r3, lsl #2]
 2000964:	e2841002 	add	r1, r4, #2
 2000968:	e3a00002 	mov	r0, #2
 200096c:	e2844001 	add	r4, r4, #1
 2000970:	ebfffe48 	bl	2000298 <_Z11draw_stringiiPKc>
 2000974:	eaffffec 	b	200092c <_ZNK4Menu4drawEv+0x20>
 2000978:	e5953008 	ldr	r3, [r5, #8]
 200097c:	e3530000 	cmp	r3, #0
 2000980:	18bd8070 	popne	{r4, r5, r6, r15}
 2000984:	e59f202c 	ldr	r2, [pc, #44]	; 20009b8 <_ZNK4Menu4drawEv+0xac>
 2000988:	e3a01015 	mov	r1, #21
 200098c:	e3a00003 	mov	r0, #3
 2000990:	ebfffe40 	bl	2000298 <_Z11draw_stringiiPKc>
 2000994:	e59f2020 	ldr	r2, [pc, #32]	; 20009bc <_ZNK4Menu4drawEv+0xb0>
 2000998:	e3a01016 	mov	r1, #22
 200099c:	e3a00003 	mov	r0, #3
 20009a0:	ebfffe3c 	bl	2000298 <_Z11draw_stringiiPKc>
 20009a4:	e59f2014 	ldr	r2, [pc, #20]	; 20009c0 <_ZNK4Menu4drawEv+0xb4>
 20009a8:	e3a01017 	mov	r1, #23
 20009ac:	e3a00003 	mov	r0, #3
 20009b0:	e8bd4070 	pop	{r4, r5, r6, r14}
 20009b4:	eafffe37 	b	2000298 <_Z11draw_stringiiPKc>
 20009b8:	02008528 	andeq	r8, r0, #40, 10	; 0xa000000
 20009bc:	02008544 	andeq	r8, r0, #68, 10	; 0x11000000
 20009c0:	02004db0 	andeq	r4, r0, #176, 26	; 0x2c00

020009c4 <_Z12ARM7_rw_coremim>:
 20009c4:	e2413004 	sub	r3, r1, #4
 20009c8:	e3530002 	cmp	r3, #2
 20009cc:	e1801e01 	orr	r1, r0, r1, lsl #28
 20009d0:	e3a03301 	mov	r3, #67108864	; 0x4000000
 20009d4:	e92d4070 	push	{r4, r5, r6, r14}
 20009d8:	e5831188 	str	r1, [r3, #392]	; 0x188
 20009dc:	e59f5030 	ldr	r5, [pc, #48]	; 2000a14 <_Z12ARM7_rw_coremim+0x50>
 20009e0:	95832188 	strls	r2, [r3, #392]	; 0x188
 20009e4:	e3a04a02 	mov	r4, #8192	; 0x2000
 20009e8:	ea000001 	b	20009f4 <_Z12ARM7_rw_coremim+0x30>
 20009ec:	e2544001 	subs	r4, r4, #1
 20009f0:	0a000005 	beq	2000a0c <_Z12ARM7_rw_coremim+0x48>
 20009f4:	e1d538b4 	ldrh	r3, [r5, #132]	; 0x84
 20009f8:	e3130c01 	tst	r3, #256	; 0x100
 20009fc:	1afffffa 	bne	20009ec <_Z12ARM7_rw_coremim+0x28>
 2000a00:	e3a03641 	mov	r3, #68157440	; 0x4100000
 2000a04:	e5930000 	ldr	r0, [r3]
 2000a08:	e8bd8070 	pop	{r4, r5, r6, r15}
 2000a0c:	eb0010d6 	bl	2004d6c <timeout_rw>
 2000a10:	eafffff7 	b	20009f4 <_Z12ARM7_rw_coremim+0x30>
 2000a14:	04000100 	streq	r0, [r0], #-256	; 0xffffff00

02000a18 <_Z13ARM7_start_rwv>:
 2000a18:	e92d4010 	push	{r4, r14}
 2000a1c:	e59f4020 	ldr	r4, [pc, #32]	; 2000a44 <_Z13ARM7_start_rwv+0x2c>
 2000a20:	e3a03c0a 	mov	r3, #2560	; 0xa00
 2000a24:	e59f201c 	ldr	r2, [pc, #28]	; 2000a48 <_Z13ARM7_start_rwv+0x30>
 2000a28:	e1c428b4 	strh	r2, [r4, #132]	; 0x84
 2000a2c:	e3a00a01 	mov	r0, #4096	; 0x1000
 2000a30:	e1c438b0 	strh	r3, [r4, #128]	; 0x80
 2000a34:	eb001afe 	bl	2007634 <wait_busy>
 2000a38:	e3a03000 	mov	r3, #0
 2000a3c:	e1c438b0 	strh	r3, [r4, #128]	; 0x80
 2000a40:	e8bd8010 	pop	{r4, r15}
 2000a44:	04000100 	streq	r0, [r0], #-256	; 0xffffff00
 2000a48:	ffff8008 			; <UNDEFINED> instruction: 0xffff8008

02000a4c <_Z14ARM7_read_wordm>:
 2000a4c:	e3800201 	orr	r0, r0, #268435456	; 0x10000000
 2000a50:	e3a03301 	mov	r3, #67108864	; 0x4000000
 2000a54:	e92d4070 	push	{r4, r5, r6, r14}
 2000a58:	e59f5030 	ldr	r5, [pc, #48]	; 2000a90 <_Z14ARM7_read_wordm+0x44>
 2000a5c:	e3a04a02 	mov	r4, #8192	; 0x2000
 2000a60:	e5830188 	str	r0, [r3, #392]	; 0x188
 2000a64:	ea000001 	b	2000a70 <_Z14ARM7_read_wordm+0x24>
 2000a68:	e2544001 	subs	r4, r4, #1
 2000a6c:	0a000005 	beq	2000a88 <_Z14ARM7_read_wordm+0x3c>
 2000a70:	e1d538b4 	ldrh	r3, [r5, #132]	; 0x84
 2000a74:	e3130c01 	tst	r3, #256	; 0x100
 2000a78:	1afffffa 	bne	2000a68 <_Z14ARM7_read_wordm+0x1c>
 2000a7c:	e3a03641 	mov	r3, #68157440	; 0x4100000
 2000a80:	e5930000 	ldr	r0, [r3]
 2000a84:	e8bd8070 	pop	{r4, r5, r6, r15}
 2000a88:	eb0010b7 	bl	2004d6c <timeout_rw>
 2000a8c:	eafffff7 	b	2000a70 <_Z14ARM7_read_wordm+0x24>
 2000a90:	04000100 	streq	r0, [r0], #-256	; 0xffffff00

02000a94 <_Z18ARM7_read_halfwordm>:
 2000a94:	e3800202 	orr	r0, r0, #536870912	; 0x20000000
 2000a98:	e3a03301 	mov	r3, #67108864	; 0x4000000
 2000a9c:	e92d4070 	push	{r4, r5, r6, r14}
 2000aa0:	e59f5038 	ldr	r5, [pc, #56]	; 2000ae0 <_Z18ARM7_read_halfwordm+0x4c>
 2000aa4:	e3a04a02 	mov	r4, #8192	; 0x2000
 2000aa8:	e5830188 	str	r0, [r3, #392]	; 0x188
 2000aac:	ea000001 	b	2000ab8 <_Z18ARM7_read_halfwordm+0x24>
 2000ab0:	e2544001 	subs	r4, r4, #1
 2000ab4:	0a000007 	beq	2000ad8 <_Z18ARM7_read_halfwordm+0x44>
 2000ab8:	e1d538b4 	ldrh	r3, [r5, #132]	; 0x84
 2000abc:	e3130c01 	tst	r3, #256	; 0x100
 2000ac0:	1afffffa 	bne	2000ab0 <_Z18ARM7_read_halfwordm+0x1c>
 2000ac4:	e3a03641 	mov	r3, #68157440	; 0x4100000
 2000ac8:	e5930000 	ldr	r0, [r3]
 2000acc:	e1a00800 	lsl	r0, r0, #16
 2000ad0:	e1a00820 	lsr	r0, r0, #16
 2000ad4:	e8bd8070 	pop	{r4, r5, r6, r15}
 2000ad8:	eb0010a3 	bl	2004d6c <timeout_rw>
 2000adc:	eafffff5 	b	2000ab8 <_Z18ARM7_read_halfwordm+0x24>
 2000ae0:	04000100 	streq	r0, [r0], #-256	; 0xffffff00

02000ae4 <_Z14ARM7_read_bytem>:
 2000ae4:	e3800203 	orr	r0, r0, #805306368	; 0x30000000
 2000ae8:	e3a03301 	mov	r3, #67108864	; 0x4000000
 2000aec:	e92d4070 	push	{r4, r5, r6, r14}
 2000af0:	e59f5034 	ldr	r5, [pc, #52]	; 2000b2c <_Z14ARM7_read_bytem+0x48>
 2000af4:	e3a04a02 	mov	r4, #8192	; 0x2000
 2000af8:	e5830188 	str	r0, [r3, #392]	; 0x188
 2000afc:	ea000001 	b	2000b08 <_Z14ARM7_read_bytem+0x24>
 2000b00:	e2544001 	subs	r4, r4, #1
 2000b04:	0a000006 	beq	2000b24 <_Z14ARM7_read_bytem+0x40>
 2000b08:	e1d538b4 	ldrh	r3, [r5, #132]	; 0x84
 2000b0c:	e3130c01 	tst	r3, #256	; 0x100
 2000b10:	1afffffa 	bne	2000b00 <_Z14ARM7_read_bytem+0x1c>
 2000b14:	e3a03641 	mov	r3, #68157440	; 0x4100000
 2000b18:	e5930000 	ldr	r0, [r3]
 2000b1c:	e20000ff 	and	r0, r0, #255	; 0xff
 2000b20:	e8bd8070 	pop	{r4, r5, r6, r15}
 2000b24:	eb001090 	bl	2004d6c <timeout_rw>
 2000b28:	eafffff6 	b	2000b08 <_Z14ARM7_read_bytem+0x24>
 2000b2c:	04000100 	streq	r0, [r0], #-256	; 0xffffff00

02000b30 <_Z15ARM7_write_wordmm>:
 2000b30:	e1a02001 	mov	r2, r1
 2000b34:	e3a01004 	mov	r1, #4
 2000b38:	eaffffa1 	b	20009c4 <_Z12ARM7_rw_coremim>

02000b3c <_Z19ARM7_write_halfwordmt>:
 2000b3c:	e1a02001 	mov	r2, r1
 2000b40:	e3a01005 	mov	r1, #5
 2000b44:	eaffff9e 	b	20009c4 <_Z12ARM7_rw_coremim>

02000b48 <_Z15ARM7_write_bytemh>:
 2000b48:	e1a02001 	mov	r2, r1
 2000b4c:	e3a01006 	mov	r1, #6
 2000b50:	eaffff9b 	b	20009c4 <_Z12ARM7_rw_coremim>

02000b54 <_Z11ARM7_end_rwv>:
 2000b54:	e3a03301 	mov	r3, #67108864	; 0x4000000
 2000b58:	e3a02000 	mov	r2, #0
 2000b5c:	e92d4070 	push	{r4, r5, r6, r14}
 2000b60:	e59f5030 	ldr	r5, [pc, #48]	; 2000b98 <_Z11ARM7_end_rwv+0x44>
 2000b64:	e3a04a02 	mov	r4, #8192	; 0x2000
 2000b68:	e5832188 	str	r2, [r3, #392]	; 0x188
 2000b6c:	ea000001 	b	2000b78 <_Z11ARM7_end_rwv+0x24>
 2000b70:	e2544001 	subs	r4, r4, #1
 2000b74:	0a000005 	beq	2000b90 <_Z11ARM7_end_rwv+0x3c>
 2000b78:	e1d538b4 	ldrh	r3, [r5, #132]	; 0x84
 2000b7c:	e3130c01 	tst	r3, #256	; 0x100
 2000b80:	1afffffa 	bne	2000b70 <_Z11ARM7_end_rwv+0x1c>
 2000b84:	e3a03641 	mov	r3, #68157440	; 0x4100000
 2000b88:	e5933000 	ldr	r3, [r3]
 2000b8c:	e8bd8070 	pop	{r4, r5, r6, r15}
 2000b90:	eb001075 	bl	2004d6c <timeout_rw>
 2000b94:	eafffff7 	b	2000b78 <_Z11ARM7_end_rwv+0x24>
 2000b98:	04000100 	streq	r0, [r0], #-256	; 0xffffff00

02000b9c <cp15_get_controlreg>:
 2000b9c:	ee110f10 	mrc	15, 0, r0, cr1, cr0, {0}
 2000ba0:	e12fff1e 	bx	r14

02000ba4 <cp15_set_controlreg>:
 2000ba4:	ee010f10 	mcr	15, 0, r0, cr1, cr0, {0}
 2000ba8:	e12fff1e 	bx	r14

02000bac <cp15_get_DTCMcontrol>:
 2000bac:	ee190f11 	mrc	15, 0, r0, cr9, cr1, {0}
 2000bb0:	e12fff1e 	bx	r14

02000bb4 <cp15_set_DTCMcontrol>:
 2000bb4:	ee090f11 	mcr	15, 0, r0, cr9, cr1, {0}
 2000bb8:	e12fff1e 	bx	r14

02000bbc <cp15_get_ITCMcontrol>:
 2000bbc:	ee190f31 	mrc	15, 0, r0, cr9, cr1, {1}
 2000bc0:	e12fff1e 	bx	r14

02000bc4 <cp15_set_ITCMcontrol>:
 2000bc4:	ee090f31 	mcr	15, 0, r0, cr9, cr1, {1}
 2000bc8:	e12fff1e 	bx	r14

02000bcc <font_start>:
 2000bcc:	03030303 	movweq	r0, #13059	; 0x3303
 2000bd0:	03030303 	movweq	r0, #13059	; 0x3303
 2000bd4:	00030303 	andeq	r0, r3, r3, lsl #6
 2000bd8:	03030300 	movweq	r0, #13056	; 0x3300
 2000bdc:	03000303 	movweq	r0, #771	; 0x303
 2000be0:	03030003 	movweq	r0, #12291	; 0x3003
 2000be4:	03000303 	movweq	r0, #771	; 0x303
 2000be8:	03030000 	movweq	r0, #12288	; 0x3000
 2000bec:	00000303 	andeq	r0, r0, r3, lsl #6
 2000bf0:	03030003 	movweq	r0, #12291	; 0x3003
 2000bf4:	03000303 	movweq	r0, #771	; 0x303
 2000bf8:	03030003 	movweq	r0, #12291	; 0x3003
 2000bfc:	00030303 	andeq	r0, r3, r3, lsl #6
 2000c00:	03030300 	movweq	r0, #13056	; 0x3300
 2000c04:	03030303 	movweq	r0, #13059	; 0x3303
 2000c08:	03030303 	movweq	r0, #13059	; 0x3303
 2000c0c:	03030303 	movweq	r0, #13059	; 0x3303
 2000c10:	03030303 	movweq	r0, #13059	; 0x3303
 2000c14:	00030303 	andeq	r0, r3, r3, lsl #6
 2000c18:	03030303 	movweq	r0, #13059	; 0x3303
 2000c1c:	00000303 	andeq	r0, r0, r3, lsl #6
 2000c20:	03030303 	movweq	r0, #13059	; 0x3303
 2000c24:	00030303 	andeq	r0, r3, r3, lsl #6
 2000c28:	03030303 	movweq	r0, #13059	; 0x3303
 2000c2c:	00030303 	andeq	r0, r3, r3, lsl #6
 2000c30:	03030303 	movweq	r0, #13059	; 0x3303
 2000c34:	00030303 	andeq	r0, r3, r3, lsl #6
 2000c38:	03030303 	movweq	r0, #13059	; 0x3303
 2000c3c:	00000303 	andeq	r0, r0, r3, lsl #6
 2000c40:	03030300 	movweq	r0, #13056	; 0x3300
 2000c44:	03030303 	movweq	r0, #13059	; 0x3303
 2000c48:	03030303 	movweq	r0, #13059	; 0x3303
 2000c4c:	03030303 	movweq	r0, #13059	; 0x3303
 2000c50:	03030303 	movweq	r0, #13059	; 0x3303
 2000c54:	00000303 	andeq	r0, r0, r3, lsl #6
 2000c58:	03030300 	movweq	r0, #13056	; 0x3300
 2000c5c:	03030003 	movweq	r0, #12291	; 0x3003
 2000c60:	03030003 	movweq	r0, #12291	; 0x3003
 2000c64:	03030303 	movweq	r0, #13059	; 0x3303
 2000c68:	03030003 	movweq	r0, #12291	; 0x3003
 2000c6c:	00000303 	andeq	r0, r0, r3, lsl #6
 2000c70:	03030300 	movweq	r0, #13056	; 0x3300
 2000c74:	03030003 	movweq	r0, #12291	; 0x3003
 2000c78:	03030303 	movweq	r0, #13059	; 0x3303
 2000c7c:	00000003 	andeq	r0, r0, r3
 2000c80:	03030000 	movweq	r0, #12288	; 0x3000
 2000c84:	03030303 	movweq	r0, #13059	; 0x3303
 2000c88:	03030303 	movweq	r0, #13059	; 0x3303
 2000c8c:	03030303 	movweq	r0, #13059	; 0x3303
 2000c90:	03030303 	movweq	r0, #13059	; 0x3303
 2000c94:	00000303 	andeq	r0, r0, r3, lsl #6
 2000c98:	03030000 	movweq	r0, #12288	; 0x3000
 2000c9c:	03030003 	movweq	r0, #12291	; 0x3003
 2000ca0:	03000303 	movweq	r0, #771	; 0x303
 2000ca4:	00030303 	andeq	r0, r3, r3, lsl #6
 2000ca8:	03030000 	movweq	r0, #12288	; 0x3000
 2000cac:	03030303 	movweq	r0, #13059	; 0x3303
 2000cb0:	03000303 	movweq	r0, #771	; 0x303
 2000cb4:	03030003 	movweq	r0, #12291	; 0x3003
 2000cb8:	03000303 	movweq	r0, #771	; 0x303
 2000cbc:	00000303 	andeq	r0, r0, r3, lsl #6
 2000cc0:	03030000 	movweq	r0, #12288	; 0x3000
 2000cc4:	03030303 	movweq	r0, #13059	; 0x3303
 2000cc8:	03030303 	movweq	r0, #13059	; 0x3303
 2000ccc:	03030303 	movweq	r0, #13059	; 0x3303
 2000cd0:	03030303 	movweq	r0, #13059	; 0x3303
 2000cd4:	03030303 	movweq	r0, #13059	; 0x3303
 2000cd8:	03030003 	movweq	r0, #12291	; 0x3003
 2000cdc:	03030303 	movweq	r0, #13059	; 0x3303
 2000ce0:	03030000 	movweq	r0, #12288	; 0x3000
 2000ce4:	00030303 	andeq	r0, r3, r3, lsl #6
 2000ce8:	03030003 	movweq	r0, #12291	; 0x3003
 2000cec:	03000303 	movweq	r0, #771	; 0x303
 2000cf0:	03030003 	movweq	r0, #12291	; 0x3003
 2000cf4:	00000003 	andeq	r0, r0, r3
 2000cf8:	03000000 	movweq	r0, #0
 2000cfc:	03030303 	movweq	r0, #13059	; 0x3303
 2000d00:	03030003 	movweq	r0, #12291	; 0x3003
 2000d04:	03030303 	movweq	r0, #13059	; 0x3303
 2000d08:	03030303 	movweq	r0, #13059	; 0x3303
 2000d0c:	03030303 	movweq	r0, #13059	; 0x3303
 2000d10:	03030303 	movweq	r0, #13059	; 0x3303
 2000d14:	00000003 	andeq	r0, r0, r3
 2000d18:	03000000 	movweq	r0, #0
 2000d1c:	03030003 	movweq	r0, #12291	; 0x3003
 2000d20:	03030303 	movweq	r0, #13059	; 0x3303
 2000d24:	00000003 	andeq	r0, r0, r3
 2000d28:	03030000 	movweq	r0, #12288	; 0x3000
 2000d2c:	03030303 	movweq	r0, #13059	; 0x3303
 2000d30:	03000303 	movweq	r0, #771	; 0x303
 2000d34:	03030003 	movweq	r0, #12291	; 0x3003
 2000d38:	03000303 	movweq	r0, #771	; 0x303
 2000d3c:	00000303 	andeq	r0, r0, r3, lsl #6
 2000d40:	03030000 	movweq	r0, #12288	; 0x3000
 2000d44:	03030303 	movweq	r0, #13059	; 0x3303
 2000d48:	03030303 	movweq	r0, #13059	; 0x3303
 2000d4c:	03030303 	movweq	r0, #13059	; 0x3303
 2000d50:	03030303 	movweq	r0, #13059	; 0x3303
 2000d54:	00000303 	andeq	r0, r0, r3, lsl #6
 2000d58:	03030000 	movweq	r0, #12288	; 0x3000
 2000d5c:	03000303 	movweq	r0, #771	; 0x303
 2000d60:	03030303 	movweq	r0, #13059	; 0x3303
 2000d64:	00000303 	andeq	r0, r0, r3, lsl #6
 2000d68:	03030000 	movweq	r0, #12288	; 0x3000
 2000d6c:	03000303 	movweq	r0, #771	; 0x303
 2000d70:	03030003 	movweq	r0, #12291	; 0x3003
 2000d74:	03000303 	movweq	r0, #771	; 0x303
 2000d78:	03030003 	movweq	r0, #12291	; 0x3003
 2000d7c:	00000303 	andeq	r0, r0, r3, lsl #6
 2000d80:	03030000 	movweq	r0, #12288	; 0x3000
 2000d84:	03030303 	movweq	r0, #13059	; 0x3303
 2000d88:	03030303 	movweq	r0, #13059	; 0x3303
 2000d8c:	03030303 	movweq	r0, #13059	; 0x3303
 2000d90:	03030303 	movweq	r0, #13059	; 0x3303
 2000d94:	00000003 	andeq	r0, r0, r3
 2000d98:	03000000 	movweq	r0, #0
 2000d9c:	03030303 	movweq	r0, #13059	; 0x3303
 2000da0:	03000303 	movweq	r0, #771	; 0x303
 2000da4:	03030303 	movweq	r0, #13059	; 0x3303
 2000da8:	03030003 	movweq	r0, #12291	; 0x3003
 2000dac:	03030303 	movweq	r0, #13059	; 0x3303
 2000db0:	03030300 	movweq	r0, #13056	; 0x3300
 2000db4:	00030303 	andeq	r0, r3, r3, lsl #6
 2000db8:	03030303 	movweq	r0, #13059	; 0x3303
 2000dbc:	00030303 	andeq	r0, r3, r3, lsl #6
 2000dc0:	03030303 	movweq	r0, #13059	; 0x3303
 2000dc4:	03030303 	movweq	r0, #13059	; 0x3303
 2000dc8:	03030303 	movweq	r0, #13059	; 0x3303
 2000dcc:	03030303 	movweq	r0, #13059	; 0x3303
 2000dd0:	03030303 	movweq	r0, #13059	; 0x3303
 2000dd4:	00000303 	andeq	r0, r0, r3, lsl #6
 2000dd8:	03030000 	movweq	r0, #12288	; 0x3000
 2000ddc:	03030003 	movweq	r0, #12291	; 0x3003
 2000de0:	03000303 	movweq	r0, #771	; 0x303
 2000de4:	00000303 	andeq	r0, r0, r3, lsl #6
 2000de8:	03030000 	movweq	r0, #12288	; 0x3000
 2000dec:	03030003 	movweq	r0, #12291	; 0x3003
 2000df0:	03000303 	movweq	r0, #771	; 0x303
 2000df4:	03030003 	movweq	r0, #12291	; 0x3003
 2000df8:	03000303 	movweq	r0, #771	; 0x303
 2000dfc:	00000303 	andeq	r0, r0, r3, lsl #6
 2000e00:	03030000 	movweq	r0, #12288	; 0x3000
 2000e04:	03030303 	movweq	r0, #13059	; 0x3303
 2000e08:	03030303 	movweq	r0, #13059	; 0x3303
 2000e0c:	03030303 	movweq	r0, #13059	; 0x3303
 2000e10:	03030303 	movweq	r0, #13059	; 0x3303
 2000e14:	00000303 	andeq	r0, r0, r3, lsl #6
 2000e18:	03030000 	movweq	r0, #12288	; 0x3000
 2000e1c:	03030003 	movweq	r0, #12291	; 0x3003
 2000e20:	03000303 	movweq	r0, #771	; 0x303
 2000e24:	03030003 	movweq	r0, #12291	; 0x3003
 2000e28:	03000303 	movweq	r0, #771	; 0x303
 2000e2c:	00000303 	andeq	r0, r0, r3, lsl #6
 2000e30:	03000000 	movweq	r0, #0
 2000e34:	03030303 	movweq	r0, #13059	; 0x3303
 2000e38:	03000303 	movweq	r0, #771	; 0x303
 2000e3c:	00000303 	andeq	r0, r0, r3, lsl #6
 2000e40:	03030000 	movweq	r0, #12288	; 0x3000
 2000e44:	03030303 	movweq	r0, #13059	; 0x3303
 2000e48:	03030303 	movweq	r0, #13059	; 0x3303
 2000e4c:	03030303 	movweq	r0, #13059	; 0x3303
 2000e50:	03030303 	movweq	r0, #13059	; 0x3303
 2000e54:	00000303 	andeq	r0, r0, r3, lsl #6
 2000e58:	03030000 	movweq	r0, #12288	; 0x3000
 2000e5c:	03030003 	movweq	r0, #12291	; 0x3003
 2000e60:	03000303 	movweq	r0, #771	; 0x303
 2000e64:	03030003 	movweq	r0, #12291	; 0x3003
 2000e68:	03000303 	movweq	r0, #771	; 0x303
 2000e6c:	00000003 	andeq	r0, r0, r3
 2000e70:	03000000 	movweq	r0, #0
 2000e74:	03030003 	movweq	r0, #12291	; 0x3003
 2000e78:	03000303 	movweq	r0, #771	; 0x303
 2000e7c:	03030003 	movweq	r0, #12291	; 0x3003
 2000e80:	03000303 	movweq	r0, #771	; 0x303
 2000e84:	03030303 	movweq	r0, #13059	; 0x3303
 2000e88:	03030303 	movweq	r0, #13059	; 0x3303
 2000e8c:	03030303 	movweq	r0, #13059	; 0x3303
 2000e90:	03030303 	movweq	r0, #13059	; 0x3303
 2000e94:	00000003 	andeq	r0, r0, r3
 2000e98:	03030300 	movweq	r0, #13056	; 0x3300
 2000e9c:	03030003 	movweq	r0, #12291	; 0x3003
 2000ea0:	03030003 	movweq	r0, #12291	; 0x3003
 2000ea4:	00000003 	andeq	r0, r0, r3
 2000ea8:	03030000 	movweq	r0, #12288	; 0x3000
 2000eac:	03030003 	movweq	r0, #12291	; 0x3003
 2000eb0:	03000303 	movweq	r0, #771	; 0x303
 2000eb4:	03030003 	movweq	r0, #12291	; 0x3003
 2000eb8:	03000303 	movweq	r0, #771	; 0x303
 2000ebc:	00000003 	andeq	r0, r0, r3
 2000ec0:	03030000 	movweq	r0, #12288	; 0x3000
 2000ec4:	03030303 	movweq	r0, #13059	; 0x3303
 2000ec8:	03030303 	movweq	r0, #13059	; 0x3303
 2000ecc:	03030303 	movweq	r0, #13059	; 0x3303
 2000ed0:	03030303 	movweq	r0, #13059	; 0x3303
 2000ed4:	00000303 	andeq	r0, r0, r3, lsl #6
 2000ed8:	03030300 	movweq	r0, #13056	; 0x3300
 2000edc:	03030003 	movweq	r0, #12291	; 0x3003
 2000ee0:	03030003 	movweq	r0, #12291	; 0x3003
 2000ee4:	03030003 	movweq	r0, #12291	; 0x3003
 2000ee8:	03030303 	movweq	r0, #13059	; 0x3303
 2000eec:	03030003 	movweq	r0, #12291	; 0x3003
 2000ef0:	03030303 	movweq	r0, #13059	; 0x3303
 2000ef4:	03030003 	movweq	r0, #12291	; 0x3003
 2000ef8:	03030003 	movweq	r0, #12291	; 0x3003
 2000efc:	00000303 	andeq	r0, r0, r3, lsl #6
 2000f00:	03030300 	movweq	r0, #13056	; 0x3300
 2000f04:	03030303 	movweq	r0, #13059	; 0x3303
 2000f08:	03030303 	movweq	r0, #13059	; 0x3303
 2000f0c:	03030303 	movweq	r0, #13059	; 0x3303
 2000f10:	03030303 	movweq	r0, #13059	; 0x3303
 2000f14:	00000003 	andeq	r0, r0, r3
 2000f18:	03030300 	movweq	r0, #13056	; 0x3300
 2000f1c:	03030003 	movweq	r0, #12291	; 0x3003
 2000f20:	03030003 	movweq	r0, #12291	; 0x3003
 2000f24:	03030003 	movweq	r0, #12291	; 0x3003
 2000f28:	03000303 	movweq	r0, #771	; 0x303
 2000f2c:	03030003 	movweq	r0, #12291	; 0x3003
 2000f30:	03000303 	movweq	r0, #771	; 0x303
 2000f34:	03030003 	movweq	r0, #12291	; 0x3003
 2000f38:	03000303 	movweq	r0, #771	; 0x303
 2000f3c:	00000003 	andeq	r0, r0, r3
 2000f40:	03030000 	movweq	r0, #12288	; 0x3000
 2000f44:	03030303 	movweq	r0, #13059	; 0x3303
 2000f48:	03030303 	movweq	r0, #13059	; 0x3303
 2000f4c:	03030303 	movweq	r0, #13059	; 0x3303
 2000f50:	03030303 	movweq	r0, #13059	; 0x3303
 2000f54:	00000003 	andeq	r0, r0, r3
 2000f58:	03030000 	movweq	r0, #12288	; 0x3000
 2000f5c:	03030003 	movweq	r0, #12291	; 0x3003
 2000f60:	03030303 	movweq	r0, #13059	; 0x3303
 2000f64:	00000003 	andeq	r0, r0, r3
 2000f68:	03030300 	movweq	r0, #13056	; 0x3300
 2000f6c:	03030003 	movweq	r0, #12291	; 0x3003
 2000f70:	03030303 	movweq	r0, #13059	; 0x3303
 2000f74:	03030003 	movweq	r0, #12291	; 0x3003
 2000f78:	03030303 	movweq	r0, #13059	; 0x3303
 2000f7c:	00000003 	andeq	r0, r0, r3
 2000f80:	03030000 	movweq	r0, #12288	; 0x3000
 2000f84:	03030303 	movweq	r0, #13059	; 0x3303
 2000f88:	03030303 	movweq	r0, #13059	; 0x3303
 2000f8c:	03030303 	movweq	r0, #13059	; 0x3303
 2000f90:	03030303 	movweq	r0, #13059	; 0x3303
 2000f94:	00000003 	andeq	r0, r0, r3
 2000f98:	03000000 	movweq	r0, #0
 2000f9c:	03030003 	movweq	r0, #12291	; 0x3003
 2000fa0:	03030303 	movweq	r0, #13059	; 0x3303
 2000fa4:	00000003 	andeq	r0, r0, r3
 2000fa8:	03030300 	movweq	r0, #13056	; 0x3300
 2000fac:	03030003 	movweq	r0, #12291	; 0x3003
 2000fb0:	03030303 	movweq	r0, #13059	; 0x3303
 2000fb4:	03030003 	movweq	r0, #12291	; 0x3003
 2000fb8:	03030303 	movweq	r0, #13059	; 0x3303
 2000fbc:	03030003 	movweq	r0, #12291	; 0x3003
 2000fc0:	03030303 	movweq	r0, #13059	; 0x3303
 2000fc4:	03030303 	movweq	r0, #13059	; 0x3303
 2000fc8:	03030303 	movweq	r0, #13059	; 0x3303
 2000fcc:	03030303 	movweq	r0, #13059	; 0x3303
 2000fd0:	03030303 	movweq	r0, #13059	; 0x3303
 2000fd4:	00000303 	andeq	r0, r0, r3, lsl #6
 2000fd8:	03030000 	movweq	r0, #12288	; 0x3000
 2000fdc:	03030003 	movweq	r0, #12291	; 0x3003
 2000fe0:	03000303 	movweq	r0, #771	; 0x303
 2000fe4:	03030003 	movweq	r0, #12291	; 0x3003
 2000fe8:	03000303 	movweq	r0, #771	; 0x303
 2000fec:	00030003 	andeq	r0, r3, r3
 2000ff0:	03000300 	movweq	r0, #768	; 0x300
 2000ff4:	00030003 	andeq	r0, r3, r3
 2000ff8:	03000300 	movweq	r0, #768	; 0x300
 2000ffc:	03000303 	movweq	r0, #771	; 0x303
 2001000:	03030000 	movweq	r0, #12288	; 0x3000
 2001004:	03030303 	movweq	r0, #13059	; 0x3303
 2001008:	03030303 	movweq	r0, #13059	; 0x3303
 200100c:	03030303 	movweq	r0, #13059	; 0x3303
 2001010:	03030303 	movweq	r0, #13059	; 0x3303
 2001014:	03030303 	movweq	r0, #13059	; 0x3303
 2001018:	03030303 	movweq	r0, #13059	; 0x3303
 200101c:	03030303 	movweq	r0, #13059	; 0x3303
 2001020:	03030303 	movweq	r0, #13059	; 0x3303
 2001024:	03030303 	movweq	r0, #13059	; 0x3303
 2001028:	03030303 	movweq	r0, #13059	; 0x3303
 200102c:	03030303 	movweq	r0, #13059	; 0x3303
 2001030:	03030303 	movweq	r0, #13059	; 0x3303
 2001034:	03030303 	movweq	r0, #13059	; 0x3303
 2001038:	03030303 	movweq	r0, #13059	; 0x3303
 200103c:	03030303 	movweq	r0, #13059	; 0x3303
 2001040:	03030303 	movweq	r0, #13059	; 0x3303
 2001044:	03030303 	movweq	r0, #13059	; 0x3303
 2001048:	03030303 	movweq	r0, #13059	; 0x3303
 200104c:	02020303 	andeq	r0, r2, #201326592	; 0xc000000
 2001050:	03030202 	movweq	r0, #12802	; 0x3202
 2001054:	02020203 	andeq	r0, r2, #805306368	; 0x30000000
 2001058:	03020202 	movweq	r0, #8706	; 0x2202
 200105c:	03000202 	movweq	r0, #514	; 0x202
 2001060:	02030002 	andeq	r0, r3, #2
 2001064:	03030202 	movweq	r0, #12802	; 0x3202
 2001068:	02030302 	andeq	r0, r3, #134217728	; 0x8000000
 200106c:	02020202 	andeq	r0, r2, #536870912	; 0x20000000
 2001070:	02020202 	andeq	r0, r2, #536870912	; 0x20000000
 2001074:	02020202 	andeq	r0, r2, #536870912	; 0x20000000
 2001078:	02020202 	andeq	r0, r2, #536870912	; 0x20000000
 200107c:	02020202 	andeq	r0, r2, #536870912	; 0x20000000
 2001080:	02020202 	andeq	r0, r2, #536870912	; 0x20000000
 2001084:	02030202 	andeq	r0, r3, #536870912	; 0x20000000
 2001088:	02020302 	andeq	r0, r2, #134217728	; 0x8000000
 200108c:	01010303 	tsteq	r1, r3, lsl #6
 2001090:	03030101 	movweq	r0, #12545	; 0x3101
 2001094:	01010103 	tsteq	r1, r3, lsl #2
 2001098:	03010101 	movweq	r0, #4353	; 0x1101
 200109c:	01000101 	tsteq	r0, r1, lsl #2
 20010a0:	03030101 	movweq	r0, #12545	; 0x3101
 20010a4:	01010101 	tsteq	r1, r1, lsl #2
 20010a8:	03030301 	movweq	r0, #13057	; 0x3301
 20010ac:	01010101 	tsteq	r1, r1, lsl #2
 20010b0:	03030301 	movweq	r0, #13057	; 0x3301
 20010b4:	01010101 	tsteq	r1, r1, lsl #2
 20010b8:	03030101 	movweq	r0, #12545	; 0x3101
 20010bc:	01010103 	tsteq	r1, r3, lsl #2
 20010c0:	03010101 	movweq	r0, #4353	; 0x1101
 20010c4:	01010303 	tsteq	r1, r3, lsl #6
 20010c8:	03030101 	movweq	r0, #12545	; 0x3101
 20010cc:	01030303 	tsteq	r3, r3, lsl #6
 20010d0:	03030301 	movweq	r0, #13057	; 0x3301
 20010d4:	01030303 	tsteq	r3, r3, lsl #6
 20010d8:	03030301 	movweq	r0, #13057	; 0x3301
 20010dc:	01000303 	tsteq	r0, r3, lsl #6
 20010e0:	03030001 	movweq	r0, #12289	; 0x3001
 20010e4:	01000300 	mrseq	r0, LR_irq
 20010e8:	00030001 	andeq	r0, r3, r1
 20010ec:	01010100 	mrseq	r0, (UNDEF: 17)
 20010f0:	00010101 	andeq	r0, r1, r1, lsl #2
 20010f4:	00010101 	andeq	r0, r1, r1, lsl #2
 20010f8:	01010100 	mrseq	r0, (UNDEF: 17)
 20010fc:	01000101 	tsteq	r0, r1, lsl #2
 2001100:	01010001 	tsteq	r1, r1
 2001104:	01030101 	tsteq	r3, r1, lsl #2
 2001108:	01010301 	tsteq	r1, r1, lsl #6
 200110c:	02020202 	andeq	r0, r2, #536870912	; 0x20000000
 2001110:	02020202 	andeq	r0, r2, #536870912	; 0x20000000
 2001114:	02020202 	andeq	r0, r2, #536870912	; 0x20000000
 2001118:	02020202 	andeq	r0, r2, #536870912	; 0x20000000
 200111c:	02000002 	andeq	r0, r0, #2
 2001120:	02000002 	andeq	r0, r0, #2
 2001124:	02000002 	andeq	r0, r0, #2
 2001128:	02000002 	andeq	r0, r0, #2
 200112c:	00020202 	andeq	r0, r2, r2, lsl #4
 2001130:	02020200 	andeq	r0, r2, #0, 4
 2001134:	00000202 	andeq	r0, r0, r2, lsl #4
 2001138:	02020000 	andeq	r0, r2, #0
 200113c:	00000202 	andeq	r0, r0, r2, lsl #4
 2001140:	02020000 	andeq	r0, r2, #0
 2001144:	02000202 	andeq	r0, r0, #536870912	; 0x20000000
 2001148:	02020002 	andeq	r0, r2, #2
 200114c:	01010303 	tsteq	r1, r3, lsl #6
 2001150:	03030101 	movweq	r0, #12545	; 0x3101
 2001154:	01010103 	tsteq	r1, r3, lsl #2
 2001158:	03010101 	movweq	r0, #4353	; 0x1101
 200115c:	01000101 	tsteq	r0, r1, lsl #2
 2001160:	01010001 	tsteq	r1, r1
 2001164:	01000101 	tsteq	r0, r1, lsl #2
 2001168:	01010001 	tsteq	r1, r1
 200116c:	01010101 	tsteq	r1, r1, lsl #2
 2001170:	01010101 	tsteq	r1, r1, lsl #2
 2001174:	01010001 	tsteq	r1, r1
 2001178:	01000101 	tsteq	r0, r1, lsl #2
 200117c:	00000103 	andeq	r0, r0, r3, lsl #2
 2001180:	03010000 	movweq	r0, #4096	; 0x1000
 2001184:	01010303 	tsteq	r1, r3, lsl #6
 2001188:	03030101 	movweq	r0, #12545	; 0x3101
 200118c:	00000303 	andeq	r0, r0, r3, lsl #6
 2001190:	03030000 	movweq	r0, #12288	; 0x3000
 2001194:	02020003 	andeq	r0, r2, #3
 2001198:	03000101 	movweq	r0, #257	; 0x101
 200119c:	01010200 	mrseq	r0, R9_usr
 20011a0:	00010101 	andeq	r0, r1, r1, lsl #2
 20011a4:	00010100 	andeq	r0, r1, r0, lsl #2
 20011a8:	00010100 	andeq	r0, r1, r0, lsl #2
 20011ac:	03000100 	movweq	r0, #256	; 0x100
 20011b0:	00010003 	andeq	r0, r1, r3
 20011b4:	03010200 	movweq	r0, #4608	; 0x1200
 20011b8:	00020103 	andeq	r0, r2, r3, lsl #2
 20011bc:	01020003 	tsteq	r2, r3
 20011c0:	03000201 	movweq	r0, #513	; 0x201
 20011c4:	00000303 	andeq	r0, r0, r3, lsl #6
 20011c8:	03030000 	movweq	r0, #12288	; 0x3000
 20011cc:	01010303 	tsteq	r1, r3, lsl #6
 20011d0:	03030101 	movweq	r0, #12545	; 0x3101
 20011d4:	01010103 	tsteq	r1, r3, lsl #2
 20011d8:	03010101 	movweq	r0, #4353	; 0x1101
 20011dc:	01030301 	tsteq	r3, r1, lsl #6
 20011e0:	01030301 	tsteq	r3, r1, lsl #6
 20011e4:	01000301 	tsteq	r0, r1, lsl #6
 20011e8:	01030001 	tsteq	r3, r1
 20011ec:	01010101 	tsteq	r1, r1, lsl #2
 20011f0:	01010101 	tsteq	r1, r1, lsl #2
 20011f4:	00010101 	andeq	r0, r1, r1, lsl #2
 20011f8:	01010100 	mrseq	r0, (UNDEF: 17)
 20011fc:	00010103 	andeq	r0, r1, r3, lsl #2
 2001200:	03010100 	movweq	r0, #4352	; 0x1100
 2001204:	01010303 	tsteq	r1, r3, lsl #6
 2001208:	03030101 	movweq	r0, #12545	; 0x3101
 200120c:	00000303 	andeq	r0, r0, r3, lsl #6
 2001210:	03030000 	movweq	r0, #12288	; 0x3000
 2001214:	01010003 	tsteq	r1, r3
 2001218:	03000202 	movweq	r0, #514	; 0x202
 200121c:	01020200 	mrseq	r0, R10_usr
 2001220:	00010202 	andeq	r0, r1, r2, lsl #4
 2001224:	01020200 	mrseq	r0, R10_usr
 2001228:	00010101 	andeq	r0, r1, r1, lsl #2
 200122c:	01010100 	mrseq	r0, (UNDEF: 17)
 2001230:	00020201 	andeq	r0, r2, r1, lsl #4
 2001234:	03000100 	movweq	r0, #256	; 0x100
 2001238:	00020003 	andeq	r0, r2, r3
 200123c:	03030003 	movweq	r0, #12291	; 0x3003
 2001240:	03000303 	movweq	r0, #771	; 0x303
 2001244:	00000303 	andeq	r0, r0, r3, lsl #6
 2001248:	03030000 	movweq	r0, #12288	; 0x3000
 200124c:	03020203 	movweq	r0, #8707	; 0x2203
 2001250:	03030303 	movweq	r0, #13059	; 0x3303
 2001254:	03030202 	movweq	r0, #12802	; 0x3202
 2001258:	03000300 	movweq	r0, #768	; 0x300
 200125c:	03030103 	movweq	r0, #12547	; 0x3103
 2001260:	03000300 	movweq	r0, #768	; 0x300
 2001264:	03030203 	movweq	r0, #12803	; 0x3203
 2001268:	03030303 	movweq	r0, #13059	; 0x3303
 200126c:	03020203 	movweq	r0, #8707	; 0x2203
 2001270:	03030303 	movweq	r0, #13059	; 0x3303
 2001274:	01010202 	tsteq	r1, r2, lsl #4
 2001278:	03010303 	movweq	r0, #4867	; 0x1303
 200127c:	02020102 	andeq	r0, r2, #-2147483648	; 0x80000000
 2001280:	01020202 	tsteq	r2, r2, lsl #4
 2001284:	00000003 	andeq	r0, r0, r3
 2001288:	00000003 	andeq	r0, r0, r3
	...
 200129c:	01010101 	tsteq	r1, r1, lsl #2
 20012a0:	01010101 	tsteq	r1, r1, lsl #2
 20012a4:	01010101 	tsteq	r1, r1, lsl #2
 20012a8:	01010101 	tsteq	r1, r1, lsl #2
 20012ac:	02020202 	andeq	r0, r2, #536870912	; 0x20000000
 20012b0:	02020202 	andeq	r0, r2, #536870912	; 0x20000000
 20012b4:	02020202 	andeq	r0, r2, #536870912	; 0x20000000
 20012b8:	02020202 	andeq	r0, r2, #536870912	; 0x20000000
 20012bc:	03030303 	movweq	r0, #13059	; 0x3303
 20012c0:	03030303 	movweq	r0, #13059	; 0x3303
 20012c4:	03030303 	movweq	r0, #13059	; 0x3303
 20012c8:	03030303 	movweq	r0, #13059	; 0x3303
 20012cc:	03030303 	movweq	r0, #13059	; 0x3303
 20012d0:	03030303 	movweq	r0, #13059	; 0x3303
 20012d4:	03030303 	movweq	r0, #13059	; 0x3303
 20012d8:	03030303 	movweq	r0, #13059	; 0x3303
 20012dc:	03030303 	movweq	r0, #13059	; 0x3303
 20012e0:	03030303 	movweq	r0, #13059	; 0x3303
 20012e4:	03030303 	movweq	r0, #13059	; 0x3303
 20012e8:	03030303 	movweq	r0, #13059	; 0x3303
 20012ec:	03030303 	movweq	r0, #13059	; 0x3303
 20012f0:	03030303 	movweq	r0, #13059	; 0x3303
 20012f4:	03030303 	movweq	r0, #13059	; 0x3303
 20012f8:	03030303 	movweq	r0, #13059	; 0x3303
 20012fc:	03030303 	movweq	r0, #13059	; 0x3303
 2001300:	03030303 	movweq	r0, #13059	; 0x3303
 2001304:	03030303 	movweq	r0, #13059	; 0x3303
 2001308:	03030303 	movweq	r0, #13059	; 0x3303
 200130c:	03030303 	movweq	r0, #13059	; 0x3303
 2001310:	03030303 	movweq	r0, #13059	; 0x3303
 2001314:	03030303 	movweq	r0, #13059	; 0x3303
 2001318:	03030303 	movweq	r0, #13059	; 0x3303
 200131c:	03030303 	movweq	r0, #13059	; 0x3303
 2001320:	03030303 	movweq	r0, #13059	; 0x3303
 2001324:	03030303 	movweq	r0, #13059	; 0x3303
 2001328:	03030303 	movweq	r0, #13059	; 0x3303
 200132c:	03030303 	movweq	r0, #13059	; 0x3303
 2001330:	03030303 	movweq	r0, #13059	; 0x3303
 2001334:	03030303 	movweq	r0, #13059	; 0x3303
 2001338:	03030303 	movweq	r0, #13059	; 0x3303
 200133c:	03030303 	movweq	r0, #13059	; 0x3303
 2001340:	03030303 	movweq	r0, #13059	; 0x3303
 2001344:	03030303 	movweq	r0, #13059	; 0x3303
 2001348:	03030303 	movweq	r0, #13059	; 0x3303
 200134c:	03030303 	movweq	r0, #13059	; 0x3303
 2001350:	03030303 	movweq	r0, #13059	; 0x3303
 2001354:	03030303 	movweq	r0, #13059	; 0x3303
 2001358:	03030303 	movweq	r0, #13059	; 0x3303
 200135c:	03030303 	movweq	r0, #13059	; 0x3303
 2001360:	03030303 	movweq	r0, #13059	; 0x3303
 2001364:	03030303 	movweq	r0, #13059	; 0x3303
 2001368:	03030303 	movweq	r0, #13059	; 0x3303
 200136c:	03030303 	movweq	r0, #13059	; 0x3303
 2001370:	03030303 	movweq	r0, #13059	; 0x3303
 2001374:	03030303 	movweq	r0, #13059	; 0x3303
 2001378:	03030303 	movweq	r0, #13059	; 0x3303
 200137c:	03030303 	movweq	r0, #13059	; 0x3303
 2001380:	03030303 	movweq	r0, #13059	; 0x3303
 2001384:	03030303 	movweq	r0, #13059	; 0x3303
 2001388:	03030303 	movweq	r0, #13059	; 0x3303
 200138c:	03030303 	movweq	r0, #13059	; 0x3303
 2001390:	03030303 	movweq	r0, #13059	; 0x3303
 2001394:	03030303 	movweq	r0, #13059	; 0x3303
 2001398:	03030303 	movweq	r0, #13059	; 0x3303
 200139c:	03030303 	movweq	r0, #13059	; 0x3303
 20013a0:	03030303 	movweq	r0, #13059	; 0x3303
 20013a4:	03030303 	movweq	r0, #13059	; 0x3303
 20013a8:	03030303 	movweq	r0, #13059	; 0x3303
 20013ac:	03030303 	movweq	r0, #13059	; 0x3303
 20013b0:	03030303 	movweq	r0, #13059	; 0x3303
 20013b4:	03030303 	movweq	r0, #13059	; 0x3303
 20013b8:	03030303 	movweq	r0, #13059	; 0x3303
 20013bc:	03030303 	movweq	r0, #13059	; 0x3303
 20013c0:	03030303 	movweq	r0, #13059	; 0x3303
 20013c4:	03030303 	movweq	r0, #13059	; 0x3303
 20013c8:	03030303 	movweq	r0, #13059	; 0x3303
 20013cc:	03030303 	movweq	r0, #13059	; 0x3303
 20013d0:	03030303 	movweq	r0, #13059	; 0x3303
 20013d4:	03030303 	movweq	r0, #13059	; 0x3303
 20013d8:	03030303 	movweq	r0, #13059	; 0x3303
 20013dc:	03030303 	movweq	r0, #13059	; 0x3303
 20013e0:	03030303 	movweq	r0, #13059	; 0x3303
 20013e4:	03030303 	movweq	r0, #13059	; 0x3303
 20013e8:	03030303 	movweq	r0, #13059	; 0x3303
 20013ec:	03030303 	movweq	r0, #13059	; 0x3303
 20013f0:	03030303 	movweq	r0, #13059	; 0x3303
 20013f4:	03030303 	movweq	r0, #13059	; 0x3303
 20013f8:	03030303 	movweq	r0, #13059	; 0x3303
 20013fc:	03030303 	movweq	r0, #13059	; 0x3303
 2001400:	03030303 	movweq	r0, #13059	; 0x3303
 2001404:	03030303 	movweq	r0, #13059	; 0x3303
 2001408:	03030303 	movweq	r0, #13059	; 0x3303
 200140c:	03030303 	movweq	r0, #13059	; 0x3303
 2001410:	03030303 	movweq	r0, #13059	; 0x3303
 2001414:	00030303 	andeq	r0, r3, r3, lsl #6
 2001418:	03030300 	movweq	r0, #13056	; 0x3300
 200141c:	00030303 	andeq	r0, r3, r3, lsl #6
 2001420:	03030300 	movweq	r0, #13056	; 0x3300
 2001424:	00030303 	andeq	r0, r3, r3, lsl #6
 2001428:	03030300 	movweq	r0, #13056	; 0x3300
 200142c:	03030303 	movweq	r0, #13059	; 0x3303
 2001430:	03030303 	movweq	r0, #13059	; 0x3303
 2001434:	00030303 	andeq	r0, r3, r3, lsl #6
 2001438:	03030300 	movweq	r0, #13056	; 0x3300
 200143c:	00030303 	andeq	r0, r3, r3, lsl #6
 2001440:	03030300 	movweq	r0, #13056	; 0x3300
 2001444:	03030303 	movweq	r0, #13059	; 0x3303
 2001448:	03030303 	movweq	r0, #13059	; 0x3303
 200144c:	03030303 	movweq	r0, #13059	; 0x3303
 2001450:	03030303 	movweq	r0, #13059	; 0x3303
 2001454:	03000003 	movweq	r0, #3
 2001458:	03000003 	movweq	r0, #3
 200145c:	03000003 	movweq	r0, #3
 2001460:	03000003 	movweq	r0, #3
 2001464:	03030303 	movweq	r0, #13059	; 0x3303
 2001468:	03030303 	movweq	r0, #13059	; 0x3303
 200146c:	03030303 	movweq	r0, #13059	; 0x3303
 2001470:	03030303 	movweq	r0, #13059	; 0x3303
 2001474:	03030303 	movweq	r0, #13059	; 0x3303
 2001478:	03030303 	movweq	r0, #13059	; 0x3303
 200147c:	03030303 	movweq	r0, #13059	; 0x3303
 2001480:	03030303 	movweq	r0, #13059	; 0x3303
 2001484:	03030303 	movweq	r0, #13059	; 0x3303
 2001488:	03030303 	movweq	r0, #13059	; 0x3303
 200148c:	03030303 	movweq	r0, #13059	; 0x3303
 2001490:	03030303 	movweq	r0, #13059	; 0x3303
 2001494:	03000303 	movweq	r0, #771	; 0x303
 2001498:	03030003 	movweq	r0, #12291	; 0x3003
 200149c:	00000003 	andeq	r0, r0, r3
 20014a0:	03000000 	movweq	r0, #0
 20014a4:	03000303 	movweq	r0, #771	; 0x303
 20014a8:	03030003 	movweq	r0, #12291	; 0x3003
 20014ac:	03000303 	movweq	r0, #771	; 0x303
 20014b0:	03030003 	movweq	r0, #12291	; 0x3003
 20014b4:	00000003 	andeq	r0, r0, r3
 20014b8:	03000000 	movweq	r0, #0
 20014bc:	03000303 	movweq	r0, #771	; 0x303
 20014c0:	03030003 	movweq	r0, #12291	; 0x3003
 20014c4:	03030303 	movweq	r0, #13059	; 0x3303
 20014c8:	03030303 	movweq	r0, #13059	; 0x3303
 20014cc:	00030303 	andeq	r0, r3, r3, lsl #6
 20014d0:	03030003 	movweq	r0, #12291	; 0x3003
 20014d4:	00000303 	andeq	r0, r0, r3, lsl #6
 20014d8:	03000000 	movweq	r0, #0
 20014dc:	00030003 	andeq	r0, r3, r3
 20014e0:	03030003 	movweq	r0, #12291	; 0x3003
 20014e4:	00000303 	andeq	r0, r0, r3, lsl #6
 20014e8:	03030000 	movweq	r0, #12288	; 0x3000
 20014ec:	00030303 	andeq	r0, r3, r3, lsl #6
 20014f0:	03000003 	movweq	r0, #3
 20014f4:	00030303 	andeq	r0, r3, r3, lsl #6
 20014f8:	03000003 	movweq	r0, #3
 20014fc:	00000003 	andeq	r0, r0, r3
 2001500:	03030000 	movweq	r0, #12288	; 0x3000
 2001504:	00030303 	andeq	r0, r3, r3, lsl #6
 2001508:	03030003 	movweq	r0, #12291	; 0x3003
 200150c:	03030303 	movweq	r0, #13059	; 0x3303
 2001510:	03030303 	movweq	r0, #13059	; 0x3303
 2001514:	03000003 	movweq	r0, #3
 2001518:	03000303 	movweq	r0, #771	; 0x303
 200151c:	03000003 	movweq	r0, #3
 2001520:	03030003 	movweq	r0, #12291	; 0x3003
 2001524:	03030303 	movweq	r0, #13059	; 0x3303
 2001528:	03030300 	movweq	r0, #13056	; 0x3300
 200152c:	00030303 	andeq	r0, r3, r3, lsl #6
 2001530:	03030303 	movweq	r0, #13059	; 0x3303
 2001534:	03000303 	movweq	r0, #771	; 0x303
 2001538:	03000003 	movweq	r0, #3
 200153c:	03030003 	movweq	r0, #12291	; 0x3003
 2001540:	03000003 	movweq	r0, #3
 2001544:	03030303 	movweq	r0, #13059	; 0x3303
 2001548:	03030303 	movweq	r0, #13059	; 0x3303
 200154c:	03030303 	movweq	r0, #13059	; 0x3303
 2001550:	03030303 	movweq	r0, #13059	; 0x3303
 2001554:	00030303 	andeq	r0, r3, r3, lsl #6
 2001558:	03030303 	movweq	r0, #13059	; 0x3303
 200155c:	03000303 	movweq	r0, #771	; 0x303
 2001560:	03030300 	movweq	r0, #13056	; 0x3300
 2001564:	00030303 	andeq	r0, r3, r3, lsl #6
 2001568:	03030303 	movweq	r0, #13059	; 0x3303
 200156c:	03000303 	movweq	r0, #771	; 0x303
 2001570:	03000300 	movweq	r0, #768	; 0x300
 2001574:	03000303 	movweq	r0, #771	; 0x303
 2001578:	03030003 	movweq	r0, #12291	; 0x3003
 200157c:	00030303 	andeq	r0, r3, r3, lsl #6
 2001580:	03000300 	movweq	r0, #768	; 0x300
 2001584:	03030303 	movweq	r0, #13059	; 0x3303
 2001588:	03030303 	movweq	r0, #13059	; 0x3303
 200158c:	03030303 	movweq	r0, #13059	; 0x3303
 2001590:	03030303 	movweq	r0, #13059	; 0x3303
 2001594:	00030303 	andeq	r0, r3, r3, lsl #6
 2001598:	03030300 	movweq	r0, #13056	; 0x3300
 200159c:	00030303 	andeq	r0, r3, r3, lsl #6
 20015a0:	03030300 	movweq	r0, #13056	; 0x3300
 20015a4:	03030303 	movweq	r0, #13059	; 0x3303
 20015a8:	03030303 	movweq	r0, #13059	; 0x3303
 20015ac:	03030303 	movweq	r0, #13059	; 0x3303
 20015b0:	03030303 	movweq	r0, #13059	; 0x3303
 20015b4:	03030303 	movweq	r0, #13059	; 0x3303
 20015b8:	03030303 	movweq	r0, #13059	; 0x3303
 20015bc:	03030303 	movweq	r0, #13059	; 0x3303
 20015c0:	03030303 	movweq	r0, #13059	; 0x3303
 20015c4:	03030303 	movweq	r0, #13059	; 0x3303
 20015c8:	03030303 	movweq	r0, #13059	; 0x3303
 20015cc:	03030303 	movweq	r0, #13059	; 0x3303
 20015d0:	03030303 	movweq	r0, #13059	; 0x3303
 20015d4:	00030303 	andeq	r0, r3, r3, lsl #6
 20015d8:	03030000 	movweq	r0, #12288	; 0x3000
 20015dc:	03000303 	movweq	r0, #771	; 0x303
 20015e0:	03030303 	movweq	r0, #13059	; 0x3303
 20015e4:	03000303 	movweq	r0, #771	; 0x303
 20015e8:	03030303 	movweq	r0, #13059	; 0x3303
 20015ec:	03000303 	movweq	r0, #771	; 0x303
 20015f0:	03030303 	movweq	r0, #13059	; 0x3303
 20015f4:	03000303 	movweq	r0, #771	; 0x303
 20015f8:	03030303 	movweq	r0, #13059	; 0x3303
 20015fc:	00030303 	andeq	r0, r3, r3, lsl #6
 2001600:	03030000 	movweq	r0, #12288	; 0x3000
 2001604:	03030303 	movweq	r0, #13059	; 0x3303
 2001608:	03030303 	movweq	r0, #13059	; 0x3303
 200160c:	03030303 	movweq	r0, #13059	; 0x3303
 2001610:	03030303 	movweq	r0, #13059	; 0x3303
 2001614:	00000303 	andeq	r0, r0, r3, lsl #6
 2001618:	03030300 	movweq	r0, #13056	; 0x3300
 200161c:	03030303 	movweq	r0, #13059	; 0x3303
 2001620:	03030003 	movweq	r0, #12291	; 0x3003
 2001624:	03030303 	movweq	r0, #13059	; 0x3303
 2001628:	03030003 	movweq	r0, #12291	; 0x3003
 200162c:	03030303 	movweq	r0, #13059	; 0x3303
 2001630:	03030003 	movweq	r0, #12291	; 0x3003
 2001634:	03030303 	movweq	r0, #13059	; 0x3303
 2001638:	03030003 	movweq	r0, #12291	; 0x3003
 200163c:	00000303 	andeq	r0, r0, r3, lsl #6
 2001640:	03030300 	movweq	r0, #13056	; 0x3300
 2001644:	03030303 	movweq	r0, #13059	; 0x3303
 2001648:	03030303 	movweq	r0, #13059	; 0x3303
 200164c:	03030303 	movweq	r0, #13059	; 0x3303
 2001650:	03030303 	movweq	r0, #13059	; 0x3303
 2001654:	00030303 	andeq	r0, r3, r3, lsl #6
 2001658:	03030300 	movweq	r0, #13056	; 0x3300
 200165c:	00000003 	andeq	r0, r0, r3
 2001660:	03000000 	movweq	r0, #0
 2001664:	00000303 	andeq	r0, r0, r3, lsl #6
 2001668:	03030000 	movweq	r0, #12288	; 0x3000
 200166c:	00000303 	andeq	r0, r0, r3, lsl #6
 2001670:	03030000 	movweq	r0, #12288	; 0x3000
 2001674:	03000003 	movweq	r0, #3
 2001678:	03000003 	movweq	r0, #3
 200167c:	03030003 	movweq	r0, #12291	; 0x3003
 2001680:	03000303 	movweq	r0, #771	; 0x303
 2001684:	03030303 	movweq	r0, #13059	; 0x3303
 2001688:	03030303 	movweq	r0, #13059	; 0x3303
 200168c:	03030303 	movweq	r0, #13059	; 0x3303
 2001690:	03030303 	movweq	r0, #13059	; 0x3303
 2001694:	03030303 	movweq	r0, #13059	; 0x3303
 2001698:	03030303 	movweq	r0, #13059	; 0x3303
 200169c:	00030303 	andeq	r0, r3, r3, lsl #6
 20016a0:	03030303 	movweq	r0, #13059	; 0x3303
 20016a4:	00030303 	andeq	r0, r3, r3, lsl #6
 20016a8:	03030303 	movweq	r0, #13059	; 0x3303
 20016ac:	00000003 	andeq	r0, r0, r3
 20016b0:	03030000 	movweq	r0, #12288	; 0x3000
 20016b4:	00030303 	andeq	r0, r3, r3, lsl #6
 20016b8:	03030303 	movweq	r0, #13059	; 0x3303
 20016bc:	00030303 	andeq	r0, r3, r3, lsl #6
 20016c0:	03030303 	movweq	r0, #13059	; 0x3303
 20016c4:	03030303 	movweq	r0, #13059	; 0x3303
 20016c8:	03030303 	movweq	r0, #13059	; 0x3303
 20016cc:	03030303 	movweq	r0, #13059	; 0x3303
 20016d0:	03030303 	movweq	r0, #13059	; 0x3303
 20016d4:	03030303 	movweq	r0, #13059	; 0x3303
 20016d8:	03030303 	movweq	r0, #13059	; 0x3303
 20016dc:	03030303 	movweq	r0, #13059	; 0x3303
 20016e0:	03030303 	movweq	r0, #13059	; 0x3303
 20016e4:	03030303 	movweq	r0, #13059	; 0x3303
 20016e8:	03030303 	movweq	r0, #13059	; 0x3303
 20016ec:	03030303 	movweq	r0, #13059	; 0x3303
 20016f0:	03030303 	movweq	r0, #13059	; 0x3303
 20016f4:	00030303 	andeq	r0, r3, r3, lsl #6
 20016f8:	03030300 	movweq	r0, #13056	; 0x3300
 20016fc:	00030303 	andeq	r0, r3, r3, lsl #6
 2001700:	03030300 	movweq	r0, #13056	; 0x3300
 2001704:	03030303 	movweq	r0, #13059	; 0x3303
 2001708:	03030300 	movweq	r0, #13056	; 0x3300
 200170c:	03030303 	movweq	r0, #13059	; 0x3303
 2001710:	03030303 	movweq	r0, #13059	; 0x3303
 2001714:	03030303 	movweq	r0, #13059	; 0x3303
 2001718:	03030303 	movweq	r0, #13059	; 0x3303
 200171c:	03030303 	movweq	r0, #13059	; 0x3303
 2001720:	03030303 	movweq	r0, #13059	; 0x3303
 2001724:	03030303 	movweq	r0, #13059	; 0x3303
 2001728:	03030303 	movweq	r0, #13059	; 0x3303
 200172c:	00000003 	andeq	r0, r0, r3
 2001730:	03030000 	movweq	r0, #12288	; 0x3000
 2001734:	03030303 	movweq	r0, #13059	; 0x3303
 2001738:	03030303 	movweq	r0, #13059	; 0x3303
 200173c:	03030303 	movweq	r0, #13059	; 0x3303
 2001740:	03030303 	movweq	r0, #13059	; 0x3303
 2001744:	03030303 	movweq	r0, #13059	; 0x3303
 2001748:	03030303 	movweq	r0, #13059	; 0x3303
 200174c:	03030303 	movweq	r0, #13059	; 0x3303
 2001750:	03030303 	movweq	r0, #13059	; 0x3303
 2001754:	03030303 	movweq	r0, #13059	; 0x3303
 2001758:	03030303 	movweq	r0, #13059	; 0x3303
 200175c:	03030303 	movweq	r0, #13059	; 0x3303
 2001760:	03030303 	movweq	r0, #13059	; 0x3303
 2001764:	03030303 	movweq	r0, #13059	; 0x3303
 2001768:	03030303 	movweq	r0, #13059	; 0x3303
 200176c:	03030303 	movweq	r0, #13059	; 0x3303
 2001770:	03030303 	movweq	r0, #13059	; 0x3303
 2001774:	00030303 	andeq	r0, r3, r3, lsl #6
 2001778:	03030300 	movweq	r0, #13056	; 0x3300
 200177c:	00030303 	andeq	r0, r3, r3, lsl #6
 2001780:	03030300 	movweq	r0, #13056	; 0x3300
 2001784:	03030303 	movweq	r0, #13059	; 0x3303
 2001788:	03030303 	movweq	r0, #13059	; 0x3303
 200178c:	03030303 	movweq	r0, #13059	; 0x3303
 2001790:	03030303 	movweq	r0, #13059	; 0x3303
 2001794:	03030303 	movweq	r0, #13059	; 0x3303
 2001798:	03030300 	movweq	r0, #13056	; 0x3300
 200179c:	03030303 	movweq	r0, #13059	; 0x3303
 20017a0:	03030300 	movweq	r0, #13056	; 0x3300
 20017a4:	00030303 	andeq	r0, r3, r3, lsl #6
 20017a8:	03030303 	movweq	r0, #13059	; 0x3303
 20017ac:	00030303 	andeq	r0, r3, r3, lsl #6
 20017b0:	03030303 	movweq	r0, #13059	; 0x3303
 20017b4:	03000303 	movweq	r0, #771	; 0x303
 20017b8:	03030303 	movweq	r0, #13059	; 0x3303
 20017bc:	03000303 	movweq	r0, #771	; 0x303
 20017c0:	03030303 	movweq	r0, #13059	; 0x3303
 20017c4:	03030303 	movweq	r0, #13059	; 0x3303
 20017c8:	03030303 	movweq	r0, #13059	; 0x3303
 20017cc:	03030303 	movweq	r0, #13059	; 0x3303
 20017d0:	03030303 	movweq	r0, #13059	; 0x3303
 20017d4:	00030303 	andeq	r0, r3, r3, lsl #6
 20017d8:	03030300 	movweq	r0, #13056	; 0x3300
 20017dc:	03000303 	movweq	r0, #771	; 0x303
 20017e0:	03030003 	movweq	r0, #12291	; 0x3003
 20017e4:	03000303 	movweq	r0, #771	; 0x303
 20017e8:	03030000 	movweq	r0, #12288	; 0x3000
 20017ec:	00000303 	andeq	r0, r0, r3, lsl #6
 20017f0:	03030003 	movweq	r0, #12291	; 0x3003
 20017f4:	03000303 	movweq	r0, #771	; 0x303
 20017f8:	03030003 	movweq	r0, #12291	; 0x3003
 20017fc:	00030303 	andeq	r0, r3, r3, lsl #6
 2001800:	03030300 	movweq	r0, #13056	; 0x3300
 2001804:	03030303 	movweq	r0, #13059	; 0x3303
 2001808:	03030303 	movweq	r0, #13059	; 0x3303
 200180c:	03030303 	movweq	r0, #13059	; 0x3303
 2001810:	03030303 	movweq	r0, #13059	; 0x3303
 2001814:	00030303 	andeq	r0, r3, r3, lsl #6
 2001818:	03030303 	movweq	r0, #13059	; 0x3303
 200181c:	00000303 	andeq	r0, r0, r3, lsl #6
 2001820:	03030303 	movweq	r0, #13059	; 0x3303
 2001824:	00030303 	andeq	r0, r3, r3, lsl #6
 2001828:	03030303 	movweq	r0, #13059	; 0x3303
 200182c:	00030303 	andeq	r0, r3, r3, lsl #6
 2001830:	03030303 	movweq	r0, #13059	; 0x3303
 2001834:	00030303 	andeq	r0, r3, r3, lsl #6
 2001838:	03030303 	movweq	r0, #13059	; 0x3303
 200183c:	00000303 	andeq	r0, r0, r3, lsl #6
 2001840:	03030300 	movweq	r0, #13056	; 0x3300
 2001844:	03030303 	movweq	r0, #13059	; 0x3303
 2001848:	03030303 	movweq	r0, #13059	; 0x3303
 200184c:	03030303 	movweq	r0, #13059	; 0x3303
 2001850:	03030303 	movweq	r0, #13059	; 0x3303
 2001854:	00000303 	andeq	r0, r0, r3, lsl #6
 2001858:	03030300 	movweq	r0, #13056	; 0x3300
 200185c:	03030003 	movweq	r0, #12291	; 0x3003
 2001860:	03030003 	movweq	r0, #12291	; 0x3003
 2001864:	03030303 	movweq	r0, #13059	; 0x3303
 2001868:	03030003 	movweq	r0, #12291	; 0x3003
 200186c:	00000303 	andeq	r0, r0, r3, lsl #6
 2001870:	03030300 	movweq	r0, #13056	; 0x3300
 2001874:	03030003 	movweq	r0, #12291	; 0x3003
 2001878:	03030303 	movweq	r0, #13059	; 0x3303
 200187c:	00000003 	andeq	r0, r0, r3
 2001880:	03030000 	movweq	r0, #12288	; 0x3000
 2001884:	03030303 	movweq	r0, #13059	; 0x3303
 2001888:	03030303 	movweq	r0, #13059	; 0x3303
 200188c:	03030303 	movweq	r0, #13059	; 0x3303
 2001890:	03030303 	movweq	r0, #13059	; 0x3303
 2001894:	00000303 	andeq	r0, r0, r3, lsl #6
 2001898:	03030000 	movweq	r0, #12288	; 0x3000
 200189c:	03030003 	movweq	r0, #12291	; 0x3003
 20018a0:	03000303 	movweq	r0, #771	; 0x303
 20018a4:	00030303 	andeq	r0, r3, r3, lsl #6
 20018a8:	03030000 	movweq	r0, #12288	; 0x3000
 20018ac:	03030303 	movweq	r0, #13059	; 0x3303
 20018b0:	03000303 	movweq	r0, #771	; 0x303
 20018b4:	03030003 	movweq	r0, #12291	; 0x3003
 20018b8:	03000303 	movweq	r0, #771	; 0x303
 20018bc:	00000303 	andeq	r0, r0, r3, lsl #6
 20018c0:	03030000 	movweq	r0, #12288	; 0x3000
 20018c4:	03030303 	movweq	r0, #13059	; 0x3303
 20018c8:	03030303 	movweq	r0, #13059	; 0x3303
 20018cc:	03030303 	movweq	r0, #13059	; 0x3303
 20018d0:	03030303 	movweq	r0, #13059	; 0x3303
 20018d4:	03030303 	movweq	r0, #13059	; 0x3303
 20018d8:	03030003 	movweq	r0, #12291	; 0x3003
 20018dc:	03030303 	movweq	r0, #13059	; 0x3303
 20018e0:	03030000 	movweq	r0, #12288	; 0x3000
 20018e4:	00030303 	andeq	r0, r3, r3, lsl #6
 20018e8:	03030003 	movweq	r0, #12291	; 0x3003
 20018ec:	03000303 	movweq	r0, #771	; 0x303
 20018f0:	03030003 	movweq	r0, #12291	; 0x3003
 20018f4:	00000003 	andeq	r0, r0, r3
 20018f8:	03000000 	movweq	r0, #0
 20018fc:	03030303 	movweq	r0, #13059	; 0x3303
 2001900:	03030003 	movweq	r0, #12291	; 0x3003
 2001904:	03030303 	movweq	r0, #13059	; 0x3303
 2001908:	03030303 	movweq	r0, #13059	; 0x3303
 200190c:	03030303 	movweq	r0, #13059	; 0x3303
 2001910:	03030303 	movweq	r0, #13059	; 0x3303
 2001914:	00000003 	andeq	r0, r0, r3
 2001918:	03000000 	movweq	r0, #0
 200191c:	03030003 	movweq	r0, #12291	; 0x3003
 2001920:	03030303 	movweq	r0, #13059	; 0x3303
 2001924:	00000003 	andeq	r0, r0, r3
 2001928:	03030000 	movweq	r0, #12288	; 0x3000
 200192c:	03030303 	movweq	r0, #13059	; 0x3303
 2001930:	03000303 	movweq	r0, #771	; 0x303
 2001934:	03030003 	movweq	r0, #12291	; 0x3003
 2001938:	03000303 	movweq	r0, #771	; 0x303
 200193c:	00000303 	andeq	r0, r0, r3, lsl #6
 2001940:	03030000 	movweq	r0, #12288	; 0x3000
 2001944:	03030303 	movweq	r0, #13059	; 0x3303
 2001948:	03030303 	movweq	r0, #13059	; 0x3303
 200194c:	03030303 	movweq	r0, #13059	; 0x3303
 2001950:	03030303 	movweq	r0, #13059	; 0x3303
 2001954:	00000303 	andeq	r0, r0, r3, lsl #6
 2001958:	03030000 	movweq	r0, #12288	; 0x3000
 200195c:	03000303 	movweq	r0, #771	; 0x303
 2001960:	03030303 	movweq	r0, #13059	; 0x3303
 2001964:	00000303 	andeq	r0, r0, r3, lsl #6
 2001968:	03030000 	movweq	r0, #12288	; 0x3000
 200196c:	03000303 	movweq	r0, #771	; 0x303
 2001970:	03030003 	movweq	r0, #12291	; 0x3003
 2001974:	03000303 	movweq	r0, #771	; 0x303
 2001978:	03030003 	movweq	r0, #12291	; 0x3003
 200197c:	00000303 	andeq	r0, r0, r3, lsl #6
 2001980:	03030000 	movweq	r0, #12288	; 0x3000
 2001984:	03030303 	movweq	r0, #13059	; 0x3303
 2001988:	03030303 	movweq	r0, #13059	; 0x3303
 200198c:	03030303 	movweq	r0, #13059	; 0x3303
 2001990:	03030303 	movweq	r0, #13059	; 0x3303
 2001994:	00000003 	andeq	r0, r0, r3
 2001998:	03000000 	movweq	r0, #0
 200199c:	03030303 	movweq	r0, #13059	; 0x3303
 20019a0:	03000303 	movweq	r0, #771	; 0x303
 20019a4:	03030303 	movweq	r0, #13059	; 0x3303
 20019a8:	03030003 	movweq	r0, #12291	; 0x3003
 20019ac:	03030303 	movweq	r0, #13059	; 0x3303
 20019b0:	03030300 	movweq	r0, #13056	; 0x3300
 20019b4:	00030303 	andeq	r0, r3, r3, lsl #6
 20019b8:	03030303 	movweq	r0, #13059	; 0x3303
 20019bc:	00030303 	andeq	r0, r3, r3, lsl #6
 20019c0:	03030303 	movweq	r0, #13059	; 0x3303
 20019c4:	03030303 	movweq	r0, #13059	; 0x3303
 20019c8:	03030303 	movweq	r0, #13059	; 0x3303
 20019cc:	03030303 	movweq	r0, #13059	; 0x3303
 20019d0:	03030303 	movweq	r0, #13059	; 0x3303
 20019d4:	00000303 	andeq	r0, r0, r3, lsl #6
 20019d8:	03030000 	movweq	r0, #12288	; 0x3000
 20019dc:	03030003 	movweq	r0, #12291	; 0x3003
 20019e0:	03000303 	movweq	r0, #771	; 0x303
 20019e4:	00000303 	andeq	r0, r0, r3, lsl #6
 20019e8:	03030000 	movweq	r0, #12288	; 0x3000
 20019ec:	03030003 	movweq	r0, #12291	; 0x3003
 20019f0:	03000303 	movweq	r0, #771	; 0x303
 20019f4:	03030003 	movweq	r0, #12291	; 0x3003
 20019f8:	03000303 	movweq	r0, #771	; 0x303
 20019fc:	00000303 	andeq	r0, r0, r3, lsl #6
 2001a00:	03030000 	movweq	r0, #12288	; 0x3000
 2001a04:	03030303 	movweq	r0, #13059	; 0x3303
 2001a08:	03030303 	movweq	r0, #13059	; 0x3303
 2001a0c:	03030303 	movweq	r0, #13059	; 0x3303
 2001a10:	03030303 	movweq	r0, #13059	; 0x3303
 2001a14:	00000303 	andeq	r0, r0, r3, lsl #6
 2001a18:	03030000 	movweq	r0, #12288	; 0x3000
 2001a1c:	03030003 	movweq	r0, #12291	; 0x3003
 2001a20:	03000303 	movweq	r0, #771	; 0x303
 2001a24:	03030003 	movweq	r0, #12291	; 0x3003
 2001a28:	03000303 	movweq	r0, #771	; 0x303
 2001a2c:	00000303 	andeq	r0, r0, r3, lsl #6
 2001a30:	03000000 	movweq	r0, #0
 2001a34:	03030303 	movweq	r0, #13059	; 0x3303
 2001a38:	03000303 	movweq	r0, #771	; 0x303
 2001a3c:	00000303 	andeq	r0, r0, r3, lsl #6
 2001a40:	03030000 	movweq	r0, #12288	; 0x3000
 2001a44:	03030303 	movweq	r0, #13059	; 0x3303
 2001a48:	03030303 	movweq	r0, #13059	; 0x3303
 2001a4c:	03030303 	movweq	r0, #13059	; 0x3303
 2001a50:	03030303 	movweq	r0, #13059	; 0x3303
 2001a54:	03030303 	movweq	r0, #13059	; 0x3303
 2001a58:	03030303 	movweq	r0, #13059	; 0x3303
 2001a5c:	00030303 	andeq	r0, r3, r3, lsl #6
 2001a60:	03030300 	movweq	r0, #13056	; 0x3300
 2001a64:	00030303 	andeq	r0, r3, r3, lsl #6
 2001a68:	03030300 	movweq	r0, #13056	; 0x3300
 2001a6c:	03030303 	movweq	r0, #13059	; 0x3303
 2001a70:	03030303 	movweq	r0, #13059	; 0x3303
 2001a74:	00030303 	andeq	r0, r3, r3, lsl #6
 2001a78:	03030300 	movweq	r0, #13056	; 0x3300
 2001a7c:	00030303 	andeq	r0, r3, r3, lsl #6
 2001a80:	03030300 	movweq	r0, #13056	; 0x3300
 2001a84:	03030303 	movweq	r0, #13059	; 0x3303
 2001a88:	03030303 	movweq	r0, #13059	; 0x3303
 2001a8c:	03030303 	movweq	r0, #13059	; 0x3303
 2001a90:	03030303 	movweq	r0, #13059	; 0x3303
 2001a94:	00030303 	andeq	r0, r3, r3, lsl #6
 2001a98:	03030300 	movweq	r0, #13056	; 0x3300
 2001a9c:	00030303 	andeq	r0, r3, r3, lsl #6
 2001aa0:	03030300 	movweq	r0, #13056	; 0x3300
 2001aa4:	03030303 	movweq	r0, #13059	; 0x3303
 2001aa8:	03030303 	movweq	r0, #13059	; 0x3303
 2001aac:	03030303 	movweq	r0, #13059	; 0x3303
 2001ab0:	03030303 	movweq	r0, #13059	; 0x3303
 2001ab4:	00030303 	andeq	r0, r3, r3, lsl #6
 2001ab8:	03030300 	movweq	r0, #13056	; 0x3300
 2001abc:	00030303 	andeq	r0, r3, r3, lsl #6
 2001ac0:	03030300 	movweq	r0, #13056	; 0x3300
 2001ac4:	03030303 	movweq	r0, #13059	; 0x3303
 2001ac8:	03030300 	movweq	r0, #13056	; 0x3300
 2001acc:	03030303 	movweq	r0, #13059	; 0x3303
 2001ad0:	03030303 	movweq	r0, #13059	; 0x3303
 2001ad4:	03030303 	movweq	r0, #13059	; 0x3303
 2001ad8:	03030303 	movweq	r0, #13059	; 0x3303
 2001adc:	03030303 	movweq	r0, #13059	; 0x3303
 2001ae0:	03030000 	movweq	r0, #12288	; 0x3000
 2001ae4:	00000303 	andeq	r0, r0, r3, lsl #6
 2001ae8:	03030303 	movweq	r0, #13059	; 0x3303
 2001aec:	03030003 	movweq	r0, #12291	; 0x3003
 2001af0:	03030303 	movweq	r0, #13059	; 0x3303
 2001af4:	00000303 	andeq	r0, r0, r3, lsl #6
 2001af8:	03030303 	movweq	r0, #13059	; 0x3303
 2001afc:	03030303 	movweq	r0, #13059	; 0x3303
 2001b00:	03030000 	movweq	r0, #12288	; 0x3000
 2001b04:	03030303 	movweq	r0, #13059	; 0x3303
 2001b08:	03030303 	movweq	r0, #13059	; 0x3303
 2001b0c:	03030303 	movweq	r0, #13059	; 0x3303
 2001b10:	03030303 	movweq	r0, #13059	; 0x3303
 2001b14:	03030303 	movweq	r0, #13059	; 0x3303
 2001b18:	03030303 	movweq	r0, #13059	; 0x3303
 2001b1c:	03030303 	movweq	r0, #13059	; 0x3303
 2001b20:	03030303 	movweq	r0, #13059	; 0x3303
 2001b24:	00000003 	andeq	r0, r0, r3
 2001b28:	03030000 	movweq	r0, #12288	; 0x3000
 2001b2c:	03030303 	movweq	r0, #13059	; 0x3303
 2001b30:	03030303 	movweq	r0, #13059	; 0x3303
 2001b34:	03030303 	movweq	r0, #13059	; 0x3303
 2001b38:	03030303 	movweq	r0, #13059	; 0x3303
 2001b3c:	00000003 	andeq	r0, r0, r3
 2001b40:	03030000 	movweq	r0, #12288	; 0x3000
 2001b44:	03030303 	movweq	r0, #13059	; 0x3303
 2001b48:	03030303 	movweq	r0, #13059	; 0x3303
 2001b4c:	03030303 	movweq	r0, #13059	; 0x3303
 2001b50:	03030303 	movweq	r0, #13059	; 0x3303
 2001b54:	03030303 	movweq	r0, #13059	; 0x3303
 2001b58:	03030303 	movweq	r0, #13059	; 0x3303
 2001b5c:	03000003 	movweq	r0, #3
 2001b60:	03030303 	movweq	r0, #13059	; 0x3303
 2001b64:	00030303 	andeq	r0, r3, r3, lsl #6
 2001b68:	03030300 	movweq	r0, #13056	; 0x3300
 2001b6c:	03030303 	movweq	r0, #13059	; 0x3303
 2001b70:	03030003 	movweq	r0, #12291	; 0x3003
 2001b74:	00030303 	andeq	r0, r3, r3, lsl #6
 2001b78:	03030300 	movweq	r0, #13056	; 0x3300
 2001b7c:	03000003 	movweq	r0, #3
 2001b80:	03030303 	movweq	r0, #13059	; 0x3303
 2001b84:	03030303 	movweq	r0, #13059	; 0x3303
 2001b88:	03030303 	movweq	r0, #13059	; 0x3303
 2001b8c:	03030303 	movweq	r0, #13059	; 0x3303
 2001b90:	03030303 	movweq	r0, #13059	; 0x3303
 2001b94:	00000303 	andeq	r0, r0, r3, lsl #6
 2001b98:	03030300 	movweq	r0, #13056	; 0x3300
 2001b9c:	03030003 	movweq	r0, #12291	; 0x3003
 2001ba0:	03030003 	movweq	r0, #12291	; 0x3003
 2001ba4:	03030303 	movweq	r0, #13059	; 0x3303
 2001ba8:	03030300 	movweq	r0, #13056	; 0x3300
 2001bac:	00030303 	andeq	r0, r3, r3, lsl #6
 2001bb0:	03030303 	movweq	r0, #13059	; 0x3303
 2001bb4:	03030303 	movweq	r0, #13059	; 0x3303
 2001bb8:	03030303 	movweq	r0, #13059	; 0x3303
 2001bbc:	00030303 	andeq	r0, r3, r3, lsl #6
 2001bc0:	03030303 	movweq	r0, #13059	; 0x3303
 2001bc4:	03030303 	movweq	r0, #13059	; 0x3303
 2001bc8:	03030303 	movweq	r0, #13059	; 0x3303
 2001bcc:	03030303 	movweq	r0, #13059	; 0x3303
 2001bd0:	03030303 	movweq	r0, #13059	; 0x3303
 2001bd4:	00000303 	andeq	r0, r0, r3, lsl #6
 2001bd8:	03030000 	movweq	r0, #12288	; 0x3000
 2001bdc:	03030003 	movweq	r0, #12291	; 0x3003
 2001be0:	03000303 	movweq	r0, #771	; 0x303
 2001be4:	00030003 	andeq	r0, r3, r3
 2001be8:	03000300 	movweq	r0, #768	; 0x300
 2001bec:	00030003 	andeq	r0, r3, r3
 2001bf0:	03030000 	movweq	r0, #12288	; 0x3000
 2001bf4:	03030003 	movweq	r0, #12291	; 0x3003
 2001bf8:	03030303 	movweq	r0, #13059	; 0x3303
 2001bfc:	00000303 	andeq	r0, r0, r3, lsl #6
 2001c00:	03000000 	movweq	r0, #0
 2001c04:	03030303 	movweq	r0, #13059	; 0x3303
 2001c08:	03030303 	movweq	r0, #13059	; 0x3303
 2001c0c:	03030303 	movweq	r0, #13059	; 0x3303
 2001c10:	03030303 	movweq	r0, #13059	; 0x3303
 2001c14:	00000303 	andeq	r0, r0, r3, lsl #6
 2001c18:	03030000 	movweq	r0, #12288	; 0x3000
 2001c1c:	03030003 	movweq	r0, #12291	; 0x3003
 2001c20:	03000303 	movweq	r0, #771	; 0x303
 2001c24:	03030003 	movweq	r0, #12291	; 0x3003
 2001c28:	03000303 	movweq	r0, #771	; 0x303
 2001c2c:	00000003 	andeq	r0, r0, r3
 2001c30:	03000000 	movweq	r0, #0
 2001c34:	03030003 	movweq	r0, #12291	; 0x3003
 2001c38:	03000303 	movweq	r0, #771	; 0x303
 2001c3c:	03030003 	movweq	r0, #12291	; 0x3003
 2001c40:	03000303 	movweq	r0, #771	; 0x303
 2001c44:	03030303 	movweq	r0, #13059	; 0x3303
 2001c48:	03030303 	movweq	r0, #13059	; 0x3303
 2001c4c:	03030303 	movweq	r0, #13059	; 0x3303
 2001c50:	03030303 	movweq	r0, #13059	; 0x3303
 2001c54:	00000003 	andeq	r0, r0, r3
 2001c58:	03030300 	movweq	r0, #13056	; 0x3300
 2001c5c:	03030003 	movweq	r0, #12291	; 0x3003
 2001c60:	03030003 	movweq	r0, #12291	; 0x3003
 2001c64:	00000003 	andeq	r0, r0, r3
 2001c68:	03030000 	movweq	r0, #12288	; 0x3000
 2001c6c:	03030003 	movweq	r0, #12291	; 0x3003
 2001c70:	03000303 	movweq	r0, #771	; 0x303
 2001c74:	03030003 	movweq	r0, #12291	; 0x3003
 2001c78:	03000303 	movweq	r0, #771	; 0x303
 2001c7c:	00000003 	andeq	r0, r0, r3
 2001c80:	03030000 	movweq	r0, #12288	; 0x3000
 2001c84:	03030303 	movweq	r0, #13059	; 0x3303
 2001c88:	03030303 	movweq	r0, #13059	; 0x3303
 2001c8c:	03030303 	movweq	r0, #13059	; 0x3303
 2001c90:	03030303 	movweq	r0, #13059	; 0x3303
 2001c94:	00000303 	andeq	r0, r0, r3, lsl #6
 2001c98:	03030300 	movweq	r0, #13056	; 0x3300
 2001c9c:	03030003 	movweq	r0, #12291	; 0x3003
 2001ca0:	03030003 	movweq	r0, #12291	; 0x3003
 2001ca4:	03030003 	movweq	r0, #12291	; 0x3003
 2001ca8:	03030303 	movweq	r0, #13059	; 0x3303
 2001cac:	03030003 	movweq	r0, #12291	; 0x3003
 2001cb0:	03030303 	movweq	r0, #13059	; 0x3303
 2001cb4:	03030003 	movweq	r0, #12291	; 0x3003
 2001cb8:	03030003 	movweq	r0, #12291	; 0x3003
 2001cbc:	00000303 	andeq	r0, r0, r3, lsl #6
 2001cc0:	03030300 	movweq	r0, #13056	; 0x3300
 2001cc4:	03030303 	movweq	r0, #13059	; 0x3303
 2001cc8:	03030303 	movweq	r0, #13059	; 0x3303
 2001ccc:	03030303 	movweq	r0, #13059	; 0x3303
 2001cd0:	03030303 	movweq	r0, #13059	; 0x3303
 2001cd4:	00000003 	andeq	r0, r0, r3
 2001cd8:	03030300 	movweq	r0, #13056	; 0x3300
 2001cdc:	03030003 	movweq	r0, #12291	; 0x3003
 2001ce0:	03030003 	movweq	r0, #12291	; 0x3003
 2001ce4:	03030003 	movweq	r0, #12291	; 0x3003
 2001ce8:	03000303 	movweq	r0, #771	; 0x303
 2001cec:	03030003 	movweq	r0, #12291	; 0x3003
 2001cf0:	03000303 	movweq	r0, #771	; 0x303
 2001cf4:	03030003 	movweq	r0, #12291	; 0x3003
 2001cf8:	03000303 	movweq	r0, #771	; 0x303
 2001cfc:	00000003 	andeq	r0, r0, r3
 2001d00:	03030000 	movweq	r0, #12288	; 0x3000
 2001d04:	03030303 	movweq	r0, #13059	; 0x3303
 2001d08:	03030303 	movweq	r0, #13059	; 0x3303
 2001d0c:	03030303 	movweq	r0, #13059	; 0x3303
 2001d10:	03030303 	movweq	r0, #13059	; 0x3303
 2001d14:	00000003 	andeq	r0, r0, r3
 2001d18:	03030000 	movweq	r0, #12288	; 0x3000
 2001d1c:	03030003 	movweq	r0, #12291	; 0x3003
 2001d20:	03030303 	movweq	r0, #13059	; 0x3303
 2001d24:	00000003 	andeq	r0, r0, r3
 2001d28:	03030300 	movweq	r0, #13056	; 0x3300
 2001d2c:	03030003 	movweq	r0, #12291	; 0x3003
 2001d30:	03030303 	movweq	r0, #13059	; 0x3303
 2001d34:	03030003 	movweq	r0, #12291	; 0x3003
 2001d38:	03030303 	movweq	r0, #13059	; 0x3303
 2001d3c:	00000003 	andeq	r0, r0, r3
 2001d40:	03030000 	movweq	r0, #12288	; 0x3000
 2001d44:	03030303 	movweq	r0, #13059	; 0x3303
 2001d48:	03030303 	movweq	r0, #13059	; 0x3303
 2001d4c:	03030303 	movweq	r0, #13059	; 0x3303
 2001d50:	03030303 	movweq	r0, #13059	; 0x3303
 2001d54:	00000003 	andeq	r0, r0, r3
 2001d58:	03000000 	movweq	r0, #0
 2001d5c:	03030003 	movweq	r0, #12291	; 0x3003
 2001d60:	03030303 	movweq	r0, #13059	; 0x3303
 2001d64:	00000003 	andeq	r0, r0, r3
 2001d68:	03030300 	movweq	r0, #13056	; 0x3300
 2001d6c:	03030003 	movweq	r0, #12291	; 0x3003
 2001d70:	03030303 	movweq	r0, #13059	; 0x3303
 2001d74:	03030003 	movweq	r0, #12291	; 0x3003
 2001d78:	03030303 	movweq	r0, #13059	; 0x3303
 2001d7c:	03030003 	movweq	r0, #12291	; 0x3003
 2001d80:	03030303 	movweq	r0, #13059	; 0x3303
 2001d84:	03030303 	movweq	r0, #13059	; 0x3303
 2001d88:	03030303 	movweq	r0, #13059	; 0x3303
 2001d8c:	03030303 	movweq	r0, #13059	; 0x3303
 2001d90:	03030303 	movweq	r0, #13059	; 0x3303
 2001d94:	00000303 	andeq	r0, r0, r3, lsl #6
 2001d98:	03030000 	movweq	r0, #12288	; 0x3000
 2001d9c:	03030003 	movweq	r0, #12291	; 0x3003
 2001da0:	03030303 	movweq	r0, #13059	; 0x3303
 2001da4:	03030003 	movweq	r0, #12291	; 0x3003
 2001da8:	03030303 	movweq	r0, #13059	; 0x3303
 2001dac:	03030003 	movweq	r0, #12291	; 0x3003
 2001db0:	03000003 	movweq	r0, #3
 2001db4:	03030003 	movweq	r0, #12291	; 0x3003
 2001db8:	03000303 	movweq	r0, #771	; 0x303
 2001dbc:	00000303 	andeq	r0, r0, r3, lsl #6
 2001dc0:	03030000 	movweq	r0, #12288	; 0x3000
 2001dc4:	03030303 	movweq	r0, #13059	; 0x3303
 2001dc8:	03030303 	movweq	r0, #13059	; 0x3303
 2001dcc:	03030303 	movweq	r0, #13059	; 0x3303
 2001dd0:	03030303 	movweq	r0, #13059	; 0x3303
 2001dd4:	03030003 	movweq	r0, #12291	; 0x3003
 2001dd8:	03000303 	movweq	r0, #771	; 0x303
 2001ddc:	03030003 	movweq	r0, #12291	; 0x3003
 2001de0:	03000303 	movweq	r0, #771	; 0x303
 2001de4:	03030003 	movweq	r0, #12291	; 0x3003
 2001de8:	03000303 	movweq	r0, #771	; 0x303
 2001dec:	00000003 	andeq	r0, r0, r3
 2001df0:	03000000 	movweq	r0, #0
 2001df4:	03030003 	movweq	r0, #12291	; 0x3003
 2001df8:	03000303 	movweq	r0, #771	; 0x303
 2001dfc:	03030003 	movweq	r0, #12291	; 0x3003
 2001e00:	03000303 	movweq	r0, #771	; 0x303
 2001e04:	03030303 	movweq	r0, #13059	; 0x3303
 2001e08:	03030303 	movweq	r0, #13059	; 0x3303
 2001e0c:	03030303 	movweq	r0, #13059	; 0x3303
 2001e10:	03030303 	movweq	r0, #13059	; 0x3303
 2001e14:	00000303 	andeq	r0, r0, r3, lsl #6
 2001e18:	03030300 	movweq	r0, #13056	; 0x3300
 2001e1c:	00030303 	andeq	r0, r3, r3, lsl #6
 2001e20:	03030303 	movweq	r0, #13059	; 0x3303
 2001e24:	00030303 	andeq	r0, r3, r3, lsl #6
 2001e28:	03030303 	movweq	r0, #13059	; 0x3303
 2001e2c:	00030303 	andeq	r0, r3, r3, lsl #6
 2001e30:	03030303 	movweq	r0, #13059	; 0x3303
 2001e34:	00030303 	andeq	r0, r3, r3, lsl #6
 2001e38:	03030303 	movweq	r0, #13059	; 0x3303
 2001e3c:	00000303 	andeq	r0, r0, r3, lsl #6
 2001e40:	03030300 	movweq	r0, #13056	; 0x3300
 2001e44:	03030303 	movweq	r0, #13059	; 0x3303
 2001e48:	03030303 	movweq	r0, #13059	; 0x3303
 2001e4c:	03030303 	movweq	r0, #13059	; 0x3303
 2001e50:	03030303 	movweq	r0, #13059	; 0x3303
 2001e54:	03030303 	movweq	r0, #13059	; 0x3303
 2001e58:	03000000 	movweq	r0, #0
 2001e5c:	03030303 	movweq	r0, #13059	; 0x3303
 2001e60:	03030003 	movweq	r0, #12291	; 0x3003
 2001e64:	03030303 	movweq	r0, #13059	; 0x3303
 2001e68:	03030003 	movweq	r0, #12291	; 0x3003
 2001e6c:	03030003 	movweq	r0, #12291	; 0x3003
 2001e70:	03030003 	movweq	r0, #12291	; 0x3003
 2001e74:	03030003 	movweq	r0, #12291	; 0x3003
 2001e78:	03030003 	movweq	r0, #12291	; 0x3003
 2001e7c:	00000303 	andeq	r0, r0, r3, lsl #6
 2001e80:	03030300 	movweq	r0, #13056	; 0x3300
 2001e84:	03030303 	movweq	r0, #13059	; 0x3303
 2001e88:	03030303 	movweq	r0, #13059	; 0x3303
 2001e8c:	03030303 	movweq	r0, #13059	; 0x3303
 2001e90:	03030303 	movweq	r0, #13059	; 0x3303
 2001e94:	03030003 	movweq	r0, #12291	; 0x3003
 2001e98:	03030003 	movweq	r0, #12291	; 0x3003
 2001e9c:	03030003 	movweq	r0, #12291	; 0x3003
 2001ea0:	03030300 	movweq	r0, #13056	; 0x3300
 2001ea4:	00000003 	andeq	r0, r0, r3
 2001ea8:	03030303 	movweq	r0, #13059	; 0x3303
 2001eac:	00000003 	andeq	r0, r0, r3
 2001eb0:	03030300 	movweq	r0, #13056	; 0x3300
 2001eb4:	03030003 	movweq	r0, #12291	; 0x3003
 2001eb8:	03030003 	movweq	r0, #12291	; 0x3003
 2001ebc:	03030003 	movweq	r0, #12291	; 0x3003
 2001ec0:	03000303 	movweq	r0, #771	; 0x303
 2001ec4:	03030303 	movweq	r0, #13059	; 0x3303
 2001ec8:	03030303 	movweq	r0, #13059	; 0x3303
 2001ecc:	03030303 	movweq	r0, #13059	; 0x3303
 2001ed0:	03030303 	movweq	r0, #13059	; 0x3303
 2001ed4:	03000303 	movweq	r0, #771	; 0x303
 2001ed8:	03030303 	movweq	r0, #13059	; 0x3303
 2001edc:	03000303 	movweq	r0, #771	; 0x303
 2001ee0:	03030303 	movweq	r0, #13059	; 0x3303
 2001ee4:	03000303 	movweq	r0, #771	; 0x303
 2001ee8:	03030303 	movweq	r0, #13059	; 0x3303
 2001eec:	03000303 	movweq	r0, #771	; 0x303
 2001ef0:	03030303 	movweq	r0, #13059	; 0x3303
 2001ef4:	03000303 	movweq	r0, #771	; 0x303
 2001ef8:	03030303 	movweq	r0, #13059	; 0x3303
 2001efc:	00000303 	andeq	r0, r0, r3, lsl #6
 2001f00:	03030000 	movweq	r0, #12288	; 0x3000
 2001f04:	03030303 	movweq	r0, #13059	; 0x3303
 2001f08:	03030303 	movweq	r0, #13059	; 0x3303
 2001f0c:	03030303 	movweq	r0, #13059	; 0x3303
 2001f10:	03030303 	movweq	r0, #13059	; 0x3303
 2001f14:	03030003 	movweq	r0, #12291	; 0x3003
 2001f18:	03000303 	movweq	r0, #771	; 0x303
 2001f1c:	03000003 	movweq	r0, #3
 2001f20:	03000003 	movweq	r0, #3
 2001f24:	00030003 	andeq	r0, r3, r3
 2001f28:	03000300 	movweq	r0, #768	; 0x300
 2001f2c:	03030003 	movweq	r0, #12291	; 0x3003
 2001f30:	03000303 	movweq	r0, #771	; 0x303
 2001f34:	03030003 	movweq	r0, #12291	; 0x3003
 2001f38:	03000303 	movweq	r0, #771	; 0x303
 2001f3c:	03030003 	movweq	r0, #12291	; 0x3003
 2001f40:	03000303 	movweq	r0, #771	; 0x303
 2001f44:	03030303 	movweq	r0, #13059	; 0x3303
 2001f48:	03030303 	movweq	r0, #13059	; 0x3303
 2001f4c:	03030303 	movweq	r0, #13059	; 0x3303
 2001f50:	03030303 	movweq	r0, #13059	; 0x3303
 2001f54:	03030003 	movweq	r0, #12291	; 0x3003
 2001f58:	03000303 	movweq	r0, #771	; 0x303
 2001f5c:	03000003 	movweq	r0, #3
 2001f60:	03000303 	movweq	r0, #771	; 0x303
 2001f64:	00030003 	andeq	r0, r3, r3
 2001f68:	03000303 	movweq	r0, #771	; 0x303
 2001f6c:	03030003 	movweq	r0, #12291	; 0x3003
 2001f70:	03000300 	movweq	r0, #768	; 0x300
 2001f74:	03030003 	movweq	r0, #12291	; 0x3003
 2001f78:	03000003 	movweq	r0, #3
 2001f7c:	03030003 	movweq	r0, #12291	; 0x3003
 2001f80:	03000303 	movweq	r0, #771	; 0x303
 2001f84:	03030303 	movweq	r0, #13059	; 0x3303
 2001f88:	03030303 	movweq	r0, #13059	; 0x3303
 2001f8c:	03030303 	movweq	r0, #13059	; 0x3303
 2001f90:	03030303 	movweq	r0, #13059	; 0x3303
 2001f94:	00000303 	andeq	r0, r0, r3, lsl #6
 2001f98:	03030000 	movweq	r0, #12288	; 0x3000
 2001f9c:	03030003 	movweq	r0, #12291	; 0x3003
 2001fa0:	03000303 	movweq	r0, #771	; 0x303
 2001fa4:	03030003 	movweq	r0, #12291	; 0x3003
 2001fa8:	03000303 	movweq	r0, #771	; 0x303
 2001fac:	03030003 	movweq	r0, #12291	; 0x3003
 2001fb0:	03000303 	movweq	r0, #771	; 0x303
 2001fb4:	03030003 	movweq	r0, #12291	; 0x3003
 2001fb8:	03000303 	movweq	r0, #771	; 0x303
 2001fbc:	00000303 	andeq	r0, r0, r3, lsl #6
 2001fc0:	03030000 	movweq	r0, #12288	; 0x3000
 2001fc4:	03030303 	movweq	r0, #13059	; 0x3303
 2001fc8:	03030303 	movweq	r0, #13059	; 0x3303
 2001fcc:	03030303 	movweq	r0, #13059	; 0x3303
 2001fd0:	03030303 	movweq	r0, #13059	; 0x3303
 2001fd4:	00000003 	andeq	r0, r0, r3
 2001fd8:	03030000 	movweq	r0, #12288	; 0x3000
 2001fdc:	03030003 	movweq	r0, #12291	; 0x3003
 2001fe0:	03000303 	movweq	r0, #771	; 0x303
 2001fe4:	03030003 	movweq	r0, #12291	; 0x3003
 2001fe8:	03000303 	movweq	r0, #771	; 0x303
 2001fec:	00000003 	andeq	r0, r0, r3
 2001ff0:	03030000 	movweq	r0, #12288	; 0x3000
 2001ff4:	03030003 	movweq	r0, #12291	; 0x3003
 2001ff8:	03030303 	movweq	r0, #13059	; 0x3303
 2001ffc:	03030003 	movweq	r0, #12291	; 0x3003
 2002000:	03030303 	movweq	r0, #13059	; 0x3303
 2002004:	03030303 	movweq	r0, #13059	; 0x3303
 2002008:	03030303 	movweq	r0, #13059	; 0x3303
 200200c:	03030303 	movweq	r0, #13059	; 0x3303
 2002010:	03030303 	movweq	r0, #13059	; 0x3303
 2002014:	00000303 	andeq	r0, r0, r3, lsl #6
 2002018:	03030000 	movweq	r0, #12288	; 0x3000
 200201c:	03030003 	movweq	r0, #12291	; 0x3003
 2002020:	03000303 	movweq	r0, #771	; 0x303
 2002024:	03030003 	movweq	r0, #12291	; 0x3003
 2002028:	03000303 	movweq	r0, #771	; 0x303
 200202c:	03030003 	movweq	r0, #12291	; 0x3003
 2002030:	03000300 	movweq	r0, #768	; 0x300
 2002034:	03030003 	movweq	r0, #12291	; 0x3003
 2002038:	03000003 	movweq	r0, #3
 200203c:	00000303 	andeq	r0, r0, r3, lsl #6
 2002040:	03000000 	movweq	r0, #0
 2002044:	03030303 	movweq	r0, #13059	; 0x3303
 2002048:	03030303 	movweq	r0, #13059	; 0x3303
 200204c:	03030303 	movweq	r0, #13059	; 0x3303
 2002050:	03030303 	movweq	r0, #13059	; 0x3303
 2002054:	00000003 	andeq	r0, r0, r3
 2002058:	03030000 	movweq	r0, #12288	; 0x3000
 200205c:	03030003 	movweq	r0, #12291	; 0x3003
 2002060:	03000303 	movweq	r0, #771	; 0x303
 2002064:	03030003 	movweq	r0, #12291	; 0x3003
 2002068:	03000303 	movweq	r0, #771	; 0x303
 200206c:	00000003 	andeq	r0, r0, r3
 2002070:	03030000 	movweq	r0, #12288	; 0x3000
 2002074:	03030003 	movweq	r0, #12291	; 0x3003
 2002078:	03000303 	movweq	r0, #771	; 0x303
 200207c:	03030003 	movweq	r0, #12291	; 0x3003
 2002080:	03000303 	movweq	r0, #771	; 0x303
 2002084:	03030303 	movweq	r0, #13059	; 0x3303
 2002088:	03030303 	movweq	r0, #13059	; 0x3303
 200208c:	03030303 	movweq	r0, #13059	; 0x3303
 2002090:	03030303 	movweq	r0, #13059	; 0x3303
 2002094:	00000303 	andeq	r0, r0, r3, lsl #6
 2002098:	03000000 	movweq	r0, #0
 200209c:	03030003 	movweq	r0, #12291	; 0x3003
 20020a0:	03030303 	movweq	r0, #13059	; 0x3303
 20020a4:	00000303 	andeq	r0, r0, r3, lsl #6
 20020a8:	03030000 	movweq	r0, #12288	; 0x3000
 20020ac:	03030303 	movweq	r0, #13059	; 0x3303
 20020b0:	03000303 	movweq	r0, #771	; 0x303
 20020b4:	03030303 	movweq	r0, #13059	; 0x3303
 20020b8:	03000303 	movweq	r0, #771	; 0x303
 20020bc:	00000003 	andeq	r0, r0, r3
 20020c0:	03030000 	movweq	r0, #12288	; 0x3000
 20020c4:	03030303 	movweq	r0, #13059	; 0x3303
 20020c8:	03030303 	movweq	r0, #13059	; 0x3303
 20020cc:	03030303 	movweq	r0, #13059	; 0x3303
 20020d0:	03030303 	movweq	r0, #13059	; 0x3303
 20020d4:	00000003 	andeq	r0, r0, r3
 20020d8:	03030000 	movweq	r0, #12288	; 0x3000
 20020dc:	00030303 	andeq	r0, r3, r3, lsl #6
 20020e0:	03030303 	movweq	r0, #13059	; 0x3303
 20020e4:	00030303 	andeq	r0, r3, r3, lsl #6
 20020e8:	03030303 	movweq	r0, #13059	; 0x3303
 20020ec:	00030303 	andeq	r0, r3, r3, lsl #6
 20020f0:	03030303 	movweq	r0, #13059	; 0x3303
 20020f4:	00030303 	andeq	r0, r3, r3, lsl #6
 20020f8:	03030303 	movweq	r0, #13059	; 0x3303
 20020fc:	00030303 	andeq	r0, r3, r3, lsl #6
 2002100:	03030303 	movweq	r0, #13059	; 0x3303
 2002104:	03030303 	movweq	r0, #13059	; 0x3303
 2002108:	03030303 	movweq	r0, #13059	; 0x3303
 200210c:	03030303 	movweq	r0, #13059	; 0x3303
 2002110:	03030303 	movweq	r0, #13059	; 0x3303
 2002114:	03030003 	movweq	r0, #12291	; 0x3003
 2002118:	03000303 	movweq	r0, #771	; 0x303
 200211c:	03030003 	movweq	r0, #12291	; 0x3003
 2002120:	03000303 	movweq	r0, #771	; 0x303
 2002124:	03030003 	movweq	r0, #12291	; 0x3003
 2002128:	03000303 	movweq	r0, #771	; 0x303
 200212c:	03030003 	movweq	r0, #12291	; 0x3003
 2002130:	03000303 	movweq	r0, #771	; 0x303
 2002134:	03030003 	movweq	r0, #12291	; 0x3003
 2002138:	03000303 	movweq	r0, #771	; 0x303
 200213c:	00000303 	andeq	r0, r0, r3, lsl #6
 2002140:	03030000 	movweq	r0, #12288	; 0x3000
 2002144:	03030303 	movweq	r0, #13059	; 0x3303
 2002148:	03030303 	movweq	r0, #13059	; 0x3303
 200214c:	03030303 	movweq	r0, #13059	; 0x3303
 2002150:	03030303 	movweq	r0, #13059	; 0x3303
 2002154:	03030003 	movweq	r0, #12291	; 0x3003
 2002158:	03030003 	movweq	r0, #12291	; 0x3003
 200215c:	03030003 	movweq	r0, #12291	; 0x3003
 2002160:	03030003 	movweq	r0, #12291	; 0x3003
 2002164:	03030003 	movweq	r0, #12291	; 0x3003
 2002168:	03030003 	movweq	r0, #12291	; 0x3003
 200216c:	03030003 	movweq	r0, #12291	; 0x3003
 2002170:	03030003 	movweq	r0, #12291	; 0x3003
 2002174:	03000303 	movweq	r0, #771	; 0x303
 2002178:	03030300 	movweq	r0, #13056	; 0x3300
 200217c:	00030303 	andeq	r0, r3, r3, lsl #6
 2002180:	03030303 	movweq	r0, #13059	; 0x3303
 2002184:	03030303 	movweq	r0, #13059	; 0x3303
 2002188:	03030303 	movweq	r0, #13059	; 0x3303
 200218c:	03030303 	movweq	r0, #13059	; 0x3303
 2002190:	03030303 	movweq	r0, #13059	; 0x3303
 2002194:	03030003 	movweq	r0, #12291	; 0x3003
 2002198:	03000303 	movweq	r0, #771	; 0x303
 200219c:	03030003 	movweq	r0, #12291	; 0x3003
 20021a0:	03000303 	movweq	r0, #771	; 0x303
 20021a4:	03030003 	movweq	r0, #12291	; 0x3003
 20021a8:	03000303 	movweq	r0, #771	; 0x303
 20021ac:	00030003 	andeq	r0, r3, r3
 20021b0:	03000300 	movweq	r0, #768	; 0x300
 20021b4:	03000003 	movweq	r0, #3
 20021b8:	03000003 	movweq	r0, #3
 20021bc:	03030003 	movweq	r0, #12291	; 0x3003
 20021c0:	03000303 	movweq	r0, #771	; 0x303
 20021c4:	03030303 	movweq	r0, #13059	; 0x3303
 20021c8:	03030303 	movweq	r0, #13059	; 0x3303
 20021cc:	03030303 	movweq	r0, #13059	; 0x3303
 20021d0:	03030303 	movweq	r0, #13059	; 0x3303
 20021d4:	03030003 	movweq	r0, #12291	; 0x3003
 20021d8:	03000303 	movweq	r0, #771	; 0x303
 20021dc:	03000303 	movweq	r0, #771	; 0x303
 20021e0:	03030003 	movweq	r0, #12291	; 0x3003
 20021e4:	00030303 	andeq	r0, r3, r3, lsl #6
 20021e8:	03030300 	movweq	r0, #13056	; 0x3300
 20021ec:	00030303 	andeq	r0, r3, r3, lsl #6
 20021f0:	03030300 	movweq	r0, #13056	; 0x3300
 20021f4:	03000303 	movweq	r0, #771	; 0x303
 20021f8:	03030003 	movweq	r0, #12291	; 0x3003
 20021fc:	03030003 	movweq	r0, #12291	; 0x3003
 2002200:	03000303 	movweq	r0, #771	; 0x303
 2002204:	03030303 	movweq	r0, #13059	; 0x3303
 2002208:	03030303 	movweq	r0, #13059	; 0x3303
 200220c:	03030303 	movweq	r0, #13059	; 0x3303
 2002210:	03030303 	movweq	r0, #13059	; 0x3303
 2002214:	03030003 	movweq	r0, #12291	; 0x3003
 2002218:	03030003 	movweq	r0, #12291	; 0x3003
 200221c:	03000303 	movweq	r0, #771	; 0x303
 2002220:	03030300 	movweq	r0, #13056	; 0x3300
 2002224:	00030303 	andeq	r0, r3, r3, lsl #6
 2002228:	03030303 	movweq	r0, #13059	; 0x3303
 200222c:	00030303 	andeq	r0, r3, r3, lsl #6
 2002230:	03030303 	movweq	r0, #13059	; 0x3303
 2002234:	00030303 	andeq	r0, r3, r3, lsl #6
 2002238:	03030303 	movweq	r0, #13059	; 0x3303
 200223c:	00030303 	andeq	r0, r3, r3, lsl #6
 2002240:	03030303 	movweq	r0, #13059	; 0x3303
 2002244:	03030303 	movweq	r0, #13059	; 0x3303
 2002248:	03030303 	movweq	r0, #13059	; 0x3303
 200224c:	03030303 	movweq	r0, #13059	; 0x3303
 2002250:	03030303 	movweq	r0, #13059	; 0x3303
 2002254:	00000003 	andeq	r0, r0, r3
 2002258:	03000000 	movweq	r0, #0
 200225c:	03030303 	movweq	r0, #13059	; 0x3303
 2002260:	03030003 	movweq	r0, #12291	; 0x3003
 2002264:	03030303 	movweq	r0, #13059	; 0x3303
 2002268:	03030300 	movweq	r0, #13056	; 0x3300
 200226c:	00030303 	andeq	r0, r3, r3, lsl #6
 2002270:	03030303 	movweq	r0, #13059	; 0x3303
 2002274:	03000303 	movweq	r0, #771	; 0x303
 2002278:	03030303 	movweq	r0, #13059	; 0x3303
 200227c:	00000003 	andeq	r0, r0, r3
 2002280:	03000000 	movweq	r0, #0
 2002284:	03030303 	movweq	r0, #13059	; 0x3303
 2002288:	03030303 	movweq	r0, #13059	; 0x3303
 200228c:	03030303 	movweq	r0, #13059	; 0x3303
 2002290:	03030303 	movweq	r0, #13059	; 0x3303
 2002294:	00000303 	andeq	r0, r0, r3, lsl #6
 2002298:	03030300 	movweq	r0, #13056	; 0x3300
 200229c:	03000303 	movweq	r0, #771	; 0x303
 20022a0:	03030303 	movweq	r0, #13059	; 0x3303
 20022a4:	03000303 	movweq	r0, #771	; 0x303
 20022a8:	03030303 	movweq	r0, #13059	; 0x3303
 20022ac:	03000303 	movweq	r0, #771	; 0x303
 20022b0:	03030303 	movweq	r0, #13059	; 0x3303
 20022b4:	03000303 	movweq	r0, #771	; 0x303
 20022b8:	03030303 	movweq	r0, #13059	; 0x3303
 20022bc:	00000303 	andeq	r0, r0, r3, lsl #6
 20022c0:	03030300 	movweq	r0, #13056	; 0x3300
 20022c4:	03030303 	movweq	r0, #13059	; 0x3303
 20022c8:	03030303 	movweq	r0, #13059	; 0x3303
 20022cc:	03030303 	movweq	r0, #13059	; 0x3303
 20022d0:	03030303 	movweq	r0, #13059	; 0x3303
 20022d4:	03000303 	movweq	r0, #771	; 0x303
 20022d8:	03030303 	movweq	r0, #13059	; 0x3303
 20022dc:	03000303 	movweq	r0, #771	; 0x303
 20022e0:	03030303 	movweq	r0, #13059	; 0x3303
 20022e4:	00030303 	andeq	r0, r3, r3, lsl #6
 20022e8:	03030303 	movweq	r0, #13059	; 0x3303
 20022ec:	00030303 	andeq	r0, r3, r3, lsl #6
 20022f0:	03030303 	movweq	r0, #13059	; 0x3303
 20022f4:	03030303 	movweq	r0, #13059	; 0x3303
 20022f8:	03030300 	movweq	r0, #13056	; 0x3300
 20022fc:	03030303 	movweq	r0, #13059	; 0x3303
 2002300:	03030300 	movweq	r0, #13056	; 0x3300
 2002304:	03030303 	movweq	r0, #13059	; 0x3303
 2002308:	03030303 	movweq	r0, #13059	; 0x3303
 200230c:	03030303 	movweq	r0, #13059	; 0x3303
 2002310:	03030303 	movweq	r0, #13059	; 0x3303
 2002314:	00000303 	andeq	r0, r0, r3, lsl #6
 2002318:	03030300 	movweq	r0, #13056	; 0x3300
 200231c:	03030303 	movweq	r0, #13059	; 0x3303
 2002320:	03030300 	movweq	r0, #13056	; 0x3300
 2002324:	03030303 	movweq	r0, #13059	; 0x3303
 2002328:	03030300 	movweq	r0, #13056	; 0x3300
 200232c:	03030303 	movweq	r0, #13059	; 0x3303
 2002330:	03030300 	movweq	r0, #13056	; 0x3300
 2002334:	03030303 	movweq	r0, #13059	; 0x3303
 2002338:	03030300 	movweq	r0, #13056	; 0x3300
 200233c:	00000303 	andeq	r0, r0, r3, lsl #6
 2002340:	03030300 	movweq	r0, #13056	; 0x3300
 2002344:	03030303 	movweq	r0, #13059	; 0x3303
 2002348:	03030303 	movweq	r0, #13059	; 0x3303
 200234c:	03030303 	movweq	r0, #13059	; 0x3303
 2002350:	03030303 	movweq	r0, #13059	; 0x3303
 2002354:	00030303 	andeq	r0, r3, r3, lsl #6
 2002358:	03030303 	movweq	r0, #13059	; 0x3303
 200235c:	03000303 	movweq	r0, #771	; 0x303
 2002360:	03030300 	movweq	r0, #13056	; 0x3300
 2002364:	03030003 	movweq	r0, #12291	; 0x3003
 2002368:	03030003 	movweq	r0, #12291	; 0x3003
 200236c:	03030303 	movweq	r0, #13059	; 0x3303
 2002370:	03030303 	movweq	r0, #13059	; 0x3303
 2002374:	03030303 	movweq	r0, #13059	; 0x3303
 2002378:	03030303 	movweq	r0, #13059	; 0x3303
 200237c:	03030303 	movweq	r0, #13059	; 0x3303
 2002380:	03030303 	movweq	r0, #13059	; 0x3303
 2002384:	03030303 	movweq	r0, #13059	; 0x3303
 2002388:	03030303 	movweq	r0, #13059	; 0x3303
 200238c:	03030303 	movweq	r0, #13059	; 0x3303
 2002390:	03030303 	movweq	r0, #13059	; 0x3303
 2002394:	03030303 	movweq	r0, #13059	; 0x3303
 2002398:	03030303 	movweq	r0, #13059	; 0x3303
 200239c:	03030303 	movweq	r0, #13059	; 0x3303
 20023a0:	03030303 	movweq	r0, #13059	; 0x3303
 20023a4:	03030303 	movweq	r0, #13059	; 0x3303
 20023a8:	03030303 	movweq	r0, #13059	; 0x3303
 20023ac:	03030303 	movweq	r0, #13059	; 0x3303
 20023b0:	03030303 	movweq	r0, #13059	; 0x3303
 20023b4:	03030303 	movweq	r0, #13059	; 0x3303
 20023b8:	03030303 	movweq	r0, #13059	; 0x3303
 20023bc:	00000003 	andeq	r0, r0, r3
 20023c0:	03000000 	movweq	r0, #0
 20023c4:	03030303 	movweq	r0, #13059	; 0x3303
 20023c8:	03030303 	movweq	r0, #13059	; 0x3303
 20023cc:	03030303 	movweq	r0, #13059	; 0x3303
 20023d0:	03030303 	movweq	r0, #13059	; 0x3303
 20023d4:	00030303 	andeq	r0, r3, r3, lsl #6
 20023d8:	03030303 	movweq	r0, #13059	; 0x3303
 20023dc:	00030303 	andeq	r0, r3, r3, lsl #6
 20023e0:	03030300 	movweq	r0, #13056	; 0x3300
 20023e4:	00030303 	andeq	r0, r3, r3, lsl #6
 20023e8:	03030300 	movweq	r0, #13056	; 0x3300
 20023ec:	03030303 	movweq	r0, #13059	; 0x3303
 20023f0:	03030303 	movweq	r0, #13059	; 0x3303
 20023f4:	03030303 	movweq	r0, #13059	; 0x3303
 20023f8:	03030303 	movweq	r0, #13059	; 0x3303
 20023fc:	03030303 	movweq	r0, #13059	; 0x3303
 2002400:	03030303 	movweq	r0, #13059	; 0x3303
 2002404:	03030303 	movweq	r0, #13059	; 0x3303
 2002408:	03030303 	movweq	r0, #13059	; 0x3303
 200240c:	03030303 	movweq	r0, #13059	; 0x3303
 2002410:	03030303 	movweq	r0, #13059	; 0x3303
 2002414:	03030303 	movweq	r0, #13059	; 0x3303
 2002418:	03030303 	movweq	r0, #13059	; 0x3303
 200241c:	00030303 	andeq	r0, r3, r3, lsl #6
 2002420:	03030300 	movweq	r0, #13056	; 0x3300
 2002424:	03030303 	movweq	r0, #13059	; 0x3303
 2002428:	03030003 	movweq	r0, #12291	; 0x3003
 200242c:	00030303 	andeq	r0, r3, r3, lsl #6
 2002430:	03030000 	movweq	r0, #12288	; 0x3000
 2002434:	03000303 	movweq	r0, #771	; 0x303
 2002438:	03030003 	movweq	r0, #12291	; 0x3003
 200243c:	00030303 	andeq	r0, r3, r3, lsl #6
 2002440:	03000300 	movweq	r0, #768	; 0x300
 2002444:	03030303 	movweq	r0, #13059	; 0x3303
 2002448:	03030303 	movweq	r0, #13059	; 0x3303
 200244c:	03030303 	movweq	r0, #13059	; 0x3303
 2002450:	03030303 	movweq	r0, #13059	; 0x3303
 2002454:	03000303 	movweq	r0, #771	; 0x303
 2002458:	03030303 	movweq	r0, #13059	; 0x3303
 200245c:	03000303 	movweq	r0, #771	; 0x303
 2002460:	03030303 	movweq	r0, #13059	; 0x3303
 2002464:	00000303 	andeq	r0, r0, r3, lsl #6
 2002468:	03030300 	movweq	r0, #13056	; 0x3300
 200246c:	03000303 	movweq	r0, #771	; 0x303
 2002470:	03030003 	movweq	r0, #12291	; 0x3003
 2002474:	03000303 	movweq	r0, #771	; 0x303
 2002478:	03030003 	movweq	r0, #12291	; 0x3003
 200247c:	00000303 	andeq	r0, r0, r3, lsl #6
 2002480:	03030300 	movweq	r0, #13056	; 0x3300
 2002484:	03030303 	movweq	r0, #13059	; 0x3303
 2002488:	03030303 	movweq	r0, #13059	; 0x3303
 200248c:	03030303 	movweq	r0, #13059	; 0x3303
 2002490:	03030303 	movweq	r0, #13059	; 0x3303
 2002494:	03030303 	movweq	r0, #13059	; 0x3303
 2002498:	03030303 	movweq	r0, #13059	; 0x3303
 200249c:	00030303 	andeq	r0, r3, r3, lsl #6
 20024a0:	03030300 	movweq	r0, #13056	; 0x3300
 20024a4:	03000303 	movweq	r0, #771	; 0x303
 20024a8:	03030003 	movweq	r0, #12291	; 0x3003
 20024ac:	03000303 	movweq	r0, #771	; 0x303
 20024b0:	03030303 	movweq	r0, #13059	; 0x3303
 20024b4:	03000303 	movweq	r0, #771	; 0x303
 20024b8:	03030003 	movweq	r0, #12291	; 0x3003
 20024bc:	00030303 	andeq	r0, r3, r3, lsl #6
 20024c0:	03030300 	movweq	r0, #13056	; 0x3300
 20024c4:	03030303 	movweq	r0, #13059	; 0x3303
 20024c8:	03030303 	movweq	r0, #13059	; 0x3303
 20024cc:	03030303 	movweq	r0, #13059	; 0x3303
 20024d0:	03030303 	movweq	r0, #13059	; 0x3303
 20024d4:	03030303 	movweq	r0, #13059	; 0x3303
 20024d8:	03030003 	movweq	r0, #12291	; 0x3003
 20024dc:	03030303 	movweq	r0, #13059	; 0x3303
 20024e0:	03030003 	movweq	r0, #12291	; 0x3003
 20024e4:	00030303 	andeq	r0, r3, r3, lsl #6
 20024e8:	03030000 	movweq	r0, #12288	; 0x3000
 20024ec:	03000303 	movweq	r0, #771	; 0x303
 20024f0:	03030003 	movweq	r0, #12291	; 0x3003
 20024f4:	03000303 	movweq	r0, #771	; 0x303
 20024f8:	03030003 	movweq	r0, #12291	; 0x3003
 20024fc:	00030303 	andeq	r0, r3, r3, lsl #6
 2002500:	03030000 	movweq	r0, #12288	; 0x3000
 2002504:	03030303 	movweq	r0, #13059	; 0x3303
 2002508:	03030303 	movweq	r0, #13059	; 0x3303
 200250c:	03030303 	movweq	r0, #13059	; 0x3303
 2002510:	03030303 	movweq	r0, #13059	; 0x3303
 2002514:	03030303 	movweq	r0, #13059	; 0x3303
 2002518:	03030303 	movweq	r0, #13059	; 0x3303
 200251c:	00030303 	andeq	r0, r3, r3, lsl #6
 2002520:	03030300 	movweq	r0, #13056	; 0x3300
 2002524:	03000303 	movweq	r0, #771	; 0x303
 2002528:	03030003 	movweq	r0, #12291	; 0x3003
 200252c:	00000303 	andeq	r0, r0, r3, lsl #6
 2002530:	03030300 	movweq	r0, #13056	; 0x3300
 2002534:	03000303 	movweq	r0, #771	; 0x303
 2002538:	03030303 	movweq	r0, #13059	; 0x3303
 200253c:	00030303 	andeq	r0, r3, r3, lsl #6
 2002540:	03030000 	movweq	r0, #12288	; 0x3000
 2002544:	03030303 	movweq	r0, #13059	; 0x3303
 2002548:	03030303 	movweq	r0, #13059	; 0x3303
 200254c:	03030303 	movweq	r0, #13059	; 0x3303
 2002550:	03030303 	movweq	r0, #13059	; 0x3303
 2002554:	03030303 	movweq	r0, #13059	; 0x3303
 2002558:	03030300 	movweq	r0, #13056	; 0x3300
 200255c:	00030303 	andeq	r0, r3, r3, lsl #6
 2002560:	03030303 	movweq	r0, #13059	; 0x3303
 2002564:	00000303 	andeq	r0, r0, r3, lsl #6
 2002568:	03030300 	movweq	r0, #13056	; 0x3300
 200256c:	00030303 	andeq	r0, r3, r3, lsl #6
 2002570:	03030303 	movweq	r0, #13059	; 0x3303
 2002574:	00030303 	andeq	r0, r3, r3, lsl #6
 2002578:	03030303 	movweq	r0, #13059	; 0x3303
 200257c:	00030303 	andeq	r0, r3, r3, lsl #6
 2002580:	03030303 	movweq	r0, #13059	; 0x3303
 2002584:	03030303 	movweq	r0, #13059	; 0x3303
 2002588:	03030303 	movweq	r0, #13059	; 0x3303
 200258c:	03030303 	movweq	r0, #13059	; 0x3303
 2002590:	03030303 	movweq	r0, #13059	; 0x3303
 2002594:	00030303 	andeq	r0, r3, r3, lsl #6
 2002598:	03030300 	movweq	r0, #13056	; 0x3300
 200259c:	03000303 	movweq	r0, #771	; 0x303
 20025a0:	03030003 	movweq	r0, #12291	; 0x3003
 20025a4:	03000303 	movweq	r0, #771	; 0x303
 20025a8:	03030003 	movweq	r0, #12291	; 0x3003
 20025ac:	00030303 	andeq	r0, r3, r3, lsl #6
 20025b0:	03030300 	movweq	r0, #13056	; 0x3300
 20025b4:	03030303 	movweq	r0, #13059	; 0x3303
 20025b8:	03030003 	movweq	r0, #12291	; 0x3003
 20025bc:	00000303 	andeq	r0, r0, r3, lsl #6
 20025c0:	03030300 	movweq	r0, #13056	; 0x3300
 20025c4:	03030303 	movweq	r0, #13059	; 0x3303
 20025c8:	03030303 	movweq	r0, #13059	; 0x3303
 20025cc:	03030303 	movweq	r0, #13059	; 0x3303
 20025d0:	03030303 	movweq	r0, #13059	; 0x3303
 20025d4:	03030303 	movweq	r0, #13059	; 0x3303
 20025d8:	03030303 	movweq	r0, #13059	; 0x3303
 20025dc:	03000303 	movweq	r0, #771	; 0x303
 20025e0:	03030303 	movweq	r0, #13059	; 0x3303
 20025e4:	03000303 	movweq	r0, #771	; 0x303
 20025e8:	03030303 	movweq	r0, #13059	; 0x3303
 20025ec:	00000303 	andeq	r0, r0, r3, lsl #6
 20025f0:	03030300 	movweq	r0, #13056	; 0x3300
 20025f4:	03000303 	movweq	r0, #771	; 0x303
 20025f8:	03030003 	movweq	r0, #12291	; 0x3003
 20025fc:	03000303 	movweq	r0, #771	; 0x303
 2002600:	03030003 	movweq	r0, #12291	; 0x3003
 2002604:	03030303 	movweq	r0, #13059	; 0x3303
 2002608:	03030303 	movweq	r0, #13059	; 0x3303
 200260c:	03030303 	movweq	r0, #13059	; 0x3303
 2002610:	03030303 	movweq	r0, #13059	; 0x3303
 2002614:	03030303 	movweq	r0, #13059	; 0x3303
 2002618:	03030303 	movweq	r0, #13059	; 0x3303
 200261c:	00030303 	andeq	r0, r3, r3, lsl #6
 2002620:	03030303 	movweq	r0, #13059	; 0x3303
 2002624:	03030303 	movweq	r0, #13059	; 0x3303
 2002628:	03030303 	movweq	r0, #13059	; 0x3303
 200262c:	00030303 	andeq	r0, r3, r3, lsl #6
 2002630:	03030303 	movweq	r0, #13059	; 0x3303
 2002634:	00030303 	andeq	r0, r3, r3, lsl #6
 2002638:	03030303 	movweq	r0, #13059	; 0x3303
 200263c:	00030303 	andeq	r0, r3, r3, lsl #6
 2002640:	03030303 	movweq	r0, #13059	; 0x3303
 2002644:	03030303 	movweq	r0, #13059	; 0x3303
 2002648:	03030303 	movweq	r0, #13059	; 0x3303
 200264c:	03030303 	movweq	r0, #13059	; 0x3303
 2002650:	03030303 	movweq	r0, #13059	; 0x3303
 2002654:	03030303 	movweq	r0, #13059	; 0x3303
 2002658:	03030303 	movweq	r0, #13059	; 0x3303
 200265c:	00030303 	andeq	r0, r3, r3, lsl #6
 2002660:	03030303 	movweq	r0, #13059	; 0x3303
 2002664:	03030303 	movweq	r0, #13059	; 0x3303
 2002668:	03030303 	movweq	r0, #13059	; 0x3303
 200266c:	00030303 	andeq	r0, r3, r3, lsl #6
 2002670:	03030303 	movweq	r0, #13059	; 0x3303
 2002674:	00030303 	andeq	r0, r3, r3, lsl #6
 2002678:	03030303 	movweq	r0, #13059	; 0x3303
 200267c:	00000303 	andeq	r0, r0, r3, lsl #6
 2002680:	03030303 	movweq	r0, #13059	; 0x3303
 2002684:	03030303 	movweq	r0, #13059	; 0x3303
 2002688:	03030303 	movweq	r0, #13059	; 0x3303
 200268c:	03030303 	movweq	r0, #13059	; 0x3303
 2002690:	03030303 	movweq	r0, #13059	; 0x3303
 2002694:	03000303 	movweq	r0, #771	; 0x303
 2002698:	03030303 	movweq	r0, #13059	; 0x3303
 200269c:	03000303 	movweq	r0, #771	; 0x303
 20026a0:	03030300 	movweq	r0, #13056	; 0x3300
 20026a4:	00000303 	andeq	r0, r0, r3, lsl #6
 20026a8:	03030303 	movweq	r0, #13059	; 0x3303
 20026ac:	03000303 	movweq	r0, #771	; 0x303
 20026b0:	03030303 	movweq	r0, #13059	; 0x3303
 20026b4:	00000303 	andeq	r0, r0, r3, lsl #6
 20026b8:	03030303 	movweq	r0, #13059	; 0x3303
 20026bc:	03000303 	movweq	r0, #771	; 0x303
 20026c0:	03030300 	movweq	r0, #13056	; 0x3300
 20026c4:	03030303 	movweq	r0, #13059	; 0x3303
 20026c8:	03030303 	movweq	r0, #13059	; 0x3303
 20026cc:	03030303 	movweq	r0, #13059	; 0x3303
 20026d0:	03030303 	movweq	r0, #13059	; 0x3303
 20026d4:	03030303 	movweq	r0, #13059	; 0x3303
 20026d8:	03030303 	movweq	r0, #13059	; 0x3303
 20026dc:	00030303 	andeq	r0, r3, r3, lsl #6
 20026e0:	03030303 	movweq	r0, #13059	; 0x3303
 20026e4:	00030303 	andeq	r0, r3, r3, lsl #6
 20026e8:	03030303 	movweq	r0, #13059	; 0x3303
 20026ec:	00030303 	andeq	r0, r3, r3, lsl #6
 20026f0:	03030303 	movweq	r0, #13059	; 0x3303
 20026f4:	00030303 	andeq	r0, r3, r3, lsl #6
 20026f8:	03030303 	movweq	r0, #13059	; 0x3303
 20026fc:	00030303 	andeq	r0, r3, r3, lsl #6
 2002700:	03030303 	movweq	r0, #13059	; 0x3303
 2002704:	03030303 	movweq	r0, #13059	; 0x3303
 2002708:	03030303 	movweq	r0, #13059	; 0x3303
 200270c:	03030303 	movweq	r0, #13059	; 0x3303
 2002710:	03030303 	movweq	r0, #13059	; 0x3303
 2002714:	03030303 	movweq	r0, #13059	; 0x3303
 2002718:	03030303 	movweq	r0, #13059	; 0x3303
 200271c:	03000303 	movweq	r0, #771	; 0x303
 2002720:	03030300 	movweq	r0, #13056	; 0x3300
 2002724:	00030003 	andeq	r0, r3, r3
 2002728:	03030003 	movweq	r0, #12291	; 0x3003
 200272c:	00030003 	andeq	r0, r3, r3
 2002730:	03030003 	movweq	r0, #12291	; 0x3003
 2002734:	00030003 	andeq	r0, r3, r3
 2002738:	03030003 	movweq	r0, #12291	; 0x3003
 200273c:	00030003 	andeq	r0, r3, r3
 2002740:	03030003 	movweq	r0, #12291	; 0x3003
 2002744:	03030303 	movweq	r0, #13059	; 0x3303
 2002748:	03030303 	movweq	r0, #13059	; 0x3303
 200274c:	03030303 	movweq	r0, #13059	; 0x3303
 2002750:	03030303 	movweq	r0, #13059	; 0x3303
 2002754:	03030303 	movweq	r0, #13059	; 0x3303
 2002758:	03030303 	movweq	r0, #13059	; 0x3303
 200275c:	00000303 	andeq	r0, r0, r3, lsl #6
 2002760:	03030300 	movweq	r0, #13056	; 0x3300
 2002764:	03000303 	movweq	r0, #771	; 0x303
 2002768:	03030003 	movweq	r0, #12291	; 0x3003
 200276c:	03000303 	movweq	r0, #771	; 0x303
 2002770:	03030003 	movweq	r0, #12291	; 0x3003
 2002774:	03000303 	movweq	r0, #771	; 0x303
 2002778:	03030003 	movweq	r0, #12291	; 0x3003
 200277c:	03000303 	movweq	r0, #771	; 0x303
 2002780:	03030003 	movweq	r0, #12291	; 0x3003
 2002784:	03030303 	movweq	r0, #13059	; 0x3303
 2002788:	03030303 	movweq	r0, #13059	; 0x3303
 200278c:	03030303 	movweq	r0, #13059	; 0x3303
 2002790:	03030303 	movweq	r0, #13059	; 0x3303
 2002794:	03030303 	movweq	r0, #13059	; 0x3303
 2002798:	03030303 	movweq	r0, #13059	; 0x3303
 200279c:	00030303 	andeq	r0, r3, r3, lsl #6
 20027a0:	03030300 	movweq	r0, #13056	; 0x3300
 20027a4:	03000303 	movweq	r0, #771	; 0x303
 20027a8:	03030003 	movweq	r0, #12291	; 0x3003
 20027ac:	03000303 	movweq	r0, #771	; 0x303
 20027b0:	03030003 	movweq	r0, #12291	; 0x3003
 20027b4:	03000303 	movweq	r0, #771	; 0x303
 20027b8:	03030003 	movweq	r0, #12291	; 0x3003
 20027bc:	00030303 	andeq	r0, r3, r3, lsl #6
 20027c0:	03030300 	movweq	r0, #13056	; 0x3300
 20027c4:	03030303 	movweq	r0, #13059	; 0x3303
 20027c8:	03030303 	movweq	r0, #13059	; 0x3303
 20027cc:	03030303 	movweq	r0, #13059	; 0x3303
 20027d0:	03030303 	movweq	r0, #13059	; 0x3303
 20027d4:	00000303 	andeq	r0, r0, r3, lsl #6
 20027d8:	03030300 	movweq	r0, #13056	; 0x3300
 20027dc:	03000303 	movweq	r0, #771	; 0x303
 20027e0:	03030003 	movweq	r0, #12291	; 0x3003
 20027e4:	03000303 	movweq	r0, #771	; 0x303
 20027e8:	03030003 	movweq	r0, #12291	; 0x3003
 20027ec:	00000303 	andeq	r0, r0, r3, lsl #6
 20027f0:	03030300 	movweq	r0, #13056	; 0x3300
 20027f4:	03000303 	movweq	r0, #771	; 0x303
 20027f8:	03030303 	movweq	r0, #13059	; 0x3303
 20027fc:	03000303 	movweq	r0, #771	; 0x303
 2002800:	03030303 	movweq	r0, #13059	; 0x3303
 2002804:	03030303 	movweq	r0, #13059	; 0x3303
 2002808:	03030303 	movweq	r0, #13059	; 0x3303
 200280c:	03030303 	movweq	r0, #13059	; 0x3303
 2002810:	03030303 	movweq	r0, #13059	; 0x3303
 2002814:	00030303 	andeq	r0, r3, r3, lsl #6
 2002818:	03030000 	movweq	r0, #12288	; 0x3000
 200281c:	03000303 	movweq	r0, #771	; 0x303
 2002820:	03030003 	movweq	r0, #12291	; 0x3003
 2002824:	03000303 	movweq	r0, #771	; 0x303
 2002828:	03030003 	movweq	r0, #12291	; 0x3003
 200282c:	00030303 	andeq	r0, r3, r3, lsl #6
 2002830:	03030000 	movweq	r0, #12288	; 0x3000
 2002834:	03030303 	movweq	r0, #13059	; 0x3303
 2002838:	03030003 	movweq	r0, #12291	; 0x3003
 200283c:	03030303 	movweq	r0, #13059	; 0x3303
 2002840:	03030003 	movweq	r0, #12291	; 0x3003
 2002844:	03030303 	movweq	r0, #13059	; 0x3303
 2002848:	03030303 	movweq	r0, #13059	; 0x3303
 200284c:	03030303 	movweq	r0, #13059	; 0x3303
 2002850:	03030303 	movweq	r0, #13059	; 0x3303
 2002854:	03030303 	movweq	r0, #13059	; 0x3303
 2002858:	03030303 	movweq	r0, #13059	; 0x3303
 200285c:	00030303 	andeq	r0, r3, r3, lsl #6
 2002860:	03030003 	movweq	r0, #12291	; 0x3003
 2002864:	00030303 	andeq	r0, r3, r3, lsl #6
 2002868:	03030300 	movweq	r0, #13056	; 0x3300
 200286c:	00030303 	andeq	r0, r3, r3, lsl #6
 2002870:	03030303 	movweq	r0, #13059	; 0x3303
 2002874:	00030303 	andeq	r0, r3, r3, lsl #6
 2002878:	03030303 	movweq	r0, #13059	; 0x3303
 200287c:	00030303 	andeq	r0, r3, r3, lsl #6
 2002880:	03030303 	movweq	r0, #13059	; 0x3303
 2002884:	03030303 	movweq	r0, #13059	; 0x3303
 2002888:	03030303 	movweq	r0, #13059	; 0x3303
 200288c:	03030303 	movweq	r0, #13059	; 0x3303
 2002890:	03030303 	movweq	r0, #13059	; 0x3303
 2002894:	03030303 	movweq	r0, #13059	; 0x3303
 2002898:	03030303 	movweq	r0, #13059	; 0x3303
 200289c:	00030303 	andeq	r0, r3, r3, lsl #6
 20028a0:	03030000 	movweq	r0, #12288	; 0x3000
 20028a4:	03000303 	movweq	r0, #771	; 0x303
 20028a8:	03030303 	movweq	r0, #13059	; 0x3303
 20028ac:	00000303 	andeq	r0, r0, r3, lsl #6
 20028b0:	03030000 	movweq	r0, #12288	; 0x3000
 20028b4:	03030303 	movweq	r0, #13059	; 0x3303
 20028b8:	03030003 	movweq	r0, #12291	; 0x3003
 20028bc:	00000303 	andeq	r0, r0, r3, lsl #6
 20028c0:	03030300 	movweq	r0, #13056	; 0x3300
 20028c4:	03030303 	movweq	r0, #13059	; 0x3303
 20028c8:	03030303 	movweq	r0, #13059	; 0x3303
 20028cc:	03030303 	movweq	r0, #13059	; 0x3303
 20028d0:	03030303 	movweq	r0, #13059	; 0x3303
 20028d4:	03030303 	movweq	r0, #13059	; 0x3303
 20028d8:	03030303 	movweq	r0, #13059	; 0x3303
 20028dc:	00030303 	andeq	r0, r3, r3, lsl #6
 20028e0:	03030303 	movweq	r0, #13059	; 0x3303
 20028e4:	00000303 	andeq	r0, r0, r3, lsl #6
 20028e8:	03030300 	movweq	r0, #13056	; 0x3300
 20028ec:	00030303 	andeq	r0, r3, r3, lsl #6
 20028f0:	03030303 	movweq	r0, #13059	; 0x3303
 20028f4:	00030303 	andeq	r0, r3, r3, lsl #6
 20028f8:	03030303 	movweq	r0, #13059	; 0x3303
 20028fc:	03030303 	movweq	r0, #13059	; 0x3303
 2002900:	03030300 	movweq	r0, #13056	; 0x3300
 2002904:	03030303 	movweq	r0, #13059	; 0x3303
 2002908:	03030303 	movweq	r0, #13059	; 0x3303
 200290c:	03030303 	movweq	r0, #13059	; 0x3303
 2002910:	03030303 	movweq	r0, #13059	; 0x3303
 2002914:	03030303 	movweq	r0, #13059	; 0x3303
 2002918:	03030303 	movweq	r0, #13059	; 0x3303
 200291c:	03030303 	movweq	r0, #13059	; 0x3303
 2002920:	03030303 	movweq	r0, #13059	; 0x3303
 2002924:	03000303 	movweq	r0, #771	; 0x303
 2002928:	03030003 	movweq	r0, #12291	; 0x3003
 200292c:	03000303 	movweq	r0, #771	; 0x303
 2002930:	03030003 	movweq	r0, #12291	; 0x3003
 2002934:	03000303 	movweq	r0, #771	; 0x303
 2002938:	03030003 	movweq	r0, #12291	; 0x3003
 200293c:	00030303 	andeq	r0, r3, r3, lsl #6
 2002940:	03030300 	movweq	r0, #13056	; 0x3300
 2002944:	03030303 	movweq	r0, #13059	; 0x3303
 2002948:	03030303 	movweq	r0, #13059	; 0x3303
 200294c:	03030303 	movweq	r0, #13059	; 0x3303
 2002950:	03030303 	movweq	r0, #13059	; 0x3303
 2002954:	03030303 	movweq	r0, #13059	; 0x3303
 2002958:	03030303 	movweq	r0, #13059	; 0x3303
 200295c:	03030303 	movweq	r0, #13059	; 0x3303
 2002960:	03030303 	movweq	r0, #13059	; 0x3303
 2002964:	03030003 	movweq	r0, #12291	; 0x3003
 2002968:	03030003 	movweq	r0, #12291	; 0x3003
 200296c:	03030003 	movweq	r0, #12291	; 0x3003
 2002970:	03030003 	movweq	r0, #12291	; 0x3003
 2002974:	03000303 	movweq	r0, #771	; 0x303
 2002978:	03030300 	movweq	r0, #13056	; 0x3300
 200297c:	00030303 	andeq	r0, r3, r3, lsl #6
 2002980:	03030303 	movweq	r0, #13059	; 0x3303
 2002984:	03030303 	movweq	r0, #13059	; 0x3303
 2002988:	03030303 	movweq	r0, #13059	; 0x3303
 200298c:	03030303 	movweq	r0, #13059	; 0x3303
 2002990:	03030303 	movweq	r0, #13059	; 0x3303
 2002994:	03030303 	movweq	r0, #13059	; 0x3303
 2002998:	03030303 	movweq	r0, #13059	; 0x3303
 200299c:	03030303 	movweq	r0, #13059	; 0x3303
 20029a0:	03030303 	movweq	r0, #13059	; 0x3303
 20029a4:	00030003 	andeq	r0, r3, r3
 20029a8:	03030003 	movweq	r0, #12291	; 0x3003
 20029ac:	00030003 	andeq	r0, r3, r3
 20029b0:	03030003 	movweq	r0, #12291	; 0x3003
 20029b4:	00030003 	andeq	r0, r3, r3
 20029b8:	03030003 	movweq	r0, #12291	; 0x3003
 20029bc:	03000303 	movweq	r0, #771	; 0x303
 20029c0:	03030300 	movweq	r0, #13056	; 0x3300
 20029c4:	03030303 	movweq	r0, #13059	; 0x3303
 20029c8:	03030303 	movweq	r0, #13059	; 0x3303
 20029cc:	03030303 	movweq	r0, #13059	; 0x3303
 20029d0:	03030303 	movweq	r0, #13059	; 0x3303
 20029d4:	03030303 	movweq	r0, #13059	; 0x3303
 20029d8:	03030303 	movweq	r0, #13059	; 0x3303
 20029dc:	03030003 	movweq	r0, #12291	; 0x3003
 20029e0:	03030003 	movweq	r0, #12291	; 0x3003
 20029e4:	03000303 	movweq	r0, #771	; 0x303
 20029e8:	03030300 	movweq	r0, #13056	; 0x3300
 20029ec:	00030303 	andeq	r0, r3, r3, lsl #6
 20029f0:	03030303 	movweq	r0, #13059	; 0x3303
 20029f4:	03000303 	movweq	r0, #771	; 0x303
 20029f8:	03030300 	movweq	r0, #13056	; 0x3300
 20029fc:	03030003 	movweq	r0, #12291	; 0x3003
 2002a00:	03030003 	movweq	r0, #12291	; 0x3003
 2002a04:	03030303 	movweq	r0, #13059	; 0x3303
 2002a08:	03030303 	movweq	r0, #13059	; 0x3303
 2002a0c:	03030303 	movweq	r0, #13059	; 0x3303
 2002a10:	03030303 	movweq	r0, #13059	; 0x3303
 2002a14:	03030303 	movweq	r0, #13059	; 0x3303
 2002a18:	03030303 	movweq	r0, #13059	; 0x3303
 2002a1c:	03030003 	movweq	r0, #12291	; 0x3003
 2002a20:	03030003 	movweq	r0, #12291	; 0x3003
 2002a24:	03000303 	movweq	r0, #771	; 0x303
 2002a28:	03030300 	movweq	r0, #13056	; 0x3300
 2002a2c:	00030303 	andeq	r0, r3, r3, lsl #6
 2002a30:	03030303 	movweq	r0, #13059	; 0x3303
 2002a34:	00030303 	andeq	r0, r3, r3, lsl #6
 2002a38:	03030303 	movweq	r0, #13059	; 0x3303
 2002a3c:	00030303 	andeq	r0, r3, r3, lsl #6
 2002a40:	03030303 	movweq	r0, #13059	; 0x3303
 2002a44:	03030303 	movweq	r0, #13059	; 0x3303
 2002a48:	03030303 	movweq	r0, #13059	; 0x3303
 2002a4c:	03030303 	movweq	r0, #13059	; 0x3303
 2002a50:	03030303 	movweq	r0, #13059	; 0x3303
 2002a54:	03030303 	movweq	r0, #13059	; 0x3303
 2002a58:	03030303 	movweq	r0, #13059	; 0x3303
 2002a5c:	00000303 	andeq	r0, r0, r3, lsl #6
 2002a60:	03030300 	movweq	r0, #13056	; 0x3300
 2002a64:	03030303 	movweq	r0, #13059	; 0x3303
 2002a68:	03030300 	movweq	r0, #13056	; 0x3300
 2002a6c:	00030303 	andeq	r0, r3, r3, lsl #6
 2002a70:	03030303 	movweq	r0, #13059	; 0x3303
 2002a74:	03000303 	movweq	r0, #771	; 0x303
 2002a78:	03030303 	movweq	r0, #13059	; 0x3303
 2002a7c:	00000303 	andeq	r0, r0, r3, lsl #6
 2002a80:	03030300 	movweq	r0, #13056	; 0x3300
 2002a84:	03030303 	movweq	r0, #13059	; 0x3303
 2002a88:	03030303 	movweq	r0, #13059	; 0x3303
 2002a8c:	03030303 	movweq	r0, #13059	; 0x3303
 2002a90:	03030303 	movweq	r0, #13059	; 0x3303
 2002a94:	03030303 	movweq	r0, #13059	; 0x3303
 2002a98:	03030300 	movweq	r0, #13056	; 0x3300
 2002a9c:	00030303 	andeq	r0, r3, r3, lsl #6
 2002aa0:	03030303 	movweq	r0, #13059	; 0x3303
 2002aa4:	00030303 	andeq	r0, r3, r3, lsl #6
 2002aa8:	03030303 	movweq	r0, #13059	; 0x3303
 2002aac:	03000303 	movweq	r0, #771	; 0x303
 2002ab0:	03030303 	movweq	r0, #13059	; 0x3303
 2002ab4:	00030303 	andeq	r0, r3, r3, lsl #6
 2002ab8:	03030303 	movweq	r0, #13059	; 0x3303
 2002abc:	00030303 	andeq	r0, r3, r3, lsl #6
 2002ac0:	03030303 	movweq	r0, #13059	; 0x3303
 2002ac4:	03030303 	movweq	r0, #13059	; 0x3303
 2002ac8:	03030300 	movweq	r0, #13056	; 0x3300
 2002acc:	03030303 	movweq	r0, #13059	; 0x3303
 2002ad0:	03030303 	movweq	r0, #13059	; 0x3303
 2002ad4:	00030303 	andeq	r0, r3, r3, lsl #6
 2002ad8:	03030303 	movweq	r0, #13059	; 0x3303
 2002adc:	00030303 	andeq	r0, r3, r3, lsl #6
 2002ae0:	03030303 	movweq	r0, #13059	; 0x3303
 2002ae4:	00030303 	andeq	r0, r3, r3, lsl #6
 2002ae8:	03030303 	movweq	r0, #13059	; 0x3303
 2002aec:	00030303 	andeq	r0, r3, r3, lsl #6
 2002af0:	03030303 	movweq	r0, #13059	; 0x3303
 2002af4:	00030303 	andeq	r0, r3, r3, lsl #6
 2002af8:	03030303 	movweq	r0, #13059	; 0x3303
 2002afc:	00030303 	andeq	r0, r3, r3, lsl #6
 2002b00:	03030303 	movweq	r0, #13059	; 0x3303
 2002b04:	03030303 	movweq	r0, #13059	; 0x3303
 2002b08:	03030303 	movweq	r0, #13059	; 0x3303
 2002b0c:	03030303 	movweq	r0, #13059	; 0x3303
 2002b10:	03030303 	movweq	r0, #13059	; 0x3303
 2002b14:	03000303 	movweq	r0, #771	; 0x303
 2002b18:	03030303 	movweq	r0, #13059	; 0x3303
 2002b1c:	00030303 	andeq	r0, r3, r3, lsl #6
 2002b20:	03030303 	movweq	r0, #13059	; 0x3303
 2002b24:	00030303 	andeq	r0, r3, r3, lsl #6
 2002b28:	03030303 	movweq	r0, #13059	; 0x3303
 2002b2c:	03030303 	movweq	r0, #13059	; 0x3303
 2002b30:	03030300 	movweq	r0, #13056	; 0x3300
 2002b34:	00030303 	andeq	r0, r3, r3, lsl #6
 2002b38:	03030303 	movweq	r0, #13059	; 0x3303
 2002b3c:	00030303 	andeq	r0, r3, r3, lsl #6
 2002b40:	03030303 	movweq	r0, #13059	; 0x3303
 2002b44:	03000303 	movweq	r0, #771	; 0x303
 2002b48:	03030303 	movweq	r0, #13059	; 0x3303
 2002b4c:	03030303 	movweq	r0, #13059	; 0x3303
 2002b50:	03030303 	movweq	r0, #13059	; 0x3303
 2002b54:	03030303 	movweq	r0, #13059	; 0x3303
 2002b58:	03030303 	movweq	r0, #13059	; 0x3303
 2002b5c:	00000303 	andeq	r0, r0, r3, lsl #6
 2002b60:	03030303 	movweq	r0, #13059	; 0x3303
 2002b64:	03030003 	movweq	r0, #12291	; 0x3003
 2002b68:	00030300 	andeq	r0, r3, r0, lsl #6
 2002b6c:	03030303 	movweq	r0, #13059	; 0x3303
 2002b70:	03000003 	movweq	r0, #3
 2002b74:	03030303 	movweq	r0, #13059	; 0x3303
 2002b78:	03030303 	movweq	r0, #13059	; 0x3303
 2002b7c:	03030303 	movweq	r0, #13059	; 0x3303
 2002b80:	03030303 	movweq	r0, #13059	; 0x3303
 2002b84:	03030303 	movweq	r0, #13059	; 0x3303
 2002b88:	03030303 	movweq	r0, #13059	; 0x3303
 2002b8c:	03030303 	movweq	r0, #13059	; 0x3303
 2002b90:	03030303 	movweq	r0, #13059	; 0x3303
 2002b94:	03030303 	movweq	r0, #13059	; 0x3303
 2002b98:	03030303 	movweq	r0, #13059	; 0x3303
 2002b9c:	03030303 	movweq	r0, #13059	; 0x3303
 2002ba0:	03030303 	movweq	r0, #13059	; 0x3303
 2002ba4:	03030303 	movweq	r0, #13059	; 0x3303
 2002ba8:	03030303 	movweq	r0, #13059	; 0x3303
 2002bac:	03030303 	movweq	r0, #13059	; 0x3303
 2002bb0:	03030303 	movweq	r0, #13059	; 0x3303
 2002bb4:	03030303 	movweq	r0, #13059	; 0x3303
 2002bb8:	03030303 	movweq	r0, #13059	; 0x3303
 2002bbc:	03030303 	movweq	r0, #13059	; 0x3303
 2002bc0:	03030303 	movweq	r0, #13059	; 0x3303
 2002bc4:	03030303 	movweq	r0, #13059	; 0x3303
 2002bc8:	03030303 	movweq	r0, #13059	; 0x3303

02002bcc <test_cpu_state>:
 2002bcc:	e3a04730 	mov	r4, #48, 14	; 0xc00000
 2002bd0:	e3a07001 	mov	r7, #1
 2002bd4:	e12fff1e 	bx	r14

02002bd8 <test_cpu_state_thumb>:
 2002bd8:	e3a07002 	mov	r7, #2
 2002bdc:	e12fff1e 	bx	r14

02002be0 <val_CPSR>:
 2002be0:	00000000 	andeq	r0, r0, r0

02002be4 <val_cp15>:
	...

02002c2c <arm9_main>:
 2002c2c:	e10f0000 	mrs	r0, CPSR
 2002c30:	e50f0058 	str	r0, [pc, #-88]	; 2002be0 <val_CPSR>
 2002c34:	ee110f10 	mrc	15, 0, r0, cr1, cr0, {0}
 2002c38:	e50f005c 	str	r0, [pc, #-92]	; 2002be4 <val_cp15>
 2002c3c:	ee120f10 	mrc	15, 0, r0, cr2, cr0, {0}
 2002c40:	e50f0060 	str	r0, [pc, #-96]	; 2002be8 <val_cp15+0x4>
 2002c44:	ee120f30 	mrc	15, 0, r0, cr2, cr0, {1}
 2002c48:	e50f0064 	str	r0, [pc, #-100]	; 2002bec <val_cp15+0x8>
 2002c4c:	ee130f10 	mrc	15, 0, r0, cr3, cr0, {0}
 2002c50:	e50f0068 	str	r0, [pc, #-104]	; 2002bf0 <val_cp15+0xc>
 2002c54:	ee150f10 	mrc	15, 0, r0, cr5, cr0, {0}
 2002c58:	e50f006c 	str	r0, [pc, #-108]	; 2002bf4 <val_cp15+0x10>
 2002c5c:	ee150f30 	mrc	15, 0, r0, cr5, cr0, {1}
 2002c60:	e50f0070 	str	r0, [pc, #-112]	; 2002bf8 <val_cp15+0x14>
 2002c64:	ee150f50 	mrc	15, 0, r0, cr5, cr0, {2}
 2002c68:	e50f0074 	str	r0, [pc, #-116]	; 2002bfc <val_cp15+0x18>
 2002c6c:	ee150f70 	mrc	15, 0, r0, cr5, cr0, {3}
 2002c70:	e50f0078 	str	r0, [pc, #-120]	; 2002c00 <val_cp15+0x1c>
 2002c74:	ee160f10 	mrc	15, 0, r0, cr6, cr0, {0}
 2002c78:	e50f007c 	str	r0, [pc, #-124]	; 2002c04 <val_cp15+0x20>
 2002c7c:	ee160f11 	mrc	15, 0, r0, cr6, cr1, {0}
 2002c80:	e50f0080 	str	r0, [pc, #-128]	; 2002c08 <val_cp15+0x24>
 2002c84:	ee160f12 	mrc	15, 0, r0, cr6, cr2, {0}
 2002c88:	e50f0084 	str	r0, [pc, #-132]	; 2002c0c <val_cp15+0x28>
 2002c8c:	ee160f13 	mrc	15, 0, r0, cr6, cr3, {0}
 2002c90:	e50f0088 	str	r0, [pc, #-136]	; 2002c10 <val_cp15+0x2c>
 2002c94:	ee160f14 	mrc	15, 0, r0, cr6, cr4, {0}
 2002c98:	e50f008c 	str	r0, [pc, #-140]	; 2002c14 <val_cp15+0x30>
 2002c9c:	ee160f15 	mrc	15, 0, r0, cr6, cr5, {0}
 2002ca0:	e50f0090 	str	r0, [pc, #-144]	; 2002c18 <val_cp15+0x34>
 2002ca4:	ee160f16 	mrc	15, 0, r0, cr6, cr6, {0}
 2002ca8:	e50f0094 	str	r0, [pc, #-148]	; 2002c1c <val_cp15+0x38>
 2002cac:	ee160f17 	mrc	15, 0, r0, cr6, cr7, {0}
 2002cb0:	e50f0098 	str	r0, [pc, #-152]	; 2002c20 <val_cp15+0x3c>
 2002cb4:	ee190f11 	mrc	15, 0, r0, cr9, cr1, {0}
 2002cb8:	e50f009c 	str	r0, [pc, #-156]	; 2002c24 <val_cp15+0x40>
 2002cbc:	ee190f31 	mrc	15, 0, r0, cr9, cr1, {1}
 2002cc0:	e50f00a0 	str	r0, [pc, #-160]	; 2002c28 <val_cp15+0x44>
 2002cc4:	eb000005 	bl	2002ce0 <main_post_init+0xc>
 2002cc8:	eb000892 	bl	2004f18 <test_initialstate>
 2002ccc:	ebfff51d 	bl	2000148 <init_iostate>
 2002cd0:	ebfff538 	bl	20001b8 <l_resetIPCSYNC>

02002cd4 <main_post_init>:
 2002cd4:	eb000001 	bl	2002ce0 <main_post_init+0xc>
 2002cd8:	ebfff57c 	bl	20002d0 <cpp_menu>
 2002cdc:	eafffffe 	b	2002cdc <main_post_init+0x8>
 2002ce0:	e10f3000 	mrs	r3, CPSR
 2002ce4:	e1a04003 	mov	r4, r3
 2002ce8:	e3c3301f 	bic	r3, r3, #31
 2002cec:	e3833012 	orr	r3, r3, #18
 2002cf0:	e121f003 	msr	CPSR_c, r3
 2002cf4:	e59fd008 	ldr	r13, [pc, #8]	; 2002d04 <main_post_init+0x30>
 2002cf8:	e121f004 	msr	CPSR_c, r4
 2002cfc:	e59fd004 	ldr	r13, [pc, #4]	; 2002d08 <main_post_init+0x34>
 2002d00:	e12fff1e 	bx	r14
 2002d04:	02004d0c 	andeq	r4, r0, #12, 26	; 0x300
 2002d08:	02003d0c 	andeq	r3, r0, #12, 26	; 0x300
	...

02004d0c <menu_selected>:
 2004d0c:	00000000 	andeq	r0, r0, r0

02004d10 <menu_index>:
 2004d10:	00000000 	andeq	r0, r0, r0
 2004d14:	e59f0084 	ldr	r0, [pc, #132]	; 2004da0 <timeout_rw+0x34>
 2004d18:	e1d010b0 	ldrh	r1, [r0]
 2004d1c:	e3110002 	tst	r1, #2
 2004d20:	1afffffb 	bne	2004d14 <menu_index+0x4>
 2004d24:	e1d010b0 	ldrh	r1, [r0]
 2004d28:	e3110002 	tst	r1, #2
 2004d2c:	0afffffc 	beq	2004d24 <menu_index+0x14>
 2004d30:	eafff7e7 	b	2002cd4 <main_post_init>

02004d34 <fail_test>:
 2004d34:	e52d0004 	push	{r0}		; (str r0, [r13, #-4]!)
 2004d38:	eb000a37 	bl	200761c <disable_trace>
 2004d3c:	e59f0060 	ldr	r0, [pc, #96]	; 2004da4 <timeout_rw+0x38>
 2004d40:	e3a01005 	mov	r1, #5
 2004d44:	e49d2004 	pop	{r2}		; (ldr r2, [r13], #4)
 2004d48:	ebffeed9 	bl	20008b4 <cpp_fail_test>
 2004d4c:	eafffff0 	b	2004d14 <menu_index+0x4>

02004d50 <timeout_test>:
 2004d50:	e52d0004 	push	{r0}		; (str r0, [r13, #-4]!)
 2004d54:	eb000a30 	bl	200761c <disable_trace>
 2004d58:	e59f0048 	ldr	r0, [pc, #72]	; 2004da8 <timeout_rw+0x3c>
 2004d5c:	e3a01008 	mov	r1, #8
 2004d60:	e49d2004 	pop	{r2}		; (ldr r2, [r13], #4)
 2004d64:	ebffeed2 	bl	20008b4 <cpp_fail_test>
 2004d68:	eaffffe9 	b	2004d14 <menu_index+0x4>

02004d6c <timeout_rw>:
 2004d6c:	eb000a2a 	bl	200761c <disable_trace>
 2004d70:	e59f0034 	ldr	r0, [pc, #52]	; 2004dac <timeout_rw+0x40>
 2004d74:	e3a0100c 	mov	r1, #12
 2004d78:	e3e02000 	mvn	r2, #0
 2004d7c:	ebffeecc 	bl	20008b4 <cpp_fail_test>
 2004d80:	eaffffe3 	b	2004d14 <menu_index+0x4>
 2004d84:	4c494146 	stfmie	f4, [r9], {70}	; 0x46
 2004d88:	49540020 	ldmdbmi	r4, {r5}^
 2004d8c:	554f454d 	strbpl	r4, [pc, #-1357]	; 2004847 <main_post_init+0x1b73>
 2004d90:	54002054 	strpl	r2, [r0], #-84	; 0xffffffac
 2004d94:	4f454d49 	svcmi	0x00454d49
 2004d98:	52205455 	eorpl	r5, r0, #1426063360	; 0x55000000
 2004d9c:	0020572f 	eoreq	r5, r0, r15, lsr #14
 2004da0:	04000130 	streq	r0, [r0], #-304	; 0xfffffed0
 2004da4:	02004d84 	andeq	r4, r0, #132, 26	; 0x2100
 2004da8:	02004d8a 	andeq	r4, r0, #8832	; 0x2280
 2004dac:	02004d93 	andeq	r4, r0, #9408	; 0x24c0

02004db0 <txt_buildtime>:
 2004db0:	4c495542 	cfstr64mi	mvdx5, [r9], {66}	; 0x42
 2004db4:	36302054 			; <UNDEFINED> instruction: 0x36302054
 2004db8:	2f32302f 	svccs	0x0032302f
 2004dbc:	31323032 	teqcc	r2, r2, lsr r0
 2004dc0:	3a363120 	bcc	2d91248 <__bss_end__+0xd78ab8>
 2004dc4:	313a3132 	teqcc	r10, r2, lsr r1
 2004dc8:	00000039 	andeq	r0, r0, r9, lsr r0

02004dcc <_Z9check_divPK7DIVtesti>:
 2004dcc:	e92d47f0 	push	{r4, r5, r6, r7, r8, r9, r10, r14}
 2004dd0:	e2519000 	subs	r9, r1, #0
 2004dd4:	d8bd87f0 	pople	{r4, r5, r6, r7, r8, r9, r10, r15}
 2004dd8:	e59f50d4 	ldr	r5, [pc, #212]	; 2004eb4 <_Z9check_divPK7DIVtesti+0xe8>
 2004ddc:	e1a06000 	mov	r6, r0
 2004de0:	e3a08000 	mov	r8, #0
 2004de4:	e3a07301 	mov	r7, #67108864	; 0x4000000
 2004de8:	e5963000 	ldr	r3, [r6]
 2004dec:	e5873290 	str	r3, [r7, #656]	; 0x290
 2004df0:	e5963004 	ldr	r3, [r6, #4]
 2004df4:	e5873294 	str	r3, [r7, #660]	; 0x294
 2004df8:	e5963008 	ldr	r3, [r6, #8]
 2004dfc:	e5873298 	str	r3, [r7, #664]	; 0x298
 2004e00:	e596300c 	ldr	r3, [r6, #12]
 2004e04:	e3a04901 	mov	r4, #16384	; 0x4000
 2004e08:	e587329c 	str	r3, [r7, #668]	; 0x29c
 2004e0c:	ea000001 	b	2004e18 <_Z9check_divPK7DIVtesti+0x4c>
 2004e10:	e2544001 	subs	r4, r4, #1
 2004e14:	0a00001a 	beq	2004e84 <_Z9check_divPK7DIVtesti+0xb8>
 2004e18:	e1d538b0 	ldrh	r3, [r5, #128]	; 0x80
 2004e1c:	e1b037a3 	lsrs	r3, r3, #15
 2004e20:	1afffffa 	bne	2004e10 <_Z9check_divPK7DIVtesti+0x44>
 2004e24:	e59732a0 	ldr	r3, [r7, #672]	; 0x2a0
 2004e28:	e5960010 	ldr	r0, [r6, #16]
 2004e2c:	e59722a4 	ldr	r2, [r7, #676]	; 0x2a4
 2004e30:	e5961014 	ldr	r1, [r6, #20]
 2004e34:	e0503003 	subs	r3, r0, r3
 2004e38:	13a03001 	movne	r3, #1
 2004e3c:	e1510002 	cmp	r1, r2
 2004e40:	e59722a8 	ldr	r2, [r7, #680]	; 0x2a8
 2004e44:	e5961018 	ldr	r1, [r6, #24]
 2004e48:	13833002 	orrne	r3, r3, #2
 2004e4c:	e1510002 	cmp	r1, r2
 2004e50:	e59722ac 	ldr	r2, [r7, #684]	; 0x2ac
 2004e54:	e596101c 	ldr	r1, [r6, #28]
 2004e58:	13833004 	orrne	r3, r3, #4
 2004e5c:	e1510002 	cmp	r1, r2
 2004e60:	0a00000a 	beq	2004e90 <_Z9check_divPK7DIVtesti+0xc4>
 2004e64:	e1d538b0 	ldrh	r3, [r5, #128]	; 0x80
 2004e68:	e1a00008 	mov	r0, r8
 2004e6c:	ebffffb0 	bl	2004d34 <fail_test>
 2004e70:	e2888001 	add	r8, r8, #1
 2004e74:	e1590008 	cmp	r9, r8
 2004e78:	e2866024 	add	r6, r6, #36	; 0x24
 2004e7c:	1affffd9 	bne	2004de8 <_Z9check_divPK7DIVtesti+0x1c>
 2004e80:	e8bd87f0 	pop	{r4, r5, r6, r7, r8, r9, r10, r15}
 2004e84:	e1a00008 	mov	r0, r8
 2004e88:	ebffffb0 	bl	2004d50 <timeout_test>
 2004e8c:	eaffffe1 	b	2004e18 <_Z9check_divPK7DIVtesti+0x4c>
 2004e90:	e1d528b0 	ldrh	r2, [r5, #128]	; 0x80
 2004e94:	e5d61020 	ldrb	r1, [r6, #32]
 2004e98:	e1a02722 	lsr	r2, r2, #14
 2004e9c:	e2022001 	and	r2, r2, #1
 2004ea0:	e1510002 	cmp	r1, r2
 2004ea4:	1affffef 	bne	2004e68 <_Z9check_divPK7DIVtesti+0x9c>
 2004ea8:	e3530000 	cmp	r3, #0
 2004eac:	0affffef 	beq	2004e70 <_Z9check_divPK7DIVtesti+0xa4>
 2004eb0:	eaffffec 	b	2004e68 <_Z9check_divPK7DIVtesti+0x9c>
 2004eb4:	04000200 	streq	r0, [r0], #-512	; 0xfffffe00

02004eb8 <_Z28run_tests_ds_maths_div_32_32v>:
 2004eb8:	e59f3010 	ldr	r3, [pc, #16]	; 2004ed0 <_Z28run_tests_ds_maths_div_32_32v+0x18>
 2004ebc:	e3a02000 	mov	r2, #0
 2004ec0:	e1c328b0 	strh	r2, [r3, #128]	; 0x80
 2004ec4:	e3a0101b 	mov	r1, #27
 2004ec8:	e59f0004 	ldr	r0, [pc, #4]	; 2004ed4 <_Z28run_tests_ds_maths_div_32_32v+0x1c>
 2004ecc:	eaffffbe 	b	2004dcc <_Z9check_divPK7DIVtesti>
 2004ed0:	04000200 	streq	r0, [r0], #-512	; 0xfffffe00
 2004ed4:	02007964 	andeq	r7, r0, #100, 18	; 0x190000

02004ed8 <_Z28run_tests_ds_maths_div_64_32v>:
 2004ed8:	e59f3010 	ldr	r3, [pc, #16]	; 2004ef0 <_Z28run_tests_ds_maths_div_64_32v+0x18>
 2004edc:	e3a02001 	mov	r2, #1
 2004ee0:	e1c328b0 	strh	r2, [r3, #128]	; 0x80
 2004ee4:	e3a01017 	mov	r1, #23
 2004ee8:	e59f0004 	ldr	r0, [pc, #4]	; 2004ef4 <_Z28run_tests_ds_maths_div_64_32v+0x1c>
 2004eec:	eaffffb6 	b	2004dcc <_Z9check_divPK7DIVtesti>
 2004ef0:	04000200 	streq	r0, [r0], #-512	; 0xfffffe00
 2004ef4:	02007d30 	andeq	r7, r0, #48, 26	; 0xc00

02004ef8 <_Z28run_tests_ds_maths_div_64_64v>:
 2004ef8:	e59f3010 	ldr	r3, [pc, #16]	; 2004f10 <_Z28run_tests_ds_maths_div_64_64v+0x18>
 2004efc:	e3a02002 	mov	r2, #2
 2004f00:	e1c328b0 	strh	r2, [r3, #128]	; 0x80
 2004f04:	e3a01014 	mov	r1, #20
 2004f08:	e59f0004 	ldr	r0, [pc, #4]	; 2004f14 <_Z28run_tests_ds_maths_div_64_64v+0x1c>
 2004f0c:	eaffffae 	b	2004dcc <_Z9check_divPK7DIVtesti>
 2004f10:	04000200 	streq	r0, [r0], #-512	; 0xfffffe00
 2004f14:	0200806c 	andeq	r8, r0, #108	; 0x6c

02004f18 <test_initialstate>:
 2004f18:	e52de004 	push	{r14}		; (str r14, [r13, #-4]!)
 2004f1c:	e24dd00c 	sub	r13, r13, #12
 2004f20:	eb0009ca 	bl	2007650 <l_DIC>
 2004f24:	e59f30a0 	ldr	r3, [pc, #160]	; 2004fcc <test_initialstate+0xb4>
 2004f28:	e59f20a0 	ldr	r2, [pc, #160]	; 2004fd0 <test_initialstate+0xb8>
 2004f2c:	e1d318b0 	ldrh	r1, [r3, #128]	; 0x80
 2004f30:	e1c210b0 	strh	r1, [r2]
 2004f34:	e3a0e903 	mov	r14, #49152	; 0xc000
 2004f38:	e1d3c8b4 	ldrh	r12, [r3, #132]	; 0x84
 2004f3c:	e3a01000 	mov	r1, #0
 2004f40:	e1c2c0b2 	strh	r12, [r2, #2]
 2004f44:	e1a00003 	mov	r0, r3
 2004f48:	e1c3e8b4 	strh	r14, [r3, #132]	; 0x84
 2004f4c:	e3a0c641 	mov	r12, #68157440	; 0x4100000
 2004f50:	e1c210b4 	strh	r1, [r2, #4]
 2004f54:	ea000008 	b	2004f7c <test_initialstate+0x64>
 2004f58:	e1d230b4 	ldrh	r3, [r2, #4]
 2004f5c:	e59c1000 	ldr	r1, [r12]
 2004f60:	e2833001 	add	r3, r3, #1
 2004f64:	e1a03803 	lsl	r3, r3, #16
 2004f68:	e1a03823 	lsr	r3, r3, #16
 2004f6c:	e3530014 	cmp	r3, #20
 2004f70:	e1c230b4 	strh	r3, [r2, #4]
 2004f74:	e58d1004 	str	r1, [r13, #4]
 2004f78:	8a000010 	bhi	2004fc0 <test_initialstate+0xa8>
 2004f7c:	e1d038b4 	ldrh	r3, [r0, #132]	; 0x84
 2004f80:	e3130c01 	tst	r3, #256	; 0x100
 2004f84:	0afffff3 	beq	2004f58 <test_initialstate+0x40>
 2004f88:	e3a03301 	mov	r3, #67108864	; 0x4000000
 2004f8c:	e593c208 	ldr	r12, [r3, #520]	; 0x208
 2004f90:	e3a01000 	mov	r1, #0
 2004f94:	e593e210 	ldr	r14, [r3, #528]	; 0x210
 2004f98:	e3e00000 	mvn	r0, #0
 2004f9c:	e582c008 	str	r12, [r2, #8]
 2004fa0:	e593c214 	ldr	r12, [r3, #532]	; 0x214
 2004fa4:	e582c010 	str	r12, [r2, #16]
 2004fa8:	e582e00c 	str	r14, [r2, #12]
 2004fac:	e5831208 	str	r1, [r3, #520]	; 0x208
 2004fb0:	e5831210 	str	r1, [r3, #528]	; 0x210
 2004fb4:	e5830214 	str	r0, [r3, #532]	; 0x214
 2004fb8:	e28dd00c 	add	r13, r13, #12
 2004fbc:	e49df004 	pop	{r15}		; (ldr r15, [r13], #4)
 2004fc0:	e3e03000 	mvn	r3, #0
 2004fc4:	e1c230b4 	strh	r3, [r2, #4]
 2004fc8:	eaffffee 	b	2004f88 <test_initialstate+0x70>
 2004fcc:	04000100 	streq	r0, [r0], #-256	; 0xffffff00
 2004fd0:	02008774 	andeq	r8, r0, #116, 14	; 0x1d00000

02004fd4 <_Z35run_tests_initialstate_ipc_irq_cpsrv>:
 2004fd4:	e92d4070 	push	{r4, r5, r6, r14}
 2004fd8:	e59f2180 	ldr	r2, [pc, #384]	; 2005160 <_Z35run_tests_initialstate_ipc_irq_cpsrv+0x18c>
 2004fdc:	e3a01001 	mov	r1, #1
 2004fe0:	e3a0000f 	mov	r0, #15
 2004fe4:	ebffecab 	bl	2000298 <_Z11draw_stringiiPKc>
 2004fe8:	e59f2174 	ldr	r2, [pc, #372]	; 2005164 <_Z35run_tests_initialstate_ipc_irq_cpsrv+0x190>
 2004fec:	e3a01001 	mov	r1, #1
 2004ff0:	e3a00018 	mov	r0, #24
 2004ff4:	e3a04402 	mov	r4, #33554432	; 0x2000000
 2004ff8:	e59f5168 	ldr	r5, [pc, #360]	; 2005168 <_Z35run_tests_initialstate_ipc_irq_cpsrv+0x194>
 2004ffc:	ebffeca5 	bl	2000298 <_Z11draw_stringiiPKc>
 2005000:	e59f2164 	ldr	r2, [pc, #356]	; 200516c <_Z35run_tests_initialstate_ipc_irq_cpsrv+0x198>
 2005004:	e3a01003 	mov	r1, #3
 2005008:	e3a00002 	mov	r0, #2
 200500c:	ebffeca1 	bl	2000298 <_Z11draw_stringiiPKc>
 2005010:	e5942004 	ldr	r2, [r4, #4]
 2005014:	e3a01003 	mov	r1, #3
 2005018:	e3a00011 	mov	r0, #17
 200501c:	eb000082 	bl	200522c <_Z14draw_hex_valueILi4EEviim>
 2005020:	e1d520b0 	ldrh	r2, [r5]
 2005024:	e3a01003 	mov	r1, #3
 2005028:	e3a0001a 	mov	r0, #26
 200502c:	eb00007e 	bl	200522c <_Z14draw_hex_valueILi4EEviim>
 2005030:	e59f2138 	ldr	r2, [pc, #312]	; 2005170 <_Z35run_tests_initialstate_ipc_irq_cpsrv+0x19c>
 2005034:	e3a01004 	mov	r1, #4
 2005038:	e3a00002 	mov	r0, #2
 200503c:	ebffec95 	bl	2000298 <_Z11draw_stringiiPKc>
 2005040:	e5942008 	ldr	r2, [r4, #8]
 2005044:	e3a01004 	mov	r1, #4
 2005048:	e3a00011 	mov	r0, #17
 200504c:	eb000076 	bl	200522c <_Z14draw_hex_valueILi4EEviim>
 2005050:	e1d520b2 	ldrh	r2, [r5, #2]
 2005054:	e3a01004 	mov	r1, #4
 2005058:	e3a0001a 	mov	r0, #26
 200505c:	eb000072 	bl	200522c <_Z14draw_hex_valueILi4EEviim>
 2005060:	e59f210c 	ldr	r2, [pc, #268]	; 2005174 <_Z35run_tests_initialstate_ipc_irq_cpsrv+0x1a0>
 2005064:	e3a01005 	mov	r1, #5
 2005068:	e3a00002 	mov	r0, #2
 200506c:	ebffec89 	bl	2000298 <_Z11draw_stringiiPKc>
 2005070:	e594200c 	ldr	r2, [r4, #12]
 2005074:	e3a01005 	mov	r1, #5
 2005078:	e3a00011 	mov	r0, #17
 200507c:	eb00006a 	bl	200522c <_Z14draw_hex_valueILi4EEviim>
 2005080:	e1d520b4 	ldrh	r2, [r5, #4]
 2005084:	e3a01005 	mov	r1, #5
 2005088:	e3a0001a 	mov	r0, #26
 200508c:	eb000066 	bl	200522c <_Z14draw_hex_valueILi4EEviim>
 2005090:	e59f20e0 	ldr	r2, [pc, #224]	; 2005178 <_Z35run_tests_initialstate_ipc_irq_cpsrv+0x1a4>
 2005094:	e3a01007 	mov	r1, #7
 2005098:	e3a00002 	mov	r0, #2
 200509c:	ebffec7d 	bl	2000298 <_Z11draw_stringiiPKc>
 20050a0:	e5942010 	ldr	r2, [r4, #16]
 20050a4:	e3a01007 	mov	r1, #7
 20050a8:	e202200f 	and	r2, r2, #15
 20050ac:	e3a00014 	mov	r0, #20
 20050b0:	ebffec5f 	bl	2000234 <_Z9draw_tileiii>
 20050b4:	e5952008 	ldr	r2, [r5, #8]
 20050b8:	e3a01007 	mov	r1, #7
 20050bc:	e202200f 	and	r2, r2, #15
 20050c0:	e3a0001d 	mov	r0, #29
 20050c4:	ebffec5a 	bl	2000234 <_Z9draw_tileiii>
 20050c8:	e59f20ac 	ldr	r2, [pc, #172]	; 200517c <_Z35run_tests_initialstate_ipc_irq_cpsrv+0x1a8>
 20050cc:	e3a01008 	mov	r1, #8
 20050d0:	e3a00002 	mov	r0, #2
 20050d4:	ebffec6f 	bl	2000298 <_Z11draw_stringiiPKc>
 20050d8:	e5942014 	ldr	r2, [r4, #20]
 20050dc:	e3a01008 	mov	r1, #8
 20050e0:	e3a0000d 	mov	r0, #13
 20050e4:	eb00005f 	bl	2005268 <_Z14draw_hex_valueILi8EEviim>
 20050e8:	e595200c 	ldr	r2, [r5, #12]
 20050ec:	e3a01008 	mov	r1, #8
 20050f0:	e3a00016 	mov	r0, #22
 20050f4:	eb00005b 	bl	2005268 <_Z14draw_hex_valueILi8EEviim>
 20050f8:	e59f2080 	ldr	r2, [pc, #128]	; 2005180 <_Z35run_tests_initialstate_ipc_irq_cpsrv+0x1ac>
 20050fc:	e3a01009 	mov	r1, #9
 2005100:	e3a00002 	mov	r0, #2
 2005104:	ebffec63 	bl	2000298 <_Z11draw_stringiiPKc>
 2005108:	e5942018 	ldr	r2, [r4, #24]
 200510c:	e3a01009 	mov	r1, #9
 2005110:	e3a0000d 	mov	r0, #13
 2005114:	eb000053 	bl	2005268 <_Z14draw_hex_valueILi8EEviim>
 2005118:	e5952010 	ldr	r2, [r5, #16]
 200511c:	e3a01009 	mov	r1, #9
 2005120:	e3a00016 	mov	r0, #22
 2005124:	eb00004f 	bl	2005268 <_Z14draw_hex_valueILi8EEviim>
 2005128:	e59f2054 	ldr	r2, [pc, #84]	; 2005184 <_Z35run_tests_initialstate_ipc_irq_cpsrv+0x1b0>
 200512c:	e3a0100b 	mov	r1, #11
 2005130:	e3a00002 	mov	r0, #2
 2005134:	ebffec57 	bl	2000298 <_Z11draw_stringiiPKc>
 2005138:	e594201c 	ldr	r2, [r4, #28]
 200513c:	e3a0100b 	mov	r1, #11
 2005140:	e3a0000d 	mov	r0, #13
 2005144:	eb000047 	bl	2005268 <_Z14draw_hex_valueILi8EEviim>
 2005148:	e59f3038 	ldr	r3, [pc, #56]	; 2005188 <_Z35run_tests_initialstate_ipc_irq_cpsrv+0x1b4>
 200514c:	e3a0100b 	mov	r1, #11
 2005150:	e5932000 	ldr	r2, [r3]
 2005154:	e3a00016 	mov	r0, #22
 2005158:	eb000042 	bl	2005268 <_Z14draw_hex_valueILi8EEviim>
 200515c:	e8bd8070 	pop	{r4, r5, r6, r15}
 2005160:	02008564 	andeq	r8, r0, #100, 10	; 0x19000000
 2005164:	020086b8 	andeq	r8, r0, #184, 12	; 0xb800000
 2005168:	02008774 	andeq	r8, r0, #116, 14	; 0x1d00000
 200516c:	02008624 	andeq	r8, r0, #36, 12	; 0x2400000
 2005170:	020086c0 	andeq	r8, r0, #192, 12	; 0xc000000
 2005174:	020086cc 	andeq	r8, r0, #204, 12	; 0xcc00000
 2005178:	020086d8 	andeq	r8, r0, #216, 12	; 0xd800000
 200517c:	020086dc 	andeq	r8, r0, #220, 12	; 0xdc00000
 2005180:	020086e0 	andeq	r8, r0, #224, 12	; 0xe000000
 2005184:	020085c4 	andeq	r8, r0, #196, 10	; 0x31000000
 2005188:	02002be0 	andeq	r2, r0, #224, 22	; 0x38000

0200518c <_Z27run_tests_initialstate_cp15v>:
 200518c:	e92d41f0 	push	{r4, r5, r6, r7, r8, r14}
 2005190:	e24dd048 	sub	r13, r13, #72	; 0x48
 2005194:	e3a02048 	mov	r2, #72	; 0x48
 2005198:	e59f1084 	ldr	r1, [pc, #132]	; 2005224 <_Z27run_tests_initialstate_cp15v+0x98>
 200519c:	e1a0000d 	mov	r0, r13
 20051a0:	e59f7080 	ldr	r7, [pc, #128]	; 2005228 <_Z27run_tests_initialstate_cp15v+0x9c>
 20051a4:	eb00092d 	bl	2007660 <memcpy>
 20051a8:	e59d2000 	ldr	r2, [r13]
 20051ac:	e3a01001 	mov	r1, #1
 20051b0:	e3a00002 	mov	r0, #2
 20051b4:	ebffec37 	bl	2000298 <_Z11draw_stringiiPKc>
 20051b8:	e4972004 	ldr	r2, [r7], #4
 20051bc:	e3a01001 	mov	r1, #1
 20051c0:	e3a0000a 	mov	r0, #10
 20051c4:	eb000027 	bl	2005268 <_Z14draw_hex_valueILi8EEviim>
 20051c8:	e28d8004 	add	r8, r13, #4
 20051cc:	e3a04000 	mov	r4, #0
 20051d0:	e3a06002 	mov	r6, #2
 20051d4:	ea00000b 	b	2005208 <_Z27run_tests_initialstate_cp15v+0x7c>
 20051d8:	e4982004 	ldr	r2, [r8], #4
 20051dc:	ebffec2d 	bl	2000298 <_Z11draw_stringiiPKc>
 20051e0:	e3c44004 	bic	r4, r4, #4
 20051e4:	e1a01006 	mov	r1, r6
 20051e8:	e4972004 	ldr	r2, [r7], #4
 20051ec:	e3a0000a 	mov	r0, #10
 20051f0:	eb00001c 	bl	2005268 <_Z14draw_hex_valueILi8EEviim>
 20051f4:	e355000f 	cmp	r5, #15
 20051f8:	13540002 	cmpne	r4, #2
 20051fc:	12866001 	addne	r6, r6, #1
 2005200:	02866002 	addeq	r6, r6, #2
 2005204:	e1a04005 	mov	r4, r5
 2005208:	e2845001 	add	r5, r4, #1
 200520c:	e3550012 	cmp	r5, #18
 2005210:	e1a01006 	mov	r1, r6
 2005214:	e3a00002 	mov	r0, #2
 2005218:	1affffee 	bne	20051d8 <_Z27run_tests_initialstate_cp15v+0x4c>
 200521c:	e28dd048 	add	r13, r13, #72	; 0x48
 2005220:	e8bd81f0 	pop	{r4, r5, r6, r7, r8, r15}
 2005224:	0200833c 	andeq	r8, r0, #60, 6	; 0xf0000000
 2005228:	02002be4 	andeq	r2, r0, #228, 22	; 0x39000

0200522c <_Z14draw_hex_valueILi4EEviim>:
 200522c:	e92d41f0 	push	{r4, r5, r6, r7, r8, r14}
 2005230:	e1a07001 	mov	r7, r1
 2005234:	e1a06002 	mov	r6, r2
 2005238:	e1a05000 	mov	r5, r0
 200523c:	e3a0400c 	mov	r4, #12
 2005240:	e1a02436 	lsr	r2, r6, r4
 2005244:	e1a00005 	mov	r0, r5
 2005248:	e1a01007 	mov	r1, r7
 200524c:	e202200f 	and	r2, r2, #15
 2005250:	e2444004 	sub	r4, r4, #4
 2005254:	ebffebf6 	bl	2000234 <_Z9draw_tileiii>
 2005258:	e3740004 	cmn	r4, #4
 200525c:	e2855001 	add	r5, r5, #1
 2005260:	1afffff6 	bne	2005240 <_Z14draw_hex_valueILi4EEviim+0x14>
 2005264:	e8bd81f0 	pop	{r4, r5, r6, r7, r8, r15}

02005268 <_Z14draw_hex_valueILi8EEviim>:
 2005268:	e92d41f0 	push	{r4, r5, r6, r7, r8, r14}
 200526c:	e1a07001 	mov	r7, r1
 2005270:	e1a06002 	mov	r6, r2
 2005274:	e1a05000 	mov	r5, r0
 2005278:	e3a0401c 	mov	r4, #28
 200527c:	e1a02436 	lsr	r2, r6, r4
 2005280:	e1a00005 	mov	r0, r5
 2005284:	e1a01007 	mov	r1, r7
 2005288:	e202200f 	and	r2, r2, #15
 200528c:	e2444004 	sub	r4, r4, #4
 2005290:	ebffebe7 	bl	2000234 <_Z9draw_tileiii>
 2005294:	e3740004 	cmn	r4, #4
 2005298:	e2855001 	add	r5, r5, #1
 200529c:	1afffff6 	bne	200527c <_Z14draw_hex_valueILi8EEviim+0x14>
 20052a0:	e8bd81f0 	pop	{r4, r5, r6, r7, r8, r15}

020052a4 <_Z17run_tests_ipcfifov>:
 20052a4:	e59f3338 	ldr	r3, [pc, #824]	; 20055e4 <_Z17run_tests_ipcfifov+0x340>
 20052a8:	e3a01902 	mov	r1, #32768	; 0x8000
 20052ac:	e3a02b03 	mov	r2, #3072	; 0xc00
 20052b0:	e92d4070 	push	{r4, r5, r6, r14}
 20052b4:	e3a00000 	mov	r0, #0
 20052b8:	e1c318b4 	strh	r1, [r3, #132]	; 0x84
 20052bc:	e1c328b0 	strh	r2, [r3, #128]	; 0x80
 20052c0:	ebffeb8f 	bl	2000104 <_Z17read_from_IPCFIFOi>
 20052c4:	e59f331c 	ldr	r3, [pc, #796]	; 20055e8 <_Z17run_tests_ipcfifov+0x344>
 20052c8:	e1500003 	cmp	r0, r3
 20052cc:	0a000001 	beq	20052d8 <_Z17run_tests_ipcfifov+0x34>
 20052d0:	e3a00001 	mov	r0, #1
 20052d4:	ebfffe96 	bl	2004d34 <fail_test>
 20052d8:	e59f3304 	ldr	r3, [pc, #772]	; 20055e4 <_Z17run_tests_ipcfifov+0x340>
 20052dc:	e3a02000 	mov	r2, #0
 20052e0:	e1c328b0 	strh	r2, [r3, #128]	; 0x80
 20052e4:	e1d338b4 	ldrh	r3, [r3, #132]	; 0x84
 20052e8:	e3130001 	tst	r3, #1
 20052ec:	0a0000b9 	beq	20055d8 <_Z17run_tests_ipcfifov+0x334>
 20052f0:	e59f32ec 	ldr	r3, [pc, #748]	; 20055e4 <_Z17run_tests_ipcfifov+0x340>
 20052f4:	e1d338b4 	ldrh	r3, [r3, #132]	; 0x84
 20052f8:	e3130002 	tst	r3, #2
 20052fc:	1a0000b2 	bne	20055cc <_Z17run_tests_ipcfifov+0x328>
 2005300:	e59f32dc 	ldr	r3, [pc, #732]	; 20055e4 <_Z17run_tests_ipcfifov+0x340>
 2005304:	e1d338b4 	ldrh	r3, [r3, #132]	; 0x84
 2005308:	e3130c01 	tst	r3, #256	; 0x100
 200530c:	0a0000ab 	beq	20055c0 <_Z17run_tests_ipcfifov+0x31c>
 2005310:	e59f32cc 	ldr	r3, [pc, #716]	; 20055e4 <_Z17run_tests_ipcfifov+0x340>
 2005314:	e1d338b4 	ldrh	r3, [r3, #132]	; 0x84
 2005318:	e3130c02 	tst	r3, #512	; 0x200
 200531c:	1a0000a4 	bne	20055b4 <_Z17run_tests_ipcfifov+0x310>
 2005320:	e59f32bc 	ldr	r3, [pc, #700]	; 20055e4 <_Z17run_tests_ipcfifov+0x340>
 2005324:	e1d338b4 	ldrh	r3, [r3, #132]	; 0x84
 2005328:	e3130901 	tst	r3, #16384	; 0x4000
 200532c:	1a00009d 	bne	20055a8 <_Z17run_tests_ipcfifov+0x304>
 2005330:	e3a03301 	mov	r3, #67108864	; 0x4000000
 2005334:	e59f02b0 	ldr	r0, [pc, #688]	; 20055ec <_Z17run_tests_ipcfifov+0x348>
 2005338:	e59f12b0 	ldr	r1, [pc, #688]	; 20055f0 <_Z17run_tests_ipcfifov+0x34c>
 200533c:	e59f22b0 	ldr	r2, [pc, #688]	; 20055f4 <_Z17run_tests_ipcfifov+0x350>
 2005340:	e5830188 	str	r0, [r3, #392]	; 0x188
 2005344:	e59f5298 	ldr	r5, [pc, #664]	; 20055e4 <_Z17run_tests_ipcfifov+0x340>
 2005348:	e5831188 	str	r1, [r3, #392]	; 0x188
 200534c:	e3a04901 	mov	r4, #16384	; 0x4000
 2005350:	e5832188 	str	r2, [r3, #392]	; 0x188
 2005354:	ea000001 	b	2005360 <_Z17run_tests_ipcfifov+0xbc>
 2005358:	e2544001 	subs	r4, r4, #1
 200535c:	0a00005e 	beq	20054dc <_Z17run_tests_ipcfifov+0x238>
 2005360:	e1d538b4 	ldrh	r3, [r5, #132]	; 0x84
 2005364:	e3130c02 	tst	r3, #512	; 0x200
 2005368:	0afffffa 	beq	2005358 <_Z17run_tests_ipcfifov+0xb4>
 200536c:	e1d538b4 	ldrh	r3, [r5, #132]	; 0x84
 2005370:	e3130001 	tst	r3, #1
 2005374:	0a000088 	beq	200559c <_Z17run_tests_ipcfifov+0x2f8>
 2005378:	e59f3264 	ldr	r3, [pc, #612]	; 20055e4 <_Z17run_tests_ipcfifov+0x340>
 200537c:	e1d338b4 	ldrh	r3, [r3, #132]	; 0x84
 2005380:	e3130002 	tst	r3, #2
 2005384:	1a000081 	bne	2005590 <_Z17run_tests_ipcfifov+0x2ec>
 2005388:	e59f3254 	ldr	r3, [pc, #596]	; 20055e4 <_Z17run_tests_ipcfifov+0x340>
 200538c:	e1d338b4 	ldrh	r3, [r3, #132]	; 0x84
 2005390:	e3130c01 	tst	r3, #256	; 0x100
 2005394:	1a00007a 	bne	2005584 <_Z17run_tests_ipcfifov+0x2e0>
 2005398:	e59f3244 	ldr	r3, [pc, #580]	; 20055e4 <_Z17run_tests_ipcfifov+0x340>
 200539c:	e1d338b4 	ldrh	r3, [r3, #132]	; 0x84
 20053a0:	e3130901 	tst	r3, #16384	; 0x4000
 20053a4:	1a000073 	bne	2005578 <_Z17run_tests_ipcfifov+0x2d4>
 20053a8:	e59f6248 	ldr	r6, [pc, #584]	; 20055f8 <_Z17run_tests_ipcfifov+0x354>
 20053ac:	e3a04411 	mov	r4, #285212672	; 0x11000000
 20053b0:	e3a05641 	mov	r5, #68157440	; 0x4100000
 20053b4:	e5953000 	ldr	r3, [r5]
 20053b8:	e28404ef 	add	r0, r4, #-285212672	; 0xef000000
 20053bc:	e1530004 	cmp	r3, r4
 20053c0:	e2800010 	add	r0, r0, #16
 20053c4:	e2844001 	add	r4, r4, #1
 20053c8:	0a000000 	beq	20053d0 <_Z17run_tests_ipcfifov+0x12c>
 20053cc:	ebfffe58 	bl	2004d34 <fail_test>
 20053d0:	e1540006 	cmp	r4, r6
 20053d4:	1afffff6 	bne	20053b4 <_Z17run_tests_ipcfifov+0x110>
 20053d8:	e59f3204 	ldr	r3, [pc, #516]	; 20055e4 <_Z17run_tests_ipcfifov+0x340>
 20053dc:	e1d338b4 	ldrh	r3, [r3, #132]	; 0x84
 20053e0:	e3130001 	tst	r3, #1
 20053e4:	0a000060 	beq	200556c <_Z17run_tests_ipcfifov+0x2c8>
 20053e8:	e59f31f4 	ldr	r3, [pc, #500]	; 20055e4 <_Z17run_tests_ipcfifov+0x340>
 20053ec:	e1d338b4 	ldrh	r3, [r3, #132]	; 0x84
 20053f0:	e3130002 	tst	r3, #2
 20053f4:	1a000059 	bne	2005560 <_Z17run_tests_ipcfifov+0x2bc>
 20053f8:	e59f31e4 	ldr	r3, [pc, #484]	; 20055e4 <_Z17run_tests_ipcfifov+0x340>
 20053fc:	e1d338b4 	ldrh	r3, [r3, #132]	; 0x84
 2005400:	e3130c01 	tst	r3, #256	; 0x100
 2005404:	0a000052 	beq	2005554 <_Z17run_tests_ipcfifov+0x2b0>
 2005408:	e59f31d4 	ldr	r3, [pc, #468]	; 20055e4 <_Z17run_tests_ipcfifov+0x340>
 200540c:	e1d338b4 	ldrh	r3, [r3, #132]	; 0x84
 2005410:	e3130c02 	tst	r3, #512	; 0x200
 2005414:	1a000036 	bne	20054f4 <_Z17run_tests_ipcfifov+0x250>
 2005418:	e59f31c4 	ldr	r3, [pc, #452]	; 20055e4 <_Z17run_tests_ipcfifov+0x340>
 200541c:	e1d338b4 	ldrh	r3, [r3, #132]	; 0x84
 2005420:	e3130901 	tst	r3, #16384	; 0x4000
 2005424:	1a00002f 	bne	20054e8 <_Z17run_tests_ipcfifov+0x244>
 2005428:	e3a03641 	mov	r3, #68157440	; 0x4100000
 200542c:	e5932000 	ldr	r2, [r3]
 2005430:	e59f31c4 	ldr	r3, [pc, #452]	; 20055fc <_Z17run_tests_ipcfifov+0x358>
 2005434:	e1520003 	cmp	r2, r3
 2005438:	0a000001 	beq	2005444 <_Z17run_tests_ipcfifov+0x1a0>
 200543c:	e3a00025 	mov	r0, #37	; 0x25
 2005440:	ebfffe3b 	bl	2004d34 <fail_test>
 2005444:	e59f3198 	ldr	r3, [pc, #408]	; 20055e4 <_Z17run_tests_ipcfifov+0x340>
 2005448:	e1d338b4 	ldrh	r3, [r3, #132]	; 0x84
 200544c:	e3130001 	tst	r3, #1
 2005450:	0a00003c 	beq	2005548 <_Z17run_tests_ipcfifov+0x2a4>
 2005454:	e59f3188 	ldr	r3, [pc, #392]	; 20055e4 <_Z17run_tests_ipcfifov+0x340>
 2005458:	e1d338b4 	ldrh	r3, [r3, #132]	; 0x84
 200545c:	e3130002 	tst	r3, #2
 2005460:	1a000035 	bne	200553c <_Z17run_tests_ipcfifov+0x298>
 2005464:	e59f3178 	ldr	r3, [pc, #376]	; 20055e4 <_Z17run_tests_ipcfifov+0x340>
 2005468:	e1d338b4 	ldrh	r3, [r3, #132]	; 0x84
 200546c:	e3130c01 	tst	r3, #256	; 0x100
 2005470:	0a00002e 	beq	2005530 <_Z17run_tests_ipcfifov+0x28c>
 2005474:	e59f3168 	ldr	r3, [pc, #360]	; 20055e4 <_Z17run_tests_ipcfifov+0x340>
 2005478:	e1d338b4 	ldrh	r3, [r3, #132]	; 0x84
 200547c:	e3130c02 	tst	r3, #512	; 0x200
 2005480:	1a000027 	bne	2005524 <_Z17run_tests_ipcfifov+0x280>
 2005484:	e59f3158 	ldr	r3, [pc, #344]	; 20055e4 <_Z17run_tests_ipcfifov+0x340>
 2005488:	e1d338b4 	ldrh	r3, [r3, #132]	; 0x84
 200548c:	e3130901 	tst	r3, #16384	; 0x4000
 2005490:	0a000020 	beq	2005518 <_Z17run_tests_ipcfifov+0x274>
 2005494:	e59f3148 	ldr	r3, [pc, #328]	; 20055e4 <_Z17run_tests_ipcfifov+0x340>
 2005498:	e59f2160 	ldr	r2, [pc, #352]	; 2005600 <_Z17run_tests_ipcfifov+0x35c>
 200549c:	e1d318b4 	ldrh	r1, [r3, #132]	; 0x84
 20054a0:	e0022001 	and	r2, r2, r1
 20054a4:	e1c328b4 	strh	r2, [r3, #132]	; 0x84
 20054a8:	e1d338b4 	ldrh	r3, [r3, #132]	; 0x84
 20054ac:	e3130901 	tst	r3, #16384	; 0x4000
 20054b0:	0a000015 	beq	200550c <_Z17run_tests_ipcfifov+0x268>
 20054b4:	e59f3128 	ldr	r3, [pc, #296]	; 20055e4 <_Z17run_tests_ipcfifov+0x340>
 20054b8:	e1d328b4 	ldrh	r2, [r3, #132]	; 0x84
 20054bc:	e1c328b4 	strh	r2, [r3, #132]	; 0x84
 20054c0:	e1d338b4 	ldrh	r3, [r3, #132]	; 0x84
 20054c4:	e3130901 	tst	r3, #16384	; 0x4000
 20054c8:	1a00000c 	bne	2005500 <_Z17run_tests_ipcfifov+0x25c>
 20054cc:	e59f3110 	ldr	r3, [pc, #272]	; 20055e4 <_Z17run_tests_ipcfifov+0x340>
 20054d0:	e3a02000 	mov	r2, #0
 20054d4:	e1c328b0 	strh	r2, [r3, #128]	; 0x80
 20054d8:	e8bd8070 	pop	{r4, r5, r6, r15}
 20054dc:	e3a00007 	mov	r0, #7
 20054e0:	ebfffe1a 	bl	2004d50 <timeout_test>
 20054e4:	eaffff9d 	b	2005360 <_Z17run_tests_ipcfifov+0xbc>
 20054e8:	e3a00024 	mov	r0, #36	; 0x24
 20054ec:	ebfffe10 	bl	2004d34 <fail_test>
 20054f0:	eaffffcc 	b	2005428 <_Z17run_tests_ipcfifov+0x184>
 20054f4:	e3a00023 	mov	r0, #35	; 0x23
 20054f8:	ebfffe0d 	bl	2004d34 <fail_test>
 20054fc:	eaffffc5 	b	2005418 <_Z17run_tests_ipcfifov+0x174>
 2005500:	e3a0002c 	mov	r0, #44	; 0x2c
 2005504:	ebfffe0a 	bl	2004d34 <fail_test>
 2005508:	eaffffef 	b	20054cc <_Z17run_tests_ipcfifov+0x228>
 200550c:	e3a0002b 	mov	r0, #43	; 0x2b
 2005510:	ebfffe07 	bl	2004d34 <fail_test>
 2005514:	eaffffe6 	b	20054b4 <_Z17run_tests_ipcfifov+0x210>
 2005518:	e3a0002a 	mov	r0, #42	; 0x2a
 200551c:	ebfffe04 	bl	2004d34 <fail_test>
 2005520:	eaffffdb 	b	2005494 <_Z17run_tests_ipcfifov+0x1f0>
 2005524:	e3a00029 	mov	r0, #41	; 0x29
 2005528:	ebfffe01 	bl	2004d34 <fail_test>
 200552c:	eaffffd4 	b	2005484 <_Z17run_tests_ipcfifov+0x1e0>
 2005530:	e3a00028 	mov	r0, #40	; 0x28
 2005534:	ebfffdfe 	bl	2004d34 <fail_test>
 2005538:	eaffffcd 	b	2005474 <_Z17run_tests_ipcfifov+0x1d0>
 200553c:	e3a00027 	mov	r0, #39	; 0x27
 2005540:	ebfffdfb 	bl	2004d34 <fail_test>
 2005544:	eaffffc6 	b	2005464 <_Z17run_tests_ipcfifov+0x1c0>
 2005548:	e3a00026 	mov	r0, #38	; 0x26
 200554c:	ebfffdf8 	bl	2004d34 <fail_test>
 2005550:	eaffffbf 	b	2005454 <_Z17run_tests_ipcfifov+0x1b0>
 2005554:	e3a00022 	mov	r0, #34	; 0x22
 2005558:	ebfffdf5 	bl	2004d34 <fail_test>
 200555c:	eaffffa9 	b	2005408 <_Z17run_tests_ipcfifov+0x164>
 2005560:	e3a00021 	mov	r0, #33	; 0x21
 2005564:	ebfffdf2 	bl	2004d34 <fail_test>
 2005568:	eaffffa2 	b	20053f8 <_Z17run_tests_ipcfifov+0x154>
 200556c:	e3a00020 	mov	r0, #32
 2005570:	ebfffdef 	bl	2004d34 <fail_test>
 2005574:	eaffff9b 	b	20053e8 <_Z17run_tests_ipcfifov+0x144>
 2005578:	e3a0000b 	mov	r0, #11
 200557c:	ebfffdec 	bl	2004d34 <fail_test>
 2005580:	eaffff88 	b	20053a8 <_Z17run_tests_ipcfifov+0x104>
 2005584:	e3a0000a 	mov	r0, #10
 2005588:	ebfffde9 	bl	2004d34 <fail_test>
 200558c:	eaffff81 	b	2005398 <_Z17run_tests_ipcfifov+0xf4>
 2005590:	e3a00009 	mov	r0, #9
 2005594:	ebfffde6 	bl	2004d34 <fail_test>
 2005598:	eaffff7a 	b	2005388 <_Z17run_tests_ipcfifov+0xe4>
 200559c:	e3a00008 	mov	r0, #8
 20055a0:	ebfffde3 	bl	2004d34 <fail_test>
 20055a4:	eaffff73 	b	2005378 <_Z17run_tests_ipcfifov+0xd4>
 20055a8:	e3a00006 	mov	r0, #6
 20055ac:	ebfffde0 	bl	2004d34 <fail_test>
 20055b0:	eaffff5e 	b	2005330 <_Z17run_tests_ipcfifov+0x8c>
 20055b4:	e3a00005 	mov	r0, #5
 20055b8:	ebfffddd 	bl	2004d34 <fail_test>
 20055bc:	eaffff57 	b	2005320 <_Z17run_tests_ipcfifov+0x7c>
 20055c0:	e3a00004 	mov	r0, #4
 20055c4:	ebfffdda 	bl	2004d34 <fail_test>
 20055c8:	eaffff50 	b	2005310 <_Z17run_tests_ipcfifov+0x6c>
 20055cc:	e3a00003 	mov	r0, #3
 20055d0:	ebfffdd7 	bl	2004d34 <fail_test>
 20055d4:	eaffff49 	b	2005300 <_Z17run_tests_ipcfifov+0x5c>
 20055d8:	e3a00002 	mov	r0, #2
 20055dc:	ebfffdd4 	bl	2004d34 <fail_test>
 20055e0:	eaffff42 	b	20052f0 <_Z17run_tests_ipcfifov+0x4c>
 20055e4:	04000100 	streq	r0, [r0], #-256	; 0xffffff00
 20055e8:	12345678 	eorsne	r5, r4, #120, 12	; 0x7800000
 20055ec:	1844ccab 	stmdane	r4, {r0, r1, r3, r5, r7, r10, r11, r14, r15}^
 20055f0:	b914a201 	ldmdblt	r4, {r0, r9, r13, r15}
 20055f4:	1844ccac 	stmdane	r4, {r2, r3, r5, r7, r10, r11, r14, r15}^
 20055f8:	11000010 	tstne	r0, r0, lsl r0
 20055fc:	1100000f 	tstne	r0, r15
 2005600:	0000bfff 	strdeq	r11, [r0], -r15	; <UNPREDICTABLE>
 2005604:	e3a02301 	mov	r2, #67108864	; 0x4000000
 2005608:	e3a01701 	mov	r1, #262144	; 0x40000
 200560c:	e3a03641 	mov	r3, #68157440	; 0x4100000
 2005610:	e5821214 	str	r1, [r2, #532]	; 0x214
 2005614:	e5933000 	ldr	r3, [r3]
 2005618:	e3530c81 	cmp	r3, #33024	; 0x8100
 200561c:	059f3008 	ldreq	r3, [pc, #8]	; 200562c <_Z17run_tests_ipcfifov+0x388>
 2005620:	03a0200d 	moveq	r2, #13
 2005624:	05832000 	streq	r2, [r3]
 2005628:	e12fff1e 	bx	r14
 200562c:	02008788 	andeq	r8, r0, #136, 14	; 0x2200000

02005630 <_Z21run_tests_ipcfifo_irqv>:
 2005630:	e92d4070 	push	{r4, r5, r6, r14}
 2005634:	e59f6094 	ldr	r6, [pc, #148]	; 20056d0 <_Z21run_tests_ipcfifo_irqv+0xa0>
 2005638:	e3a03301 	mov	r3, #67108864	; 0x4000000
 200563c:	e59f1090 	ldr	r1, [pc, #144]	; 20056d4 <_Z21run_tests_ipcfifo_irqv+0xa4>
 2005640:	e3a04701 	mov	r4, #262144	; 0x40000
 2005644:	e3a02b21 	mov	r2, #33792	; 0x8400
 2005648:	e5834214 	str	r4, [r3, #532]	; 0x214
 200564c:	e59f0084 	ldr	r0, [pc, #132]	; 20056d8 <_Z21run_tests_ipcfifo_irqv+0xa8>
 2005650:	e5834210 	str	r4, [r3, #528]	; 0x210
 2005654:	e1c628b4 	strh	r2, [r6, #132]	; 0x84
 2005658:	e3a02001 	mov	r2, #1
 200565c:	e5810ffc 	str	r0, [r1, #4092]	; 0xffc
 2005660:	e59f5074 	ldr	r5, [pc, #116]	; 20056dc <_Z21run_tests_ipcfifo_irqv+0xac>
 2005664:	e5832208 	str	r2, [r3, #520]	; 0x208
 2005668:	eb0007f4 	bl	2007640 <l_EIC>
 200566c:	e3a02058 	mov	r2, #88	; 0x58
 2005670:	e3a03c0b 	mov	r3, #2816	; 0xb00
 2005674:	e5852000 	str	r2, [r5]
 2005678:	e1c638b0 	strh	r3, [r6, #128]	; 0x80
 200567c:	ea000001 	b	2005688 <_Z21run_tests_ipcfifo_irqv+0x58>
 2005680:	e2544001 	subs	r4, r4, #1
 2005684:	0a00000e 	beq	20056c4 <_Z21run_tests_ipcfifo_irqv+0x94>
 2005688:	e5953000 	ldr	r3, [r5]
 200568c:	e353000d 	cmp	r3, #13
 2005690:	1afffffa 	bne	2005680 <_Z21run_tests_ipcfifo_irqv+0x50>
 2005694:	e59f1034 	ldr	r1, [pc, #52]	; 20056d0 <_Z21run_tests_ipcfifo_irqv+0xa0>
 2005698:	e3a03000 	mov	r3, #0
 200569c:	e3a02301 	mov	r2, #67108864	; 0x4000000
 20056a0:	e1c138b0 	strh	r3, [r1, #128]	; 0x80
 20056a4:	e3a00001 	mov	r0, #1
 20056a8:	e5823208 	str	r3, [r2, #520]	; 0x208
 20056ac:	ebffea94 	bl	2000104 <_Z17read_from_IPCFIFOi>
 20056b0:	e3500ea5 	cmp	r0, #2640	; 0xa50
 20056b4:	08bd8070 	popeq	{r4, r5, r6, r15}
 20056b8:	e3a00002 	mov	r0, #2
 20056bc:	e8bd4070 	pop	{r4, r5, r6, r14}
 20056c0:	eafffd9b 	b	2004d34 <fail_test>
 20056c4:	e1a00004 	mov	r0, r4
 20056c8:	ebfffda0 	bl	2004d50 <timeout_test>
 20056cc:	eaffffed 	b	2005688 <_Z21run_tests_ipcfifo_irqv+0x58>
 20056d0:	04000100 	streq	r0, [r0], #-256	; 0xffffff00
 20056d4:	00803000 	addeq	r3, r0, r0
 20056d8:	02005604 	andeq	r5, r0, #4, 12	; 0x400000
 20056dc:	02008788 	andeq	r8, r0, #136, 14	; 0x2200000
 20056e0:	e59f3020 	ldr	r3, [pc, #32]	; 2005708 <_Z21run_tests_ipcfifo_irqv+0xd8>
 20056e4:	e3a02301 	mov	r2, #67108864	; 0x4000000
 20056e8:	e3a01801 	mov	r1, #65536	; 0x10000
 20056ec:	e5821214 	str	r1, [r2, #532]	; 0x214
 20056f0:	e1d338b0 	ldrh	r3, [r3, #128]	; 0x80
 20056f4:	e313000f 	tst	r3, #15
 20056f8:	059f300c 	ldreq	r3, [pc, #12]	; 200570c <_Z21run_tests_ipcfifo_irqv+0xdc>
 20056fc:	03a0207b 	moveq	r2, #123	; 0x7b
 2005700:	05832000 	streq	r2, [r3]
 2005704:	e12fff1e 	bx	r14
 2005708:	04000100 	streq	r0, [r0], #-256	; 0xffffff00
 200570c:	0200878c 	andeq	r8, r0, #140, 14	; 0x2300000

02005710 <_Z18wait_ipcsync_valueii>:
 2005710:	e92d41f0 	push	{r4, r5, r6, r7, r8, r14}
 2005714:	e59f602c 	ldr	r6, [pc, #44]	; 2005748 <_Z18wait_ipcsync_valueii+0x38>
 2005718:	e1a05000 	mov	r5, r0
 200571c:	e1a07001 	mov	r7, r1
 2005720:	e3a04901 	mov	r4, #16384	; 0x4000
 2005724:	e1d638b0 	ldrh	r3, [r6, #128]	; 0x80
 2005728:	e203300f 	and	r3, r3, #15
 200572c:	e1530005 	cmp	r3, r5
 2005730:	08bd81f0 	popeq	{r4, r5, r6, r7, r8, r15}
 2005734:	e2544001 	subs	r4, r4, #1
 2005738:	1afffff9 	bne	2005724 <_Z18wait_ipcsync_valueii+0x14>
 200573c:	e1a00007 	mov	r0, r7
 2005740:	ebfffd82 	bl	2004d50 <timeout_test>
 2005744:	eafffff6 	b	2005724 <_Z18wait_ipcsync_valueii+0x14>
 2005748:	04000100 	streq	r0, [r0], #-256	; 0xffffff00

0200574c <_Z17run_tests_ipcsyncv>:
 200574c:	e59f312c 	ldr	r3, [pc, #300]	; 2005880 <_Z17run_tests_ipcsyncv+0x134>
 2005750:	e3a02c0d 	mov	r2, #3328	; 0xd00
 2005754:	e92d4070 	push	{r4, r5, r6, r14}
 2005758:	e1a05003 	mov	r5, r3
 200575c:	e3a04901 	mov	r4, #16384	; 0x4000
 2005760:	e1c328b0 	strh	r2, [r3, #128]	; 0x80
 2005764:	ea000001 	b	2005770 <_Z17run_tests_ipcsyncv+0x24>
 2005768:	e2544001 	subs	r4, r4, #1
 200576c:	0a000037 	beq	2005850 <_Z17run_tests_ipcsyncv+0x104>
 2005770:	e1d538b0 	ldrh	r3, [r5, #128]	; 0x80
 2005774:	e203300f 	and	r3, r3, #15
 2005778:	e3530004 	cmp	r3, #4
 200577c:	1afffff9 	bne	2005768 <_Z17run_tests_ipcsyncv+0x1c>
 2005780:	e3a03c05 	mov	r3, #1280	; 0x500
 2005784:	e59f60f4 	ldr	r6, [pc, #244]	; 2005880 <_Z17run_tests_ipcsyncv+0x134>
 2005788:	e3a04901 	mov	r4, #16384	; 0x4000
 200578c:	e1c538b0 	strh	r3, [r5, #128]	; 0x80
 2005790:	ea000001 	b	200579c <_Z17run_tests_ipcsyncv+0x50>
 2005794:	e2544001 	subs	r4, r4, #1
 2005798:	0a00002f 	beq	200585c <_Z17run_tests_ipcsyncv+0x110>
 200579c:	e1d638b0 	ldrh	r3, [r6, #128]	; 0x80
 20057a0:	e203300f 	and	r3, r3, #15
 20057a4:	e3530007 	cmp	r3, #7
 20057a8:	1afffff9 	bne	2005794 <_Z17run_tests_ipcsyncv+0x48>
 20057ac:	e3a00a01 	mov	r0, #4096	; 0x1000
 20057b0:	eb00079f 	bl	2007634 <wait_busy>
 20057b4:	e3a03c29 	mov	r3, #10496	; 0x2900
 20057b8:	e59f50c0 	ldr	r5, [pc, #192]	; 2005880 <_Z17run_tests_ipcsyncv+0x134>
 20057bc:	e3a04901 	mov	r4, #16384	; 0x4000
 20057c0:	e1c638b0 	strh	r3, [r6, #128]	; 0x80
 20057c4:	ea000001 	b	20057d0 <_Z17run_tests_ipcsyncv+0x84>
 20057c8:	e2544001 	subs	r4, r4, #1
 20057cc:	0a000025 	beq	2005868 <_Z17run_tests_ipcsyncv+0x11c>
 20057d0:	e1d538b0 	ldrh	r3, [r5, #128]	; 0x80
 20057d4:	e203300f 	and	r3, r3, #15
 20057d8:	e353000b 	cmp	r3, #11
 20057dc:	1afffff9 	bne	20057c8 <_Z17run_tests_ipcsyncv+0x7c>
 20057e0:	e59f609c 	ldr	r6, [pc, #156]	; 2005884 <_Z17run_tests_ipcsyncv+0x138>
 20057e4:	e3a0204d 	mov	r2, #77	; 0x4d
 20057e8:	e3a03901 	mov	r3, #16384	; 0x4000
 20057ec:	e5862000 	str	r2, [r6]
 20057f0:	e1c538b0 	strh	r3, [r5, #128]	; 0x80
 20057f4:	eb000791 	bl	2007640 <l_EIC>
 20057f8:	e59f1088 	ldr	r1, [pc, #136]	; 2005888 <_Z17run_tests_ipcsyncv+0x13c>
 20057fc:	e59f0088 	ldr	r0, [pc, #136]	; 200588c <_Z17run_tests_ipcsyncv+0x140>
 2005800:	e5810ffc 	str	r0, [r1, #4092]	; 0xffc
 2005804:	e3a02801 	mov	r2, #65536	; 0x10000
 2005808:	e3a03301 	mov	r3, #67108864	; 0x4000000
 200580c:	e3a01001 	mov	r1, #1
 2005810:	e5832214 	str	r2, [r3, #532]	; 0x214
 2005814:	e1a04002 	mov	r4, r2
 2005818:	e5832210 	str	r2, [r3, #528]	; 0x210
 200581c:	e5831208 	str	r1, [r3, #520]	; 0x208
 2005820:	ea000001 	b	200582c <_Z17run_tests_ipcsyncv+0xe0>
 2005824:	e2544001 	subs	r4, r4, #1
 2005828:	0a000011 	beq	2005874 <_Z17run_tests_ipcsyncv+0x128>
 200582c:	e5963000 	ldr	r3, [r6]
 2005830:	e353007b 	cmp	r3, #123	; 0x7b
 2005834:	1afffffa 	bne	2005824 <_Z17run_tests_ipcsyncv+0xd8>
 2005838:	e59f2040 	ldr	r2, [pc, #64]	; 2005880 <_Z17run_tests_ipcsyncv+0x134>
 200583c:	e3a03000 	mov	r3, #0
 2005840:	e3a01301 	mov	r1, #67108864	; 0x4000000
 2005844:	e5813208 	str	r3, [r1, #520]	; 0x208
 2005848:	e1c238b0 	strh	r3, [r2, #128]	; 0x80
 200584c:	e8bd8070 	pop	{r4, r5, r6, r15}
 2005850:	e1a00004 	mov	r0, r4
 2005854:	ebfffd3d 	bl	2004d50 <timeout_test>
 2005858:	eaffffc4 	b	2005770 <_Z17run_tests_ipcsyncv+0x24>
 200585c:	e3a00001 	mov	r0, #1
 2005860:	ebfffd3a 	bl	2004d50 <timeout_test>
 2005864:	eaffffcc 	b	200579c <_Z17run_tests_ipcsyncv+0x50>
 2005868:	e3a00002 	mov	r0, #2
 200586c:	ebfffd37 	bl	2004d50 <timeout_test>
 2005870:	eaffffd6 	b	20057d0 <_Z17run_tests_ipcsyncv+0x84>
 2005874:	e3a00003 	mov	r0, #3
 2005878:	ebfffd34 	bl	2004d50 <timeout_test>
 200587c:	eaffffea 	b	200582c <_Z17run_tests_ipcsyncv+0xe0>
 2005880:	04000100 	streq	r0, [r0], #-256	; 0xffffff00
 2005884:	0200878c 	andeq	r8, r0, #140, 14	; 0x2300000
 2005888:	00803000 	addeq	r3, r0, r0
 200588c:	020056e0 	andeq	r5, r0, #224, 12	; 0xe000000

02005890 <_Z10check_sqrtPK8SQRTtesti>:
 2005890:	e92d47f0 	push	{r4, r5, r6, r7, r8, r9, r10, r14}
 2005894:	e2519000 	subs	r9, r1, #0
 2005898:	d8bd87f0 	pople	{r4, r5, r6, r7, r8, r9, r10, r15}
 200589c:	e59f506c 	ldr	r5, [pc, #108]	; 2005910 <_Z10check_sqrtPK8SQRTtesti+0x80>
 20058a0:	e1a06000 	mov	r6, r0
 20058a4:	e3a07000 	mov	r7, #0
 20058a8:	e3a08301 	mov	r8, #67108864	; 0x4000000
 20058ac:	e5963000 	ldr	r3, [r6]
 20058b0:	e58832b8 	str	r3, [r8, #696]	; 0x2b8
 20058b4:	e5963004 	ldr	r3, [r6, #4]
 20058b8:	e3a04901 	mov	r4, #16384	; 0x4000
 20058bc:	e58832bc 	str	r3, [r8, #700]	; 0x2bc
 20058c0:	ea000001 	b	20058cc <_Z10check_sqrtPK8SQRTtesti+0x3c>
 20058c4:	e2544001 	subs	r4, r4, #1
 20058c8:	0a00000d 	beq	2005904 <_Z10check_sqrtPK8SQRTtesti+0x74>
 20058cc:	e1d53bb0 	ldrh	r3, [r5, #176]	; 0xb0
 20058d0:	e1b037a3 	lsrs	r3, r3, #15
 20058d4:	1afffffa 	bne	20058c4 <_Z10check_sqrtPK8SQRTtesti+0x34>
 20058d8:	e59832b4 	ldr	r3, [r8, #692]	; 0x2b4
 20058dc:	e5962008 	ldr	r2, [r6, #8]
 20058e0:	e1520003 	cmp	r2, r3
 20058e4:	0a000001 	beq	20058f0 <_Z10check_sqrtPK8SQRTtesti+0x60>
 20058e8:	e1a00007 	mov	r0, r7
 20058ec:	ebfffd10 	bl	2004d34 <fail_test>
 20058f0:	e2877001 	add	r7, r7, #1
 20058f4:	e1590007 	cmp	r9, r7
 20058f8:	e286600c 	add	r6, r6, #12
 20058fc:	1affffea 	bne	20058ac <_Z10check_sqrtPK8SQRTtesti+0x1c>
 2005900:	e8bd87f0 	pop	{r4, r5, r6, r7, r8, r9, r10, r15}
 2005904:	e1a00007 	mov	r0, r7
 2005908:	ebfffd10 	bl	2004d50 <timeout_test>
 200590c:	eaffffee 	b	20058cc <_Z10check_sqrtPK8SQRTtesti+0x3c>
 2005910:	04000200 	streq	r0, [r0], #-512	; 0xfffffe00

02005914 <_Z26run_tests_ds_maths_sqrt_32v>:
 2005914:	e59f3010 	ldr	r3, [pc, #16]	; 200592c <_Z26run_tests_ds_maths_sqrt_32v+0x18>
 2005918:	e3a02000 	mov	r2, #0
 200591c:	e1c32bb0 	strh	r2, [r3, #176]	; 0xb0
 2005920:	e3a0100d 	mov	r1, #13
 2005924:	e59f0004 	ldr	r0, [pc, #4]	; 2005930 <_Z26run_tests_ds_maths_sqrt_32v+0x1c>
 2005928:	eaffffd8 	b	2005890 <_Z10check_sqrtPK8SQRTtesti>
 200592c:	04000200 	streq	r0, [r0], #-512	; 0xfffffe00
 2005930:	02008384 	andeq	r8, r0, #132, 6	; 0x10000002

02005934 <_Z26run_tests_ds_maths_sqrt_64v>:
 2005934:	e59f3010 	ldr	r3, [pc, #16]	; 200594c <_Z26run_tests_ds_maths_sqrt_64v+0x18>
 2005938:	e3a02001 	mov	r2, #1
 200593c:	e1c32bb0 	strh	r2, [r3, #176]	; 0xb0
 2005940:	e3a01016 	mov	r1, #22
 2005944:	e59f0004 	ldr	r0, [pc, #4]	; 2005950 <_Z26run_tests_ds_maths_sqrt_64v+0x1c>
 2005948:	eaffffd0 	b	2005890 <_Z10check_sqrtPK8SQRTtesti>
 200594c:	04000200 	streq	r0, [r0], #-512	; 0xfffffe00
 2005950:	02008420 	andeq	r8, r0, #32, 8	; 0x20000000

02005954 <_Z13run_tests_tcmv>:
 2005954:	e92d4010 	push	{r4, r14}
 2005958:	ebffec8f 	bl	2000b9c <cp15_get_controlreg>
 200595c:	e59f431c 	ldr	r4, [pc, #796]	; 2005c80 <_Z13run_tests_tcmv+0x32c>
 2005960:	e3c00802 	bic	r0, r0, #131072	; 0x20000
 2005964:	e3800801 	orr	r0, r0, #65536	; 0x10000
 2005968:	ebffec8d 	bl	2000ba4 <cp15_set_controlreg>
 200596c:	e1a00004 	mov	r0, r4
 2005970:	ebffec8f 	bl	2000bb4 <cp15_set_DTCMcontrol>
 2005974:	ebffec8c 	bl	2000bac <cp15_get_DTCMcontrol>
 2005978:	e3c00d3f 	bic	r0, r0, #4032	; 0xfc0
 200597c:	e3c00001 	bic	r0, r0, #1
 2005980:	e1500004 	cmp	r0, r4
 2005984:	0a000001 	beq	2005990 <_Z13run_tests_tcmv+0x3c>
 2005988:	e3a00000 	mov	r0, #0
 200598c:	ebfffce8 	bl	2004d34 <fail_test>
 2005990:	e59f12ec 	ldr	r1, [pc, #748]	; 2005c84 <_Z13run_tests_tcmv+0x330>
 2005994:	e3a02502 	mov	r2, #8388608	; 0x800000
 2005998:	e59f32e8 	ldr	r3, [pc, #744]	; 2005c88 <_Z13run_tests_tcmv+0x334>
 200599c:	e59f02e8 	ldr	r0, [pc, #744]	; 2005c8c <_Z13run_tests_tcmv+0x338>
 20059a0:	e5823000 	str	r3, [r2]
 20059a4:	e5810ffc 	str	r0, [r1, #4092]	; 0xffc
 20059a8:	e5922000 	ldr	r2, [r2]
 20059ac:	e1520003 	cmp	r2, r3
 20059b0:	0a000001 	beq	20059bc <_Z13run_tests_tcmv+0x68>
 20059b4:	e3a00001 	mov	r0, #1
 20059b8:	ebfffcdd 	bl	2004d34 <fail_test>
 20059bc:	e59f22c0 	ldr	r2, [pc, #704]	; 2005c84 <_Z13run_tests_tcmv+0x330>
 20059c0:	e59f32c4 	ldr	r3, [pc, #708]	; 2005c8c <_Z13run_tests_tcmv+0x338>
 20059c4:	e5922ffc 	ldr	r2, [r2, #4092]	; 0xffc
 20059c8:	e1520003 	cmp	r2, r3
 20059cc:	0a000001 	beq	20059d8 <_Z13run_tests_tcmv+0x84>
 20059d0:	e3a00002 	mov	r0, #2
 20059d4:	ebfffcd6 	bl	2004d34 <fail_test>
 20059d8:	e59f02b0 	ldr	r0, [pc, #688]	; 2005c90 <_Z13run_tests_tcmv+0x33c>
 20059dc:	ebffec74 	bl	2000bb4 <cp15_set_DTCMcontrol>
 20059e0:	e3a03606 	mov	r3, #6291456	; 0x600000
 20059e4:	e5932000 	ldr	r2, [r3]
 20059e8:	e59f3298 	ldr	r3, [pc, #664]	; 2005c88 <_Z13run_tests_tcmv+0x334>
 20059ec:	e1520003 	cmp	r2, r3
 20059f0:	0a000001 	beq	20059fc <_Z13run_tests_tcmv+0xa8>
 20059f4:	e3a00003 	mov	r0, #3
 20059f8:	ebfffccd 	bl	2004d34 <fail_test>
 20059fc:	e59f2290 	ldr	r2, [pc, #656]	; 2005c94 <_Z13run_tests_tcmv+0x340>
 2005a00:	e59f3280 	ldr	r3, [pc, #640]	; 2005c88 <_Z13run_tests_tcmv+0x334>
 2005a04:	e5922000 	ldr	r2, [r2]
 2005a08:	e1520003 	cmp	r2, r3
 2005a0c:	0a000001 	beq	2005a18 <_Z13run_tests_tcmv+0xc4>
 2005a10:	e3a00004 	mov	r0, #4
 2005a14:	ebfffcc6 	bl	2004d34 <fail_test>
 2005a18:	e59f2278 	ldr	r2, [pc, #632]	; 2005c98 <_Z13run_tests_tcmv+0x344>
 2005a1c:	e59f3268 	ldr	r3, [pc, #616]	; 2005c8c <_Z13run_tests_tcmv+0x338>
 2005a20:	e5922ffc 	ldr	r2, [r2, #4092]	; 0xffc
 2005a24:	e1520003 	cmp	r2, r3
 2005a28:	0a000001 	beq	2005a34 <_Z13run_tests_tcmv+0xe0>
 2005a2c:	e3a00005 	mov	r0, #5
 2005a30:	ebfffcbf 	bl	2004d34 <fail_test>
 2005a34:	e59f2260 	ldr	r2, [pc, #608]	; 2005c9c <_Z13run_tests_tcmv+0x348>
 2005a38:	e59f324c 	ldr	r3, [pc, #588]	; 2005c8c <_Z13run_tests_tcmv+0x338>
 2005a3c:	e5922ffc 	ldr	r2, [r2, #4092]	; 0xffc
 2005a40:	e1520003 	cmp	r2, r3
 2005a44:	0a000001 	beq	2005a50 <_Z13run_tests_tcmv+0xfc>
 2005a48:	e3a00006 	mov	r0, #6
 2005a4c:	ebfffcb8 	bl	2004d34 <fail_test>
 2005a50:	e59f3248 	ldr	r3, [pc, #584]	; 2005ca0 <_Z13run_tests_tcmv+0x34c>
 2005a54:	e59f0248 	ldr	r0, [pc, #584]	; 2005ca4 <_Z13run_tests_tcmv+0x350>
 2005a58:	e59f2248 	ldr	r2, [pc, #584]	; 2005ca8 <_Z13run_tests_tcmv+0x354>
 2005a5c:	e3a0c000 	mov	r12, #0
 2005a60:	e3a04403 	mov	r4, #50331648	; 0x3000000
 2005a64:	e59f1240 	ldr	r1, [pc, #576]	; 2005cac <_Z13run_tests_tcmv+0x358>
 2005a68:	e5c0c047 	strb	r12, [r0, #71]	; 0x47
 2005a6c:	e5841000 	str	r1, [r4]
 2005a70:	e59f0238 	ldr	r0, [pc, #568]	; 2005cb0 <_Z13run_tests_tcmv+0x35c>
 2005a74:	e5832ffc 	str	r2, [r3, #4092]	; 0xffc
 2005a78:	ebffec4d 	bl	2000bb4 <cp15_set_DTCMcontrol>
 2005a7c:	e5942000 	ldr	r2, [r4]
 2005a80:	e59f3200 	ldr	r3, [pc, #512]	; 2005c88 <_Z13run_tests_tcmv+0x334>
 2005a84:	e1520003 	cmp	r2, r3
 2005a88:	0a000001 	beq	2005a94 <_Z13run_tests_tcmv+0x140>
 2005a8c:	e3a00007 	mov	r0, #7
 2005a90:	ebfffca7 	bl	2004d34 <fail_test>
 2005a94:	e59f2218 	ldr	r2, [pc, #536]	; 2005cb4 <_Z13run_tests_tcmv+0x360>
 2005a98:	e59f31ec 	ldr	r3, [pc, #492]	; 2005c8c <_Z13run_tests_tcmv+0x338>
 2005a9c:	e5122003 	ldr	r2, [r2, #-3]
 2005aa0:	e1520003 	cmp	r2, r3
 2005aa4:	0a000001 	beq	2005ab0 <_Z13run_tests_tcmv+0x15c>
 2005aa8:	e3a00008 	mov	r0, #8
 2005aac:	ebfffca0 	bl	2004d34 <fail_test>
 2005ab0:	e59f0200 	ldr	r0, [pc, #512]	; 2005cb8 <_Z13run_tests_tcmv+0x364>
 2005ab4:	ebffec3e 	bl	2000bb4 <cp15_set_DTCMcontrol>
 2005ab8:	e3a03403 	mov	r3, #50331648	; 0x3000000
 2005abc:	e5932000 	ldr	r2, [r3]
 2005ac0:	e59f31c0 	ldr	r3, [pc, #448]	; 2005c88 <_Z13run_tests_tcmv+0x334>
 2005ac4:	e1520003 	cmp	r2, r3
 2005ac8:	0a000001 	beq	2005ad4 <_Z13run_tests_tcmv+0x180>
 2005acc:	e3a00009 	mov	r0, #9
 2005ad0:	ebfffc97 	bl	2004d34 <fail_test>
 2005ad4:	e59f21c4 	ldr	r2, [pc, #452]	; 2005ca0 <_Z13run_tests_tcmv+0x34c>
 2005ad8:	e59f31c8 	ldr	r3, [pc, #456]	; 2005ca8 <_Z13run_tests_tcmv+0x354>
 2005adc:	e5922ffc 	ldr	r2, [r2, #4092]	; 0xffc
 2005ae0:	e1520003 	cmp	r2, r3
 2005ae4:	0a000001 	beq	2005af0 <_Z13run_tests_tcmv+0x19c>
 2005ae8:	e3a0000a 	mov	r0, #10
 2005aec:	ebfffc90 	bl	2004d34 <fail_test>
 2005af0:	ebffec29 	bl	2000b9c <cp15_get_controlreg>
 2005af4:	e3800802 	orr	r0, r0, #131072	; 0x20000
 2005af8:	ebffec29 	bl	2000ba4 <cp15_set_controlreg>
 2005afc:	e59f01b8 	ldr	r0, [pc, #440]	; 2005cbc <_Z13run_tests_tcmv+0x368>
 2005b00:	ebffec2b 	bl	2000bb4 <cp15_set_DTCMcontrol>
 2005b04:	e3a03403 	mov	r3, #50331648	; 0x3000000
 2005b08:	e5932000 	ldr	r2, [r3]
 2005b0c:	e59f3198 	ldr	r3, [pc, #408]	; 2005cac <_Z13run_tests_tcmv+0x358>
 2005b10:	e1520003 	cmp	r2, r3
 2005b14:	0a000001 	beq	2005b20 <_Z13run_tests_tcmv+0x1cc>
 2005b18:	e3a00010 	mov	r0, #16
 2005b1c:	ebfffc84 	bl	2004d34 <fail_test>
 2005b20:	e59f2178 	ldr	r2, [pc, #376]	; 2005ca0 <_Z13run_tests_tcmv+0x34c>
 2005b24:	e59f317c 	ldr	r3, [pc, #380]	; 2005ca8 <_Z13run_tests_tcmv+0x354>
 2005b28:	e5922ffc 	ldr	r2, [r2, #4092]	; 0xffc
 2005b2c:	e1520003 	cmp	r2, r3
 2005b30:	0a000001 	beq	2005b3c <_Z13run_tests_tcmv+0x1e8>
 2005b34:	e3a00011 	mov	r0, #17
 2005b38:	ebfffc7d 	bl	2004d34 <fail_test>
 2005b3c:	e59f315c 	ldr	r3, [pc, #348]	; 2005ca0 <_Z13run_tests_tcmv+0x34c>
 2005b40:	e3a01403 	mov	r1, #50331648	; 0x3000000
 2005b44:	e59f2174 	ldr	r2, [pc, #372]	; 2005cc0 <_Z13run_tests_tcmv+0x36c>
 2005b48:	e59f4174 	ldr	r4, [pc, #372]	; 2005cc4 <_Z13run_tests_tcmv+0x370>
 2005b4c:	e5814000 	str	r4, [r1]
 2005b50:	e5832ffc 	str	r2, [r3, #4092]	; 0xffc
 2005b54:	ebffec10 	bl	2000b9c <cp15_get_controlreg>
 2005b58:	e3c00802 	bic	r0, r0, #131072	; 0x20000
 2005b5c:	ebffec10 	bl	2000ba4 <cp15_set_controlreg>
 2005b60:	e59f0118 	ldr	r0, [pc, #280]	; 2005c80 <_Z13run_tests_tcmv+0x32c>
 2005b64:	ebffec12 	bl	2000bb4 <cp15_set_DTCMcontrol>
 2005b68:	e3a03502 	mov	r3, #8388608	; 0x800000
 2005b6c:	e5933000 	ldr	r3, [r3]
 2005b70:	e1530004 	cmp	r3, r4
 2005b74:	0a000001 	beq	2005b80 <_Z13run_tests_tcmv+0x22c>
 2005b78:	e3a00012 	mov	r0, #18
 2005b7c:	ebfffc6c 	bl	2004d34 <fail_test>
 2005b80:	e59f20fc 	ldr	r2, [pc, #252]	; 2005c84 <_Z13run_tests_tcmv+0x330>
 2005b84:	e59f3134 	ldr	r3, [pc, #308]	; 2005cc0 <_Z13run_tests_tcmv+0x36c>
 2005b88:	e5922ffc 	ldr	r2, [r2, #4092]	; 0xffc
 2005b8c:	e1520003 	cmp	r2, r3
 2005b90:	0a000001 	beq	2005b9c <_Z13run_tests_tcmv+0x248>
 2005b94:	e3a00013 	mov	r0, #19
 2005b98:	ebfffc65 	bl	2004d34 <fail_test>
 2005b9c:	e3a03403 	mov	r3, #50331648	; 0x3000000
 2005ba0:	e5932000 	ldr	r2, [r3]
 2005ba4:	e59f3100 	ldr	r3, [pc, #256]	; 2005cac <_Z13run_tests_tcmv+0x358>
 2005ba8:	e1520003 	cmp	r2, r3
 2005bac:	0a000001 	beq	2005bb8 <_Z13run_tests_tcmv+0x264>
 2005bb0:	e3a00014 	mov	r0, #20
 2005bb4:	ebfffc5e 	bl	2004d34 <fail_test>
 2005bb8:	ebffebf7 	bl	2000b9c <cp15_get_controlreg>
 2005bbc:	e3c00702 	bic	r0, r0, #524288	; 0x80000
 2005bc0:	e3800701 	orr	r0, r0, #262144	; 0x40000
 2005bc4:	ebffebf6 	bl	2000ba4 <cp15_set_controlreg>
 2005bc8:	e3a0000c 	mov	r0, #12
 2005bcc:	ebffebfc 	bl	2000bc4 <cp15_set_ITCMcontrol>
 2005bd0:	ebffebf9 	bl	2000bbc <cp15_get_ITCMcontrol>
 2005bd4:	e3c00d3f 	bic	r0, r0, #4032	; 0xfc0
 2005bd8:	e3c00001 	bic	r0, r0, #1
 2005bdc:	e350000c 	cmp	r0, #12
 2005be0:	0a000001 	beq	2005bec <_Z13run_tests_tcmv+0x298>
 2005be4:	e3a00020 	mov	r0, #32
 2005be8:	ebfffc51 	bl	2004d34 <fail_test>
 2005bec:	e3a02000 	mov	r2, #0
 2005bf0:	e59f30d0 	ldr	r3, [pc, #208]	; 2005cc8 <_Z13run_tests_tcmv+0x374>
 2005bf4:	e3a01a07 	mov	r1, #28672	; 0x7000
 2005bf8:	e59f00cc 	ldr	r0, [pc, #204]	; 2005ccc <_Z13run_tests_tcmv+0x378>
 2005bfc:	e5823000 	str	r3, [r2]
 2005c00:	e5810ffc 	str	r0, [r1, #4092]	; 0xffc
 2005c04:	e5922000 	ldr	r2, [r2]
 2005c08:	e1520003 	cmp	r2, r3
 2005c0c:	0a000001 	beq	2005c18 <_Z13run_tests_tcmv+0x2c4>
 2005c10:	e3a00021 	mov	r0, #33	; 0x21
 2005c14:	ebfffc46 	bl	2004d34 <fail_test>
 2005c18:	e3a03a07 	mov	r3, #28672	; 0x7000
 2005c1c:	e5932ffc 	ldr	r2, [r3, #4092]	; 0xffc
 2005c20:	e59f30a4 	ldr	r3, [pc, #164]	; 2005ccc <_Z13run_tests_tcmv+0x378>
 2005c24:	e1520003 	cmp	r2, r3
 2005c28:	0a000001 	beq	2005c34 <_Z13run_tests_tcmv+0x2e0>
 2005c2c:	e3a00022 	mov	r0, #34	; 0x22
 2005c30:	ebfffc3f 	bl	2004d34 <fail_test>
 2005c34:	e3a0000e 	mov	r0, #14
 2005c38:	ebffebe1 	bl	2000bc4 <cp15_set_ITCMcontrol>
 2005c3c:	e3a03902 	mov	r3, #32768	; 0x8000
 2005c40:	e5932000 	ldr	r2, [r3]
 2005c44:	e59f307c 	ldr	r3, [pc, #124]	; 2005cc8 <_Z13run_tests_tcmv+0x374>
 2005c48:	e1520003 	cmp	r2, r3
 2005c4c:	0a000001 	beq	2005c58 <_Z13run_tests_tcmv+0x304>
 2005c50:	e3a00023 	mov	r0, #35	; 0x23
 2005c54:	ebfffc36 	bl	2004d34 <fail_test>
 2005c58:	e3a03a0f 	mov	r3, #61440	; 0xf000
 2005c5c:	e5932ffc 	ldr	r2, [r3, #4092]	; 0xffc
 2005c60:	e59f3064 	ldr	r3, [pc, #100]	; 2005ccc <_Z13run_tests_tcmv+0x378>
 2005c64:	e1520003 	cmp	r2, r3
 2005c68:	0a000001 	beq	2005c74 <_Z13run_tests_tcmv+0x320>
 2005c6c:	e3a00024 	mov	r0, #36	; 0x24
 2005c70:	ebfffc2f 	bl	2004d34 <fail_test>
 2005c74:	e59f0004 	ldr	r0, [pc, #4]	; 2005c80 <_Z13run_tests_tcmv+0x32c>
 2005c78:	e8bd4010 	pop	{r4, r14}
 2005c7c:	eaffebcc 	b	2000bb4 <cp15_set_DTCMcontrol>
 2005c80:	0080000a 	addeq	r0, r0, r10
 2005c84:	00803000 	addeq	r3, r0, r0
 2005c88:	12345678 	eorsne	r5, r4, #120, 12	; 0x7800000
 2005c8c:	87654321 	strbhi	r4, [r5, -r1, lsr #6]!
 2005c90:	0060000c 	rsbeq	r0, r0, r12
 2005c94:	00604000 	rsbeq	r4, r0, r0
 2005c98:	00603000 	rsbeq	r3, r0, r0
 2005c9c:	00607000 	rsbeq	r7, r0, r0
 2005ca0:	03007000 	movweq	r7, #0
 2005ca4:	04000200 	streq	r0, [r0], #-512	; 0xfffffe00
 2005ca8:	89abcdef 	stmibhi	r11!, {r0, r1, r2, r3, r5, r6, r7, r8, r10, r11, r14, r15}
 2005cac:	1a2b3c4d 	bne	2ad4de8 <__bss_end__+0xabc658>
 2005cb0:	0300001a 	movweq	r0, #26
 2005cb4:	033fffff 	teqeq	r15, #1020	; 0x3fc	; <UNPREDICTABLE>
 2005cb8:	03000008 	movweq	r0, #8
 2005cbc:	0300000c 	movweq	r0, #12
 2005cc0:	87654322 	strbhi	r4, [r5, -r2, lsr #6]!
 2005cc4:	12345679 	eorsne	r5, r4, #126877696	; 0x7900000
 2005cc8:	5a5b5c5d 	bpl	36dce44 <__bss_end__+0x16c46b4>
 2005ccc:	6a6b6c6d 	bvs	3ae0e88 <__bss_end__+0x1ac86f8>

02005cd0 <_Z17run_tests_vramcntv>:
 2005cd0:	e92d4010 	push	{r4, r14}
 2005cd4:	ebffeb4f 	bl	2000a18 <_Z13ARM7_start_rwv>
 2005cd8:	e59f33cc 	ldr	r3, [pc, #972]	; 20060ac <_Z17run_tests_vramcntv+0x3dc>
 2005cdc:	e3e0207f 	mvn	r2, #127	; 0x7f
 2005ce0:	e59f43c8 	ldr	r4, [pc, #968]	; 20060b0 <_Z17run_tests_vramcntv+0x3e0>
 2005ce4:	e5c32044 	strb	r2, [r3, #68]	; 0x44
 2005ce8:	e59f03c4 	ldr	r0, [pc, #964]	; 20060b4 <_Z17run_tests_vramcntv+0x3e4>
 2005cec:	e5c32043 	strb	r2, [r3, #67]	; 0x43
 2005cf0:	e3a0151a 	mov	r1, #109051904	; 0x6800000
 2005cf4:	e5c32042 	strb	r2, [r3, #66]	; 0x42
 2005cf8:	e5c32041 	strb	r2, [r3, #65]	; 0x41
 2005cfc:	e5c32040 	strb	r2, [r3, #64]	; 0x40
 2005d00:	e5c32049 	strb	r2, [r3, #73]	; 0x49
 2005d04:	e5c32048 	strb	r2, [r3, #72]	; 0x48
 2005d08:	e5c32046 	strb	r2, [r3, #70]	; 0x46
 2005d0c:	e5c32045 	strb	r2, [r3, #69]	; 0x45
 2005d10:	e59f33a0 	ldr	r3, [pc, #928]	; 20060b8 <_Z17run_tests_vramcntv+0x3e8>
 2005d14:	e59f23a0 	ldr	r2, [pc, #928]	; 20060bc <_Z17run_tests_vramcntv+0x3ec>
 2005d18:	e5813000 	str	r3, [r1]
 2005d1c:	e59fc39c 	ldr	r12, [pc, #924]	; 20060c0 <_Z17run_tests_vramcntv+0x3f0>
 2005d20:	e5842ffc 	str	r2, [r4, #4092]	; 0xffc
 2005d24:	e59f2398 	ldr	r2, [pc, #920]	; 20060c4 <_Z17run_tests_vramcntv+0x3f4>
 2005d28:	e5802000 	str	r2, [r0]
 2005d2c:	e59fe394 	ldr	r14, [pc, #916]	; 20060c8 <_Z17run_tests_vramcntv+0x3f8>
 2005d30:	e59f2394 	ldr	r2, [pc, #916]	; 20060cc <_Z17run_tests_vramcntv+0x3fc>
 2005d34:	e58c2ffc 	str	r2, [r12, #4092]	; 0xffc
 2005d38:	e59f2390 	ldr	r2, [pc, #912]	; 20060d0 <_Z17run_tests_vramcntv+0x400>
 2005d3c:	e58e2000 	str	r2, [r14]
 2005d40:	e24ee8bd 	sub	r14, r14, #12386304	; 0xbd0000
 2005d44:	e24eeb0e 	sub	r14, r14, #14336	; 0x3800
 2005d48:	e2800a3f 	add	r0, r0, #258048	; 0x3f000
 2005d4c:	e59f2380 	ldr	r2, [pc, #896]	; 20060d4 <_Z17run_tests_vramcntv+0x404>
 2005d50:	e24ee1e1 	sub	r14, r14, #1073741880	; 0x40000038
 2005d54:	e580effc 	str	r14, [r0, #4092]	; 0xffc
 2005d58:	e28cca21 	add	r12, r12, #135168	; 0x21000
 2005d5c:	e59fe374 	ldr	r14, [pc, #884]	; 20060d8 <_Z17run_tests_vramcntv+0x408>
 2005d60:	e59f0374 	ldr	r0, [pc, #884]	; 20060dc <_Z17run_tests_vramcntv+0x40c>
 2005d64:	e58ce000 	str	r14, [r12]
 2005d68:	e5820ffc 	str	r0, [r2, #4092]	; 0xffc
 2005d6c:	e5912000 	ldr	r2, [r1]
 2005d70:	e1520003 	cmp	r2, r3
 2005d74:	0a000001 	beq	2005d80 <_Z17run_tests_vramcntv+0xb0>
 2005d78:	e3a00000 	mov	r0, #0
 2005d7c:	ebfffbec 	bl	2004d34 <fail_test>
 2005d80:	e59f2328 	ldr	r2, [pc, #808]	; 20060b0 <_Z17run_tests_vramcntv+0x3e0>
 2005d84:	e59f3330 	ldr	r3, [pc, #816]	; 20060bc <_Z17run_tests_vramcntv+0x3ec>
 2005d88:	e5922ffc 	ldr	r2, [r2, #4092]	; 0xffc
 2005d8c:	e1520003 	cmp	r2, r3
 2005d90:	0a000001 	beq	2005d9c <_Z17run_tests_vramcntv+0xcc>
 2005d94:	e3a00001 	mov	r0, #1
 2005d98:	ebfffbe5 	bl	2004d34 <fail_test>
 2005d9c:	e59f2310 	ldr	r2, [pc, #784]	; 20060b4 <_Z17run_tests_vramcntv+0x3e4>
 2005da0:	e59f331c 	ldr	r3, [pc, #796]	; 20060c4 <_Z17run_tests_vramcntv+0x3f4>
 2005da4:	e5922000 	ldr	r2, [r2]
 2005da8:	e1520003 	cmp	r2, r3
 2005dac:	0a000001 	beq	2005db8 <_Z17run_tests_vramcntv+0xe8>
 2005db0:	e3a00002 	mov	r0, #2
 2005db4:	ebfffbde 	bl	2004d34 <fail_test>
 2005db8:	e59f2300 	ldr	r2, [pc, #768]	; 20060c0 <_Z17run_tests_vramcntv+0x3f0>
 2005dbc:	e59f3308 	ldr	r3, [pc, #776]	; 20060cc <_Z17run_tests_vramcntv+0x3fc>
 2005dc0:	e5922ffc 	ldr	r2, [r2, #4092]	; 0xffc
 2005dc4:	e1520003 	cmp	r2, r3
 2005dc8:	0a000001 	beq	2005dd4 <_Z17run_tests_vramcntv+0x104>
 2005dcc:	e3a00003 	mov	r0, #3
 2005dd0:	ebfffbd7 	bl	2004d34 <fail_test>
 2005dd4:	e59f22ec 	ldr	r2, [pc, #748]	; 20060c8 <_Z17run_tests_vramcntv+0x3f8>
 2005dd8:	e59f32f0 	ldr	r3, [pc, #752]	; 20060d0 <_Z17run_tests_vramcntv+0x400>
 2005ddc:	e5922000 	ldr	r2, [r2]
 2005de0:	e1520003 	cmp	r2, r3
 2005de4:	0a000001 	beq	2005df0 <_Z17run_tests_vramcntv+0x120>
 2005de8:	e3a00004 	mov	r0, #4
 2005dec:	ebfffbd0 	bl	2004d34 <fail_test>
 2005df0:	e59f22e8 	ldr	r2, [pc, #744]	; 20060e0 <_Z17run_tests_vramcntv+0x410>
 2005df4:	e59f32e8 	ldr	r3, [pc, #744]	; 20060e4 <_Z17run_tests_vramcntv+0x414>
 2005df8:	e5922ffc 	ldr	r2, [r2, #4092]	; 0xffc
 2005dfc:	e1520003 	cmp	r2, r3
 2005e00:	0a000001 	beq	2005e0c <_Z17run_tests_vramcntv+0x13c>
 2005e04:	e3a00005 	mov	r0, #5
 2005e08:	ebfffbc9 	bl	2004d34 <fail_test>
 2005e0c:	e59f22d4 	ldr	r2, [pc, #724]	; 20060e8 <_Z17run_tests_vramcntv+0x418>
 2005e10:	e59f32c0 	ldr	r3, [pc, #704]	; 20060d8 <_Z17run_tests_vramcntv+0x408>
 2005e14:	e5922000 	ldr	r2, [r2]
 2005e18:	e1520003 	cmp	r2, r3
 2005e1c:	0a000001 	beq	2005e28 <_Z17run_tests_vramcntv+0x158>
 2005e20:	e3a00006 	mov	r0, #6
 2005e24:	ebfffbc2 	bl	2004d34 <fail_test>
 2005e28:	e59f22a4 	ldr	r2, [pc, #676]	; 20060d4 <_Z17run_tests_vramcntv+0x404>
 2005e2c:	e59f32a8 	ldr	r3, [pc, #680]	; 20060dc <_Z17run_tests_vramcntv+0x40c>
 2005e30:	e5922ffc 	ldr	r2, [r2, #4092]	; 0xffc
 2005e34:	e1520003 	cmp	r2, r3
 2005e38:	0a000001 	beq	2005e44 <_Z17run_tests_vramcntv+0x174>
 2005e3c:	e3a00007 	mov	r0, #7
 2005e40:	ebfffbbb 	bl	2004d34 <fail_test>
 2005e44:	e59f02a0 	ldr	r0, [pc, #672]	; 20060ec <_Z17run_tests_vramcntv+0x41c>
 2005e48:	ebffeb25 	bl	2000ae4 <_Z14ARM7_read_bytem>
 2005e4c:	e3500000 	cmp	r0, #0
 2005e50:	1a000092 	bne	20060a0 <_Z17run_tests_vramcntv+0x3d0>
 2005e54:	e59f3250 	ldr	r3, [pc, #592]	; 20060ac <_Z17run_tests_vramcntv+0x3dc>
 2005e58:	e3e0207d 	mvn	r2, #125	; 0x7d
 2005e5c:	e5c32042 	strb	r2, [r3, #66]	; 0x42
 2005e60:	e59f0284 	ldr	r0, [pc, #644]	; 20060ec <_Z17run_tests_vramcntv+0x41c>
 2005e64:	ebffeb1e 	bl	2000ae4 <_Z14ARM7_read_bytem>
 2005e68:	e3500001 	cmp	r0, #1
 2005e6c:	0a000001 	beq	2005e78 <_Z17run_tests_vramcntv+0x1a8>
 2005e70:	e3a00009 	mov	r0, #9
 2005e74:	ebfffbae 	bl	2004d34 <fail_test>
 2005e78:	e3a00406 	mov	r0, #100663296	; 0x6000000
 2005e7c:	ebffeaf2 	bl	2000a4c <_Z14ARM7_read_wordm>
 2005e80:	e59f3248 	ldr	r3, [pc, #584]	; 20060d0 <_Z17run_tests_vramcntv+0x400>
 2005e84:	e1500003 	cmp	r0, r3
 2005e88:	0a000001 	beq	2005e94 <_Z17run_tests_vramcntv+0x1c4>
 2005e8c:	e3a0000a 	mov	r0, #10
 2005e90:	ebfffba7 	bl	2004d34 <fail_test>
 2005e94:	e59f0254 	ldr	r0, [pc, #596]	; 20060f0 <_Z17run_tests_vramcntv+0x420>
 2005e98:	ebffeaeb 	bl	2000a4c <_Z14ARM7_read_wordm>
 2005e9c:	e59f3240 	ldr	r3, [pc, #576]	; 20060e4 <_Z17run_tests_vramcntv+0x414>
 2005ea0:	e1500003 	cmp	r0, r3
 2005ea4:	0a000001 	beq	2005eb0 <_Z17run_tests_vramcntv+0x1e0>
 2005ea8:	e3a0000b 	mov	r0, #11
 2005eac:	ebfffba0 	bl	2004d34 <fail_test>
 2005eb0:	e59f31f4 	ldr	r3, [pc, #500]	; 20060ac <_Z17run_tests_vramcntv+0x3dc>
 2005eb4:	e3e02075 	mvn	r2, #117	; 0x75
 2005eb8:	e5c32042 	strb	r2, [r3, #66]	; 0x42
 2005ebc:	e59f0228 	ldr	r0, [pc, #552]	; 20060ec <_Z17run_tests_vramcntv+0x41c>
 2005ec0:	ebffeb07 	bl	2000ae4 <_Z14ARM7_read_bytem>
 2005ec4:	e3500001 	cmp	r0, #1
 2005ec8:	0a000001 	beq	2005ed4 <_Z17run_tests_vramcntv+0x204>
 2005ecc:	e3a0000c 	mov	r0, #12
 2005ed0:	ebfffb97 	bl	2004d34 <fail_test>
 2005ed4:	e59f0218 	ldr	r0, [pc, #536]	; 20060f4 <_Z17run_tests_vramcntv+0x424>
 2005ed8:	ebffeadb 	bl	2000a4c <_Z14ARM7_read_wordm>
 2005edc:	e59f31ec 	ldr	r3, [pc, #492]	; 20060d0 <_Z17run_tests_vramcntv+0x400>
 2005ee0:	e1500003 	cmp	r0, r3
 2005ee4:	0a000001 	beq	2005ef0 <_Z17run_tests_vramcntv+0x220>
 2005ee8:	e3a0000d 	mov	r0, #13
 2005eec:	ebfffb90 	bl	2004d34 <fail_test>
 2005ef0:	e59f0200 	ldr	r0, [pc, #512]	; 20060f8 <_Z17run_tests_vramcntv+0x428>
 2005ef4:	ebffead4 	bl	2000a4c <_Z14ARM7_read_wordm>
 2005ef8:	e59f31e4 	ldr	r3, [pc, #484]	; 20060e4 <_Z17run_tests_vramcntv+0x414>
 2005efc:	e1500003 	cmp	r0, r3
 2005f00:	0a000001 	beq	2005f0c <_Z17run_tests_vramcntv+0x23c>
 2005f04:	e3a0000e 	mov	r0, #14
 2005f08:	ebfffb89 	bl	2004d34 <fail_test>
 2005f0c:	e59f3198 	ldr	r3, [pc, #408]	; 20060ac <_Z17run_tests_vramcntv+0x3dc>
 2005f10:	e3a01000 	mov	r1, #0
 2005f14:	e3e0207d 	mvn	r2, #125	; 0x7d
 2005f18:	e5c31042 	strb	r1, [r3, #66]	; 0x42
 2005f1c:	e59f01c8 	ldr	r0, [pc, #456]	; 20060ec <_Z17run_tests_vramcntv+0x41c>
 2005f20:	e5c32043 	strb	r2, [r3, #67]	; 0x43
 2005f24:	ebffeaee 	bl	2000ae4 <_Z14ARM7_read_bytem>
 2005f28:	e3500002 	cmp	r0, #2
 2005f2c:	0a000001 	beq	2005f38 <_Z17run_tests_vramcntv+0x268>
 2005f30:	e3a0000f 	mov	r0, #15
 2005f34:	ebfffb7e 	bl	2004d34 <fail_test>
 2005f38:	e3a00406 	mov	r0, #100663296	; 0x6000000
 2005f3c:	ebffeac2 	bl	2000a4c <_Z14ARM7_read_wordm>
 2005f40:	e59f3190 	ldr	r3, [pc, #400]	; 20060d8 <_Z17run_tests_vramcntv+0x408>
 2005f44:	e1500003 	cmp	r0, r3
 2005f48:	0a000001 	beq	2005f54 <_Z17run_tests_vramcntv+0x284>
 2005f4c:	e3a00010 	mov	r0, #16
 2005f50:	ebfffb77 	bl	2004d34 <fail_test>
 2005f54:	e59f0194 	ldr	r0, [pc, #404]	; 20060f0 <_Z17run_tests_vramcntv+0x420>
 2005f58:	ebffeabb 	bl	2000a4c <_Z14ARM7_read_wordm>
 2005f5c:	e59f3178 	ldr	r3, [pc, #376]	; 20060dc <_Z17run_tests_vramcntv+0x40c>
 2005f60:	e1500003 	cmp	r0, r3
 2005f64:	0a000001 	beq	2005f70 <_Z17run_tests_vramcntv+0x2a0>
 2005f68:	e3a00011 	mov	r0, #17
 2005f6c:	ebfffb70 	bl	2004d34 <fail_test>
 2005f70:	e59f3134 	ldr	r3, [pc, #308]	; 20060ac <_Z17run_tests_vramcntv+0x3dc>
 2005f74:	e3e02075 	mvn	r2, #117	; 0x75
 2005f78:	e5c32042 	strb	r2, [r3, #66]	; 0x42
 2005f7c:	e59f0168 	ldr	r0, [pc, #360]	; 20060ec <_Z17run_tests_vramcntv+0x41c>
 2005f80:	ebffead7 	bl	2000ae4 <_Z14ARM7_read_bytem>
 2005f84:	e3500003 	cmp	r0, #3
 2005f88:	0a000001 	beq	2005f94 <_Z17run_tests_vramcntv+0x2c4>
 2005f8c:	e3a00012 	mov	r0, #18
 2005f90:	ebfffb67 	bl	2004d34 <fail_test>
 2005f94:	e3a00406 	mov	r0, #100663296	; 0x6000000
 2005f98:	ebffeaab 	bl	2000a4c <_Z14ARM7_read_wordm>
 2005f9c:	e59f3134 	ldr	r3, [pc, #308]	; 20060d8 <_Z17run_tests_vramcntv+0x408>
 2005fa0:	e1500003 	cmp	r0, r3
 2005fa4:	0a000001 	beq	2005fb0 <_Z17run_tests_vramcntv+0x2e0>
 2005fa8:	e3a00013 	mov	r0, #19
 2005fac:	ebfffb60 	bl	2004d34 <fail_test>
 2005fb0:	e59f0138 	ldr	r0, [pc, #312]	; 20060f0 <_Z17run_tests_vramcntv+0x420>
 2005fb4:	ebffeaa4 	bl	2000a4c <_Z14ARM7_read_wordm>
 2005fb8:	e59f311c 	ldr	r3, [pc, #284]	; 20060dc <_Z17run_tests_vramcntv+0x40c>
 2005fbc:	e1500003 	cmp	r0, r3
 2005fc0:	0a000001 	beq	2005fcc <_Z17run_tests_vramcntv+0x2fc>
 2005fc4:	e3a00014 	mov	r0, #20
 2005fc8:	ebfffb59 	bl	2004d34 <fail_test>
 2005fcc:	e59f0120 	ldr	r0, [pc, #288]	; 20060f4 <_Z17run_tests_vramcntv+0x424>
 2005fd0:	ebffea9d 	bl	2000a4c <_Z14ARM7_read_wordm>
 2005fd4:	e59f30f4 	ldr	r3, [pc, #244]	; 20060d0 <_Z17run_tests_vramcntv+0x400>
 2005fd8:	e1500003 	cmp	r0, r3
 2005fdc:	0a000001 	beq	2005fe8 <_Z17run_tests_vramcntv+0x318>
 2005fe0:	e3a00015 	mov	r0, #21
 2005fe4:	ebfffb52 	bl	2004d34 <fail_test>
 2005fe8:	e59f0108 	ldr	r0, [pc, #264]	; 20060f8 <_Z17run_tests_vramcntv+0x428>
 2005fec:	ebffea96 	bl	2000a4c <_Z14ARM7_read_wordm>
 2005ff0:	e59f30ec 	ldr	r3, [pc, #236]	; 20060e4 <_Z17run_tests_vramcntv+0x414>
 2005ff4:	e1500003 	cmp	r0, r3
 2005ff8:	0a000001 	beq	2006004 <_Z17run_tests_vramcntv+0x334>
 2005ffc:	e3a00016 	mov	r0, #22
 2006000:	ebfffb4b 	bl	2004d34 <fail_test>
 2006004:	e59f30a0 	ldr	r3, [pc, #160]	; 20060ac <_Z17run_tests_vramcntv+0x3dc>
 2006008:	e3e0107e 	mvn	r1, #126	; 0x7e
 200600c:	e3a02406 	mov	r2, #100663296	; 0x6000000
 2006010:	e5c31040 	strb	r1, [r3, #64]	; 0x40
 2006014:	e59f309c 	ldr	r3, [pc, #156]	; 20060b8 <_Z17run_tests_vramcntv+0x3e8>
 2006018:	e5922000 	ldr	r2, [r2]
 200601c:	e1520003 	cmp	r2, r3
 2006020:	0a000001 	beq	200602c <_Z17run_tests_vramcntv+0x35c>
 2006024:	e3a00017 	mov	r0, #23
 2006028:	ebfffb41 	bl	2004d34 <fail_test>
 200602c:	e59f20c8 	ldr	r2, [pc, #200]	; 20060fc <_Z17run_tests_vramcntv+0x42c>
 2006030:	e59f3084 	ldr	r3, [pc, #132]	; 20060bc <_Z17run_tests_vramcntv+0x3ec>
 2006034:	e5922ffc 	ldr	r2, [r2, #4092]	; 0xffc
 2006038:	e1520003 	cmp	r2, r3
 200603c:	0a000001 	beq	2006048 <_Z17run_tests_vramcntv+0x378>
 2006040:	e3a00018 	mov	r0, #24
 2006044:	ebfffb3a 	bl	2004d34 <fail_test>
 2006048:	e59f305c 	ldr	r3, [pc, #92]	; 20060ac <_Z17run_tests_vramcntv+0x3dc>
 200604c:	e59f20a0 	ldr	r2, [pc, #160]	; 20060f4 <_Z17run_tests_vramcntv+0x424>
 2006050:	e3e01076 	mvn	r1, #118	; 0x76
 2006054:	e5c31043 	strb	r1, [r3, #67]	; 0x43
 2006058:	e59f3078 	ldr	r3, [pc, #120]	; 20060d8 <_Z17run_tests_vramcntv+0x408>
 200605c:	e5922000 	ldr	r2, [r2]
 2006060:	e1520003 	cmp	r2, r3
 2006064:	0a000001 	beq	2006070 <_Z17run_tests_vramcntv+0x3a0>
 2006068:	e3a00019 	mov	r0, #25
 200606c:	ebfffb30 	bl	2004d34 <fail_test>
 2006070:	e59f2088 	ldr	r2, [pc, #136]	; 2006100 <_Z17run_tests_vramcntv+0x430>
 2006074:	e59f3060 	ldr	r3, [pc, #96]	; 20060dc <_Z17run_tests_vramcntv+0x40c>
 2006078:	e5922ffc 	ldr	r2, [r2, #4092]	; 0xffc
 200607c:	e1520003 	cmp	r2, r3
 2006080:	0a000001 	beq	200608c <_Z17run_tests_vramcntv+0x3bc>
 2006084:	e3a0001a 	mov	r0, #26
 2006088:	ebfffb29 	bl	2004d34 <fail_test>
 200608c:	e59f3018 	ldr	r3, [pc, #24]	; 20060ac <_Z17run_tests_vramcntv+0x3dc>
 2006090:	e3e0207f 	mvn	r2, #127	; 0x7f
 2006094:	e5c32040 	strb	r2, [r3, #64]	; 0x40
 2006098:	e8bd4010 	pop	{r4, r14}
 200609c:	eaffeaac 	b	2000b54 <_Z11ARM7_end_rwv>
 20060a0:	e3a00008 	mov	r0, #8
 20060a4:	ebfffb22 	bl	2004d34 <fail_test>
 20060a8:	eaffff69 	b	2005e54 <_Z17run_tests_vramcntv+0x184>
 20060ac:	04000200 	streq	r0, [r0], #-512	; 0xfffffe00
 20060b0:	0681f000 	streq	r15, [r1], r0
 20060b4:	06820000 	streq	r0, [r2], r0
 20060b8:	a1a2a3a4 			; <UNDEFINED> instruction: 0xa1a2a3a4
 20060bc:	a5a6a7a8 	strge	r10, [r6, #1960]!	; 0x7a8
 20060c0:	0683f000 	streq	r15, [r3], r0
 20060c4:	b1b2b3b4 			; <UNDEFINED> instruction: 0xb1b2b3b4
 20060c8:	06840000 	streq	r0, [r4], r0
 20060cc:	b5b6b7b8 	ldrlt	r11, [r6, #1976]!	; 0x7b8
 20060d0:	c1c2c3c4 	bicgt	r12, r2, r4, asr #7
 20060d4:	0687f000 	streq	r15, [r7], r0
 20060d8:	d1d2d3d4 	ldrsble	r13, [r2, #52]	; 0x34
 20060dc:	d5d6d7d8 	ldrble	r13, [r6, #2008]	; 0x7d8
 20060e0:	0685f000 	streq	r15, [r5], r0
 20060e4:	c5c6c7c8 	strbgt	r12, [r6, #1992]	; 0x7c8
 20060e8:	06860000 	streq	r0, [r6], r0
 20060ec:	04000240 	streq	r0, [r0], #-576	; 0xfffffdc0
 20060f0:	0601fffc 			; <UNDEFINED> instruction: 0x0601fffc
 20060f4:	06020000 	streq	r0, [r2], -r0
 20060f8:	0603fffc 			; <UNDEFINED> instruction: 0x0603fffc
 20060fc:	0601f000 	streq	r15, [r1], -r0
 2006100:	0603f000 	streq	r15, [r3], -r0

02006104 <_Z17run_tests_wramcntv>:
 2006104:	e92d4010 	push	{r4, r14}
 2006108:	ebffea42 	bl	2000a18 <_Z13ARM7_start_rwv>
 200610c:	e59f1504 	ldr	r1, [pc, #1284]	; 2006618 <_Z17run_tests_wramcntv+0x514>
 2006110:	e59fe504 	ldr	r14, [pc, #1284]	; 200661c <_Z17run_tests_wramcntv+0x518>
 2006114:	e59fc504 	ldr	r12, [pc, #1284]	; 2006620 <_Z17run_tests_wramcntv+0x51c>
 2006118:	e3a02403 	mov	r2, #50331648	; 0x3000000
 200611c:	e59f3500 	ldr	r3, [pc, #1280]	; 2006624 <_Z17run_tests_wramcntv+0x520>
 2006120:	e3a00000 	mov	r0, #0
 2006124:	e59f44fc 	ldr	r4, [pc, #1276]	; 2006628 <_Z17run_tests_wramcntv+0x524>
 2006128:	e5c10047 	strb	r0, [r1, #71]	; 0x47
 200612c:	e5823000 	str	r3, [r2]
 2006130:	e59f14f4 	ldr	r1, [pc, #1268]	; 200662c <_Z17run_tests_wramcntv+0x528>
 2006134:	e58e4ffc 	str	r4, [r14, #4092]	; 0xffc
 2006138:	e59fe4f0 	ldr	r14, [pc, #1264]	; 2006630 <_Z17run_tests_wramcntv+0x52c>
 200613c:	e58ce000 	str	r14, [r12]
 2006140:	e59fc4ec 	ldr	r12, [pc, #1260]	; 2006634 <_Z17run_tests_wramcntv+0x530>
 2006144:	e581cffc 	str	r12, [r1, #4092]	; 0xffc
 2006148:	e5922000 	ldr	r2, [r2]
 200614c:	e1520003 	cmp	r2, r3
 2006150:	0a000000 	beq	2006158 <_Z17run_tests_wramcntv+0x54>
 2006154:	ebfffaf6 	bl	2004d34 <fail_test>
 2006158:	e59f24bc 	ldr	r2, [pc, #1212]	; 200661c <_Z17run_tests_wramcntv+0x518>
 200615c:	e59f34c4 	ldr	r3, [pc, #1220]	; 2006628 <_Z17run_tests_wramcntv+0x524>
 2006160:	e5922ffc 	ldr	r2, [r2, #4092]	; 0xffc
 2006164:	e1520003 	cmp	r2, r3
 2006168:	0a000001 	beq	2006174 <_Z17run_tests_wramcntv+0x70>
 200616c:	e3a00001 	mov	r0, #1
 2006170:	ebfffaef 	bl	2004d34 <fail_test>
 2006174:	e59f24a4 	ldr	r2, [pc, #1188]	; 2006620 <_Z17run_tests_wramcntv+0x51c>
 2006178:	e59f34b0 	ldr	r3, [pc, #1200]	; 2006630 <_Z17run_tests_wramcntv+0x52c>
 200617c:	e5922000 	ldr	r2, [r2]
 2006180:	e1520003 	cmp	r2, r3
 2006184:	0a000001 	beq	2006190 <_Z17run_tests_wramcntv+0x8c>
 2006188:	e3a00002 	mov	r0, #2
 200618c:	ebfffae8 	bl	2004d34 <fail_test>
 2006190:	e59f2494 	ldr	r2, [pc, #1172]	; 200662c <_Z17run_tests_wramcntv+0x528>
 2006194:	e59f3498 	ldr	r3, [pc, #1176]	; 2006634 <_Z17run_tests_wramcntv+0x530>
 2006198:	e5922ffc 	ldr	r2, [r2, #4092]	; 0xffc
 200619c:	e1520003 	cmp	r2, r3
 20061a0:	0a000001 	beq	20061ac <_Z17run_tests_wramcntv+0xa8>
 20061a4:	e3a00003 	mov	r0, #3
 20061a8:	ebfffae1 	bl	2004d34 <fail_test>
 20061ac:	e59f2484 	ldr	r2, [pc, #1156]	; 2006638 <_Z17run_tests_wramcntv+0x534>
 20061b0:	e59f346c 	ldr	r3, [pc, #1132]	; 2006624 <_Z17run_tests_wramcntv+0x520>
 20061b4:	e5922000 	ldr	r2, [r2]
 20061b8:	e1520003 	cmp	r2, r3
 20061bc:	0a000001 	beq	20061c8 <_Z17run_tests_wramcntv+0xc4>
 20061c0:	e3a00004 	mov	r0, #4
 20061c4:	ebfffada 	bl	2004d34 <fail_test>
 20061c8:	e59f246c 	ldr	r2, [pc, #1132]	; 200663c <_Z17run_tests_wramcntv+0x538>
 20061cc:	e59f3454 	ldr	r3, [pc, #1108]	; 2006628 <_Z17run_tests_wramcntv+0x524>
 20061d0:	e5922ffc 	ldr	r2, [r2, #4092]	; 0xffc
 20061d4:	e1520003 	cmp	r2, r3
 20061d8:	0a000001 	beq	20061e4 <_Z17run_tests_wramcntv+0xe0>
 20061dc:	e3a00005 	mov	r0, #5
 20061e0:	ebfffad3 	bl	2004d34 <fail_test>
 20061e4:	e59f2454 	ldr	r2, [pc, #1108]	; 2006640 <_Z17run_tests_wramcntv+0x53c>
 20061e8:	e59f3440 	ldr	r3, [pc, #1088]	; 2006630 <_Z17run_tests_wramcntv+0x52c>
 20061ec:	e5922000 	ldr	r2, [r2]
 20061f0:	e1520003 	cmp	r2, r3
 20061f4:	0a000001 	beq	2006200 <_Z17run_tests_wramcntv+0xfc>
 20061f8:	e3a00006 	mov	r0, #6
 20061fc:	ebfffacc 	bl	2004d34 <fail_test>
 2006200:	e59f243c 	ldr	r2, [pc, #1084]	; 2006644 <_Z17run_tests_wramcntv+0x540>
 2006204:	e59f3428 	ldr	r3, [pc, #1064]	; 2006634 <_Z17run_tests_wramcntv+0x530>
 2006208:	e5922ffc 	ldr	r2, [r2, #4092]	; 0xffc
 200620c:	e1520003 	cmp	r2, r3
 2006210:	0a000001 	beq	200621c <_Z17run_tests_wramcntv+0x118>
 2006214:	e3a00007 	mov	r0, #7
 2006218:	ebfffac5 	bl	2004d34 <fail_test>
 200621c:	e59f0424 	ldr	r0, [pc, #1060]	; 2006648 <_Z17run_tests_wramcntv+0x544>
 2006220:	ebffea2f 	bl	2000ae4 <_Z14ARM7_read_bytem>
 2006224:	e3100003 	tst	r0, #3
 2006228:	1a0000f7 	bne	200660c <_Z17run_tests_wramcntv+0x508>
 200622c:	e59f4418 	ldr	r4, [pc, #1048]	; 200664c <_Z17run_tests_wramcntv+0x548>
 2006230:	e3a0050e 	mov	r0, #58720256	; 0x3800000
 2006234:	e1a01004 	mov	r1, r4
 2006238:	ebffea3c 	bl	2000b30 <_Z15ARM7_write_wordmm>
 200623c:	e59f140c 	ldr	r1, [pc, #1036]	; 2006650 <_Z17run_tests_wramcntv+0x54c>
 2006240:	e59f040c 	ldr	r0, [pc, #1036]	; 2006654 <_Z17run_tests_wramcntv+0x550>
 2006244:	ebffea39 	bl	2000b30 <_Z15ARM7_write_wordmm>
 2006248:	e3a0050e 	mov	r0, #58720256	; 0x3800000
 200624c:	ebffe9fe 	bl	2000a4c <_Z14ARM7_read_wordm>
 2006250:	e1500004 	cmp	r0, r4
 2006254:	0a000001 	beq	2006260 <_Z17run_tests_wramcntv+0x15c>
 2006258:	e3a00009 	mov	r0, #9
 200625c:	ebfffab4 	bl	2004d34 <fail_test>
 2006260:	e59f03ec 	ldr	r0, [pc, #1004]	; 2006654 <_Z17run_tests_wramcntv+0x550>
 2006264:	ebffe9f8 	bl	2000a4c <_Z14ARM7_read_wordm>
 2006268:	e59f33e0 	ldr	r3, [pc, #992]	; 2006650 <_Z17run_tests_wramcntv+0x54c>
 200626c:	e1500003 	cmp	r0, r3
 2006270:	0a000001 	beq	200627c <_Z17run_tests_wramcntv+0x178>
 2006274:	e3a0000a 	mov	r0, #10
 2006278:	ebfffaad 	bl	2004d34 <fail_test>
 200627c:	e3a00403 	mov	r0, #50331648	; 0x3000000
 2006280:	ebffe9f1 	bl	2000a4c <_Z14ARM7_read_wordm>
 2006284:	e59f33c0 	ldr	r3, [pc, #960]	; 200664c <_Z17run_tests_wramcntv+0x548>
 2006288:	e1500003 	cmp	r0, r3
 200628c:	0a000001 	beq	2006298 <_Z17run_tests_wramcntv+0x194>
 2006290:	e3a0000b 	mov	r0, #11
 2006294:	ebfffaa6 	bl	2004d34 <fail_test>
 2006298:	e59f03b8 	ldr	r0, [pc, #952]	; 2006658 <_Z17run_tests_wramcntv+0x554>
 200629c:	ebffe9ea 	bl	2000a4c <_Z14ARM7_read_wordm>
 20062a0:	e59f33a8 	ldr	r3, [pc, #936]	; 2006650 <_Z17run_tests_wramcntv+0x54c>
 20062a4:	e1500003 	cmp	r0, r3
 20062a8:	0a000001 	beq	20062b4 <_Z17run_tests_wramcntv+0x1b0>
 20062ac:	e3a0000c 	mov	r0, #12
 20062b0:	ebfffa9f 	bl	2004d34 <fail_test>
 20062b4:	e3a0050d 	mov	r0, #54525952	; 0x3400000
 20062b8:	ebffe9e3 	bl	2000a4c <_Z14ARM7_read_wordm>
 20062bc:	e59f3388 	ldr	r3, [pc, #904]	; 200664c <_Z17run_tests_wramcntv+0x548>
 20062c0:	e1500003 	cmp	r0, r3
 20062c4:	0a000001 	beq	20062d0 <_Z17run_tests_wramcntv+0x1cc>
 20062c8:	e3a0000d 	mov	r0, #13
 20062cc:	ebfffa98 	bl	2004d34 <fail_test>
 20062d0:	e59f0384 	ldr	r0, [pc, #900]	; 200665c <_Z17run_tests_wramcntv+0x558>
 20062d4:	ebffe9dc 	bl	2000a4c <_Z14ARM7_read_wordm>
 20062d8:	e59f3370 	ldr	r3, [pc, #880]	; 2006650 <_Z17run_tests_wramcntv+0x54c>
 20062dc:	e1500003 	cmp	r0, r3
 20062e0:	0a000001 	beq	20062ec <_Z17run_tests_wramcntv+0x1e8>
 20062e4:	e3a0000e 	mov	r0, #14
 20062e8:	ebfffa91 	bl	2004d34 <fail_test>
 20062ec:	e59f3324 	ldr	r3, [pc, #804]	; 2006618 <_Z17run_tests_wramcntv+0x514>
 20062f0:	e3a02001 	mov	r2, #1
 20062f4:	e5c32047 	strb	r2, [r3, #71]	; 0x47
 20062f8:	e59f0348 	ldr	r0, [pc, #840]	; 2006648 <_Z17run_tests_wramcntv+0x544>
 20062fc:	ebffe9f8 	bl	2000ae4 <_Z14ARM7_read_bytem>
 2006300:	e2000003 	and	r0, r0, #3
 2006304:	e3500001 	cmp	r0, #1
 2006308:	0a000001 	beq	2006314 <_Z17run_tests_wramcntv+0x210>
 200630c:	e3a0000f 	mov	r0, #15
 2006310:	ebfffa87 	bl	2004d34 <fail_test>
 2006314:	e3a03403 	mov	r3, #50331648	; 0x3000000
 2006318:	e5932000 	ldr	r2, [r3]
 200631c:	e59f330c 	ldr	r3, [pc, #780]	; 2006630 <_Z17run_tests_wramcntv+0x52c>
 2006320:	e1520003 	cmp	r2, r3
 2006324:	0a000001 	beq	2006330 <_Z17run_tests_wramcntv+0x22c>
 2006328:	e3a00010 	mov	r0, #16
 200632c:	ebfffa80 	bl	2004d34 <fail_test>
 2006330:	e59f22e4 	ldr	r2, [pc, #740]	; 200661c <_Z17run_tests_wramcntv+0x518>
 2006334:	e59f32f8 	ldr	r3, [pc, #760]	; 2006634 <_Z17run_tests_wramcntv+0x530>
 2006338:	e5922ffc 	ldr	r2, [r2, #4092]	; 0xffc
 200633c:	e1520003 	cmp	r2, r3
 2006340:	0a000001 	beq	200634c <_Z17run_tests_wramcntv+0x248>
 2006344:	e3a00011 	mov	r0, #17
 2006348:	ebfffa79 	bl	2004d34 <fail_test>
 200634c:	e59f230c 	ldr	r2, [pc, #780]	; 2006660 <_Z17run_tests_wramcntv+0x55c>
 2006350:	e59f32d8 	ldr	r3, [pc, #728]	; 2006630 <_Z17run_tests_wramcntv+0x52c>
 2006354:	e5922000 	ldr	r2, [r2]
 2006358:	e1520003 	cmp	r2, r3
 200635c:	0a000001 	beq	2006368 <_Z17run_tests_wramcntv+0x264>
 2006360:	e3a00012 	mov	r0, #18
 2006364:	ebfffa72 	bl	2004d34 <fail_test>
 2006368:	e59f22f4 	ldr	r2, [pc, #756]	; 2006664 <_Z17run_tests_wramcntv+0x560>
 200636c:	e59f32c0 	ldr	r3, [pc, #704]	; 2006634 <_Z17run_tests_wramcntv+0x530>
 2006370:	e5922ffc 	ldr	r2, [r2, #4092]	; 0xffc
 2006374:	e1520003 	cmp	r2, r3
 2006378:	0a000001 	beq	2006384 <_Z17run_tests_wramcntv+0x280>
 200637c:	e3a00013 	mov	r0, #19
 2006380:	ebfffa6b 	bl	2004d34 <fail_test>
 2006384:	e3a00403 	mov	r0, #50331648	; 0x3000000
 2006388:	ebffe9af 	bl	2000a4c <_Z14ARM7_read_wordm>
 200638c:	e59f3290 	ldr	r3, [pc, #656]	; 2006624 <_Z17run_tests_wramcntv+0x520>
 2006390:	e1500003 	cmp	r0, r3
 2006394:	0a000001 	beq	20063a0 <_Z17run_tests_wramcntv+0x29c>
 2006398:	e3a00014 	mov	r0, #20
 200639c:	ebfffa64 	bl	2004d34 <fail_test>
 20063a0:	e59f02c0 	ldr	r0, [pc, #704]	; 2006668 <_Z17run_tests_wramcntv+0x564>
 20063a4:	ebffe9a8 	bl	2000a4c <_Z14ARM7_read_wordm>
 20063a8:	e59f3278 	ldr	r3, [pc, #632]	; 2006628 <_Z17run_tests_wramcntv+0x524>
 20063ac:	e1500003 	cmp	r0, r3
 20063b0:	0a000001 	beq	20063bc <_Z17run_tests_wramcntv+0x2b8>
 20063b4:	e3a00015 	mov	r0, #21
 20063b8:	ebfffa5d 	bl	2004d34 <fail_test>
 20063bc:	e59f02a8 	ldr	r0, [pc, #680]	; 200666c <_Z17run_tests_wramcntv+0x568>
 20063c0:	ebffe9a1 	bl	2000a4c <_Z14ARM7_read_wordm>
 20063c4:	e59f3258 	ldr	r3, [pc, #600]	; 2006624 <_Z17run_tests_wramcntv+0x520>
 20063c8:	e1500003 	cmp	r0, r3
 20063cc:	0a000001 	beq	20063d8 <_Z17run_tests_wramcntv+0x2d4>
 20063d0:	e3a00016 	mov	r0, #22
 20063d4:	ebfffa56 	bl	2004d34 <fail_test>
 20063d8:	e59f0278 	ldr	r0, [pc, #632]	; 2006658 <_Z17run_tests_wramcntv+0x554>
 20063dc:	ebffe99a 	bl	2000a4c <_Z14ARM7_read_wordm>
 20063e0:	e59f3240 	ldr	r3, [pc, #576]	; 2006628 <_Z17run_tests_wramcntv+0x524>
 20063e4:	e1500003 	cmp	r0, r3
 20063e8:	0a000001 	beq	20063f4 <_Z17run_tests_wramcntv+0x2f0>
 20063ec:	e3a00017 	mov	r0, #23
 20063f0:	ebfffa4f 	bl	2004d34 <fail_test>
 20063f4:	e59f321c 	ldr	r3, [pc, #540]	; 2006618 <_Z17run_tests_wramcntv+0x514>
 20063f8:	e3a02002 	mov	r2, #2
 20063fc:	e5c32047 	strb	r2, [r3, #71]	; 0x47
 2006400:	e59f0240 	ldr	r0, [pc, #576]	; 2006648 <_Z17run_tests_wramcntv+0x544>
 2006404:	ebffe9b6 	bl	2000ae4 <_Z14ARM7_read_bytem>
 2006408:	e2000003 	and	r0, r0, #3
 200640c:	e3500002 	cmp	r0, #2
 2006410:	0a000001 	beq	200641c <_Z17run_tests_wramcntv+0x318>
 2006414:	e3a00018 	mov	r0, #24
 2006418:	ebfffa45 	bl	2004d34 <fail_test>
 200641c:	e3a03403 	mov	r3, #50331648	; 0x3000000
 2006420:	e5932000 	ldr	r2, [r3]
 2006424:	e59f31f8 	ldr	r3, [pc, #504]	; 2006624 <_Z17run_tests_wramcntv+0x520>
 2006428:	e1520003 	cmp	r2, r3
 200642c:	0a000001 	beq	2006438 <_Z17run_tests_wramcntv+0x334>
 2006430:	e3a00019 	mov	r0, #25
 2006434:	ebfffa3e 	bl	2004d34 <fail_test>
 2006438:	e59f21dc 	ldr	r2, [pc, #476]	; 200661c <_Z17run_tests_wramcntv+0x518>
 200643c:	e59f31e4 	ldr	r3, [pc, #484]	; 2006628 <_Z17run_tests_wramcntv+0x524>
 2006440:	e5922ffc 	ldr	r2, [r2, #4092]	; 0xffc
 2006444:	e1520003 	cmp	r2, r3
 2006448:	0a000001 	beq	2006454 <_Z17run_tests_wramcntv+0x350>
 200644c:	e3a0001a 	mov	r0, #26
 2006450:	ebfffa37 	bl	2004d34 <fail_test>
 2006454:	e59f2204 	ldr	r2, [pc, #516]	; 2006660 <_Z17run_tests_wramcntv+0x55c>
 2006458:	e59f31c4 	ldr	r3, [pc, #452]	; 2006624 <_Z17run_tests_wramcntv+0x520>
 200645c:	e5922000 	ldr	r2, [r2]
 2006460:	e1520003 	cmp	r2, r3
 2006464:	0a000001 	beq	2006470 <_Z17run_tests_wramcntv+0x36c>
 2006468:	e3a0001b 	mov	r0, #27
 200646c:	ebfffa30 	bl	2004d34 <fail_test>
 2006470:	e59f21ec 	ldr	r2, [pc, #492]	; 2006664 <_Z17run_tests_wramcntv+0x560>
 2006474:	e59f31ac 	ldr	r3, [pc, #428]	; 2006628 <_Z17run_tests_wramcntv+0x524>
 2006478:	e5922ffc 	ldr	r2, [r2, #4092]	; 0xffc
 200647c:	e1520003 	cmp	r2, r3
 2006480:	0a000001 	beq	200648c <_Z17run_tests_wramcntv+0x388>
 2006484:	e3a0001c 	mov	r0, #28
 2006488:	ebfffa29 	bl	2004d34 <fail_test>
 200648c:	e3a00403 	mov	r0, #50331648	; 0x3000000
 2006490:	ebffe96d 	bl	2000a4c <_Z14ARM7_read_wordm>
 2006494:	e59f3194 	ldr	r3, [pc, #404]	; 2006630 <_Z17run_tests_wramcntv+0x52c>
 2006498:	e1500003 	cmp	r0, r3
 200649c:	0a000001 	beq	20064a8 <_Z17run_tests_wramcntv+0x3a4>
 20064a0:	e3a0001d 	mov	r0, #29
 20064a4:	ebfffa22 	bl	2004d34 <fail_test>
 20064a8:	e59f01b8 	ldr	r0, [pc, #440]	; 2006668 <_Z17run_tests_wramcntv+0x564>
 20064ac:	ebffe966 	bl	2000a4c <_Z14ARM7_read_wordm>
 20064b0:	e59f317c 	ldr	r3, [pc, #380]	; 2006634 <_Z17run_tests_wramcntv+0x530>
 20064b4:	e1500003 	cmp	r0, r3
 20064b8:	0a000001 	beq	20064c4 <_Z17run_tests_wramcntv+0x3c0>
 20064bc:	e3a0001e 	mov	r0, #30
 20064c0:	ebfffa1b 	bl	2004d34 <fail_test>
 20064c4:	e59f01a0 	ldr	r0, [pc, #416]	; 200666c <_Z17run_tests_wramcntv+0x568>
 20064c8:	ebffe95f 	bl	2000a4c <_Z14ARM7_read_wordm>
 20064cc:	e59f315c 	ldr	r3, [pc, #348]	; 2006630 <_Z17run_tests_wramcntv+0x52c>
 20064d0:	e1500003 	cmp	r0, r3
 20064d4:	0a000001 	beq	20064e0 <_Z17run_tests_wramcntv+0x3dc>
 20064d8:	e3a0001f 	mov	r0, #31
 20064dc:	ebfffa14 	bl	2004d34 <fail_test>
 20064e0:	e59f0170 	ldr	r0, [pc, #368]	; 2006658 <_Z17run_tests_wramcntv+0x554>
 20064e4:	ebffe958 	bl	2000a4c <_Z14ARM7_read_wordm>
 20064e8:	e59f3144 	ldr	r3, [pc, #324]	; 2006634 <_Z17run_tests_wramcntv+0x530>
 20064ec:	e1500003 	cmp	r0, r3
 20064f0:	0a000001 	beq	20064fc <_Z17run_tests_wramcntv+0x3f8>
 20064f4:	e3a00020 	mov	r0, #32
 20064f8:	ebfffa0d 	bl	2004d34 <fail_test>
 20064fc:	e59f3114 	ldr	r3, [pc, #276]	; 2006618 <_Z17run_tests_wramcntv+0x514>
 2006500:	e3a02003 	mov	r2, #3
 2006504:	e5c32047 	strb	r2, [r3, #71]	; 0x47
 2006508:	e59f0138 	ldr	r0, [pc, #312]	; 2006648 <_Z17run_tests_wramcntv+0x544>
 200650c:	ebffe974 	bl	2000ae4 <_Z14ARM7_read_bytem>
 2006510:	e2000003 	and	r0, r0, #3
 2006514:	e3500003 	cmp	r0, #3
 2006518:	0a000001 	beq	2006524 <_Z17run_tests_wramcntv+0x420>
 200651c:	e3a00021 	mov	r0, #33	; 0x21
 2006520:	ebfffa03 	bl	2004d34 <fail_test>
 2006524:	e3a00403 	mov	r0, #50331648	; 0x3000000
 2006528:	ebffe947 	bl	2000a4c <_Z14ARM7_read_wordm>
 200652c:	e59f30f0 	ldr	r3, [pc, #240]	; 2006624 <_Z17run_tests_wramcntv+0x520>
 2006530:	e1500003 	cmp	r0, r3
 2006534:	0a000001 	beq	2006540 <_Z17run_tests_wramcntv+0x43c>
 2006538:	e3a00022 	mov	r0, #34	; 0x22
 200653c:	ebfff9fc 	bl	2004d34 <fail_test>
 2006540:	e59f0120 	ldr	r0, [pc, #288]	; 2006668 <_Z17run_tests_wramcntv+0x564>
 2006544:	ebffe940 	bl	2000a4c <_Z14ARM7_read_wordm>
 2006548:	e59f30d8 	ldr	r3, [pc, #216]	; 2006628 <_Z17run_tests_wramcntv+0x524>
 200654c:	e1500003 	cmp	r0, r3
 2006550:	0a000001 	beq	200655c <_Z17run_tests_wramcntv+0x458>
 2006554:	e3a00023 	mov	r0, #35	; 0x23
 2006558:	ebfff9f5 	bl	2004d34 <fail_test>
 200655c:	e59f0108 	ldr	r0, [pc, #264]	; 200666c <_Z17run_tests_wramcntv+0x568>
 2006560:	ebffe939 	bl	2000a4c <_Z14ARM7_read_wordm>
 2006564:	e59f30c4 	ldr	r3, [pc, #196]	; 2006630 <_Z17run_tests_wramcntv+0x52c>
 2006568:	e1500003 	cmp	r0, r3
 200656c:	0a000001 	beq	2006578 <_Z17run_tests_wramcntv+0x474>
 2006570:	e3a00024 	mov	r0, #36	; 0x24
 2006574:	ebfff9ee 	bl	2004d34 <fail_test>
 2006578:	e59f00d8 	ldr	r0, [pc, #216]	; 2006658 <_Z17run_tests_wramcntv+0x554>
 200657c:	ebffe932 	bl	2000a4c <_Z14ARM7_read_wordm>
 2006580:	e59f30ac 	ldr	r3, [pc, #172]	; 2006634 <_Z17run_tests_wramcntv+0x530>
 2006584:	e1500003 	cmp	r0, r3
 2006588:	0a000001 	beq	2006594 <_Z17run_tests_wramcntv+0x490>
 200658c:	e3a00025 	mov	r0, #37	; 0x25
 2006590:	ebfff9e7 	bl	2004d34 <fail_test>
 2006594:	e59f00d4 	ldr	r0, [pc, #212]	; 2006670 <_Z17run_tests_wramcntv+0x56c>
 2006598:	ebffe92b 	bl	2000a4c <_Z14ARM7_read_wordm>
 200659c:	e59f3080 	ldr	r3, [pc, #128]	; 2006624 <_Z17run_tests_wramcntv+0x520>
 20065a0:	e1500003 	cmp	r0, r3
 20065a4:	0a000001 	beq	20065b0 <_Z17run_tests_wramcntv+0x4ac>
 20065a8:	e3a00026 	mov	r0, #38	; 0x26
 20065ac:	ebfff9e0 	bl	2004d34 <fail_test>
 20065b0:	e59f00bc 	ldr	r0, [pc, #188]	; 2006674 <_Z17run_tests_wramcntv+0x570>
 20065b4:	ebffe924 	bl	2000a4c <_Z14ARM7_read_wordm>
 20065b8:	e59f3068 	ldr	r3, [pc, #104]	; 2006628 <_Z17run_tests_wramcntv+0x524>
 20065bc:	e1500003 	cmp	r0, r3
 20065c0:	0a000001 	beq	20065cc <_Z17run_tests_wramcntv+0x4c8>
 20065c4:	e3a00027 	mov	r0, #39	; 0x27
 20065c8:	ebfff9d9 	bl	2004d34 <fail_test>
 20065cc:	e59f00a4 	ldr	r0, [pc, #164]	; 2006678 <_Z17run_tests_wramcntv+0x574>
 20065d0:	ebffe91d 	bl	2000a4c <_Z14ARM7_read_wordm>
 20065d4:	e59f3054 	ldr	r3, [pc, #84]	; 2006630 <_Z17run_tests_wramcntv+0x52c>
 20065d8:	e1500003 	cmp	r0, r3
 20065dc:	0a000001 	beq	20065e8 <_Z17run_tests_wramcntv+0x4e4>
 20065e0:	e3a00028 	mov	r0, #40	; 0x28
 20065e4:	ebfff9d2 	bl	2004d34 <fail_test>
 20065e8:	e59f008c 	ldr	r0, [pc, #140]	; 200667c <_Z17run_tests_wramcntv+0x578>
 20065ec:	ebffe916 	bl	2000a4c <_Z14ARM7_read_wordm>
 20065f0:	e59f303c 	ldr	r3, [pc, #60]	; 2006634 <_Z17run_tests_wramcntv+0x530>
 20065f4:	e1500003 	cmp	r0, r3
 20065f8:	0a000001 	beq	2006604 <_Z17run_tests_wramcntv+0x500>
 20065fc:	e3a00029 	mov	r0, #41	; 0x29
 2006600:	ebfff9cb 	bl	2004d34 <fail_test>
 2006604:	e8bd4010 	pop	{r4, r14}
 2006608:	eaffe951 	b	2000b54 <_Z11ARM7_end_rwv>
 200660c:	e3a00008 	mov	r0, #8
 2006610:	ebfff9c7 	bl	2004d34 <fail_test>
 2006614:	eaffff04 	b	200622c <_Z17run_tests_wramcntv+0x128>
 2006618:	04000200 	streq	r0, [r0], #-512	; 0xfffffe00
 200661c:	03003000 	movweq	r3, #0
 2006620:	03004000 	movweq	r4, #0
 2006624:	1a2b3c4d 	bne	2ad5760 <__bss_end__+0xabcfd0>
 2006628:	1f2f3f4f 	svcne	0x002f3f4f
 200662c:	03007000 	movweq	r7, #0
 2006630:	2f3f4f5f 	svccs	0x003f4f5f
 2006634:	89abcdef 	stmibhi	r11!, {r0, r1, r2, r3, r5, r6, r7, r8, r10, r11, r14, r15}
 2006638:	03020000 	movweq	r0, #8192	; 0x2000
 200663c:	03023000 	movweq	r3, #8192	; 0x2000
 2006640:	03024000 	movweq	r4, #8192	; 0x2000
 2006644:	03027000 	movweq	r7, #8192	; 0x2000
 2006648:	04000241 	streq	r0, [r0], #-577	; 0xfffffdbf
 200664c:	c0de5890 	smullsgt	r5, r14, r0, r8
 2006650:	deadbeef 	cdple	14, 10, cr11, cr13, cr15, {7}
 2006654:	0380fffc 	orreq	r15, r0, #252, 30	; 0x3f0
 2006658:	0300fffc 	movweq	r15, #4092	; 0xffc	; <UNPREDICTABLE>
 200665c:	0340fffc 	movteq	r15, #4092	; 0xffc	; <UNPREDICTABLE>
 2006660:	0304c000 	movweq	r12, #16384	; 0x4000
 2006664:	0304f000 	movweq	r15, #16384	; 0x4000	; <UNPREDICTABLE>
 2006668:	03003ffc 	movweq	r3, #4092	; 0xffc
 200666c:	0300c000 	movweq	r12, #0
 2006670:	03110000 	tsteq	r1, #0
 2006674:	03223ffc 			; <UNDEFINED> instruction: 0x03223ffc
 2006678:	0333c000 	teqeq	r3, #0
 200667c:	0344fffc 	movteq	r15, #20476	; 0x4ffc	; <UNPREDICTABLE>

02006680 <run_tests_armv5_clz>:
 2006680:	e3a00000 	mov	r0, #0
 2006684:	e3a01102 	mov	r1, #-2147483648	; 0x80000000
 2006688:	e16f2f11 	clz	r2, r1
 200668c:	e3520000 	cmp	r2, #0
 2006690:	1afff9a7 	bne	2004d34 <fail_test>
 2006694:	e3a00001 	mov	r0, #1
 2006698:	e59f1f34 	ldr	r1, [pc, #3892]	; 20075d4 <run_tests_armv5_ldrpopr15+0xf8>
 200669c:	e16f2f11 	clz	r2, r1
 20066a0:	e3520009 	cmp	r2, #9
 20066a4:	1afff9a2 	bne	2004d34 <fail_test>
 20066a8:	e3a00002 	mov	r0, #2
 20066ac:	e3a01001 	mov	r1, #1
 20066b0:	e16f2f11 	clz	r2, r1
 20066b4:	e352001f 	cmp	r2, #31
 20066b8:	1afff99d 	bne	2004d34 <fail_test>
 20066bc:	e3a00003 	mov	r0, #3
 20066c0:	e3a01000 	mov	r1, #0
 20066c4:	e16f2f11 	clz	r2, r1
 20066c8:	e3520020 	cmp	r2, #32
 20066cc:	1afff998 	bne	2004d34 <fail_test>
 20066d0:	e3a00004 	mov	r0, #4
 20066d4:	e59f1efc 	ldr	r1, [pc, #3836]	; 20075d8 <run_tests_armv5_ldrpopr15+0xfc>
 20066d8:	e16f1f11 	clz	r1, r1
 20066dc:	e3510011 	cmp	r1, #17
 20066e0:	1afff993 	bne	2004d34 <fail_test>
 20066e4:	e3a00005 	mov	r0, #5
 20066e8:	e3a01205 	mov	r1, #1342177280	; 0x50000000
 20066ec:	e16f1f11 	clz	r1, r1
 20066f0:	e3510001 	cmp	r1, #1
 20066f4:	1afff98e 	bne	2004d34 <fail_test>
 20066f8:	e12fff1e 	bx	r14

020066fc <run_tests_armv5_qadd_qsub>:
 20066fc:	e92d0030 	push	{r4, r5}
 2006700:	e3a04000 	mov	r4, #0
 2006704:	e128f004 	msr	CPSR_f, r4
 2006708:	e3a00000 	mov	r0, #0
 200670c:	e128f004 	msr	CPSR_f, r4
 2006710:	e3a02002 	mov	r2, #2
 2006714:	e3a03003 	mov	r3, #3
 2006718:	e1031052 	qadd	r1, r2, r3
 200671c:	e3510005 	cmp	r1, #5
 2006720:	1afff983 	bne	2004d34 <fail_test>
 2006724:	e10f5000 	mrs	r5, CPSR
 2006728:	e3150302 	tst	r5, #134217728	; 0x8000000
 200672c:	1afff980 	bne	2004d34 <fail_test>
 2006730:	e3a00001 	mov	r0, #1
 2006734:	e3a02007 	mov	r2, #7
 2006738:	e3e03005 	mvn	r3, #5
 200673c:	e1031052 	qadd	r1, r2, r3
 2006740:	e3510001 	cmp	r1, #1
 2006744:	1afff97a 	bne	2004d34 <fail_test>
 2006748:	e10f5000 	mrs	r5, CPSR
 200674c:	e3150302 	tst	r5, #134217728	; 0x8000000
 2006750:	1afff977 	bne	2004d34 <fail_test>
 2006754:	e3a00002 	mov	r0, #2
 2006758:	e3e0202b 	mvn	r2, #43	; 0x2b
 200675c:	e3e0300d 	mvn	r3, #13
 2006760:	e1031052 	qadd	r1, r2, r3
 2006764:	e371003a 	cmn	r1, #58	; 0x3a
 2006768:	1afff971 	bne	2004d34 <fail_test>
 200676c:	e10f5000 	mrs	r5, CPSR
 2006770:	e3150302 	tst	r5, #134217728	; 0x8000000
 2006774:	1afff96e 	bne	2004d34 <fail_test>
 2006778:	e3a00003 	mov	r0, #3
 200677c:	e3e02102 	mvn	r2, #-2147483648	; 0x80000000
 2006780:	e3a03001 	mov	r3, #1
 2006784:	e1031052 	qadd	r1, r2, r3
 2006788:	e1510002 	cmp	r1, r2
 200678c:	1afff968 	bne	2004d34 <fail_test>
 2006790:	e10f5000 	mrs	r5, CPSR
 2006794:	e3150302 	tst	r5, #134217728	; 0x8000000
 2006798:	0afff965 	beq	2004d34 <fail_test>
 200679c:	e3a00004 	mov	r0, #4
 20067a0:	e3a02006 	mov	r2, #6
 20067a4:	e3a03007 	mov	r3, #7
 20067a8:	e1031052 	qadd	r1, r2, r3
 20067ac:	e351000d 	cmp	r1, #13
 20067b0:	1afff95f 	bne	2004d34 <fail_test>
 20067b4:	e10f5000 	mrs	r5, CPSR
 20067b8:	e3150302 	tst	r5, #134217728	; 0x8000000
 20067bc:	0afff95c 	beq	2004d34 <fail_test>
 20067c0:	e128f004 	msr	CPSR_f, r4
 20067c4:	e3a00005 	mov	r0, #5
 20067c8:	e3e02102 	mvn	r2, #-2147483648	; 0x80000000
 20067cc:	e3e03000 	mvn	r3, #0
 20067d0:	e1031052 	qadd	r1, r2, r3
 20067d4:	e371010a 	cmn	r1, #-2147483646	; 0x80000002
 20067d8:	1afff955 	bne	2004d34 <fail_test>
 20067dc:	e10f5000 	mrs	r5, CPSR
 20067e0:	e3150302 	tst	r5, #134217728	; 0x8000000
 20067e4:	1afff952 	bne	2004d34 <fail_test>
 20067e8:	e3a00006 	mov	r0, #6
 20067ec:	e3a02102 	mov	r2, #-2147483648	; 0x80000000
 20067f0:	e3e03000 	mvn	r3, #0
 20067f4:	e1031052 	qadd	r1, r2, r3
 20067f8:	e3510102 	cmp	r1, #-2147483648	; 0x80000000
 20067fc:	1afff94c 	bne	2004d34 <fail_test>
 2006800:	e10f5000 	mrs	r5, CPSR
 2006804:	e3150302 	tst	r5, #134217728	; 0x8000000
 2006808:	0afff949 	beq	2004d34 <fail_test>
 200680c:	e128f004 	msr	CPSR_f, r4
 2006810:	e3a00007 	mov	r0, #7
 2006814:	e3a02102 	mov	r2, #-2147483648	; 0x80000000
 2006818:	e3a03001 	mov	r3, #1
 200681c:	e1031052 	qadd	r1, r2, r3
 2006820:	e3510106 	cmp	r1, #-2147483647	; 0x80000001
 2006824:	1afff942 	bne	2004d34 <fail_test>
 2006828:	e10f5000 	mrs	r5, CPSR
 200682c:	e3150302 	tst	r5, #134217728	; 0x8000000
 2006830:	1afff93f 	bne	2004d34 <fail_test>
 2006834:	e3a00008 	mov	r0, #8
 2006838:	e3e02106 	mvn	r2, #-2147483647	; 0x80000001
 200683c:	e3a03001 	mov	r3, #1
 2006840:	e1031052 	qadd	r1, r2, r3
 2006844:	e3710106 	cmn	r1, #-2147483647	; 0x80000001
 2006848:	1afff939 	bne	2004d34 <fail_test>
 200684c:	e10f5000 	mrs	r5, CPSR
 2006850:	e3150302 	tst	r5, #134217728	; 0x8000000
 2006854:	1afff936 	bne	2004d34 <fail_test>
 2006858:	e3a00009 	mov	r0, #9
 200685c:	e3a02106 	mov	r2, #-2147483647	; 0x80000001
 2006860:	e3e03000 	mvn	r3, #0
 2006864:	e1031052 	qadd	r1, r2, r3
 2006868:	e3510102 	cmp	r1, #-2147483648	; 0x80000000
 200686c:	1afff930 	bne	2004d34 <fail_test>
 2006870:	e10f5000 	mrs	r5, CPSR
 2006874:	e3150302 	tst	r5, #134217728	; 0x8000000
 2006878:	1afff92d 	bne	2004d34 <fail_test>
 200687c:	e3a0000a 	mov	r0, #10
 2006880:	e3e02102 	mvn	r2, #-2147483648	; 0x80000000
 2006884:	e3a03102 	mov	r3, #-2147483648	; 0x80000000
 2006888:	e1031052 	qadd	r1, r2, r3
 200688c:	e3710001 	cmn	r1, #1
 2006890:	1afff927 	bne	2004d34 <fail_test>
 2006894:	e10f5000 	mrs	r5, CPSR
 2006898:	e3150302 	tst	r5, #134217728	; 0x8000000
 200689c:	1afff924 	bne	2004d34 <fail_test>
 20068a0:	e3a00010 	mov	r0, #16
 20068a4:	e3a02007 	mov	r2, #7
 20068a8:	e3a0300b 	mov	r3, #11
 20068ac:	e1231052 	qsub	r1, r2, r3
 20068b0:	e3710004 	cmn	r1, #4
 20068b4:	1afff91e 	bne	2004d34 <fail_test>
 20068b8:	e10f5000 	mrs	r5, CPSR
 20068bc:	e3150302 	tst	r5, #134217728	; 0x8000000
 20068c0:	1afff91b 	bne	2004d34 <fail_test>
 20068c4:	e3a00011 	mov	r0, #17
 20068c8:	e3e02102 	mvn	r2, #-2147483648	; 0x80000000
 20068cc:	e3a03000 	mov	r3, #0
 20068d0:	e1231052 	qsub	r1, r2, r3
 20068d4:	e1510002 	cmp	r1, r2
 20068d8:	1afff915 	bne	2004d34 <fail_test>
 20068dc:	e10f5000 	mrs	r5, CPSR
 20068e0:	e3150302 	tst	r5, #134217728	; 0x8000000
 20068e4:	1afff912 	bne	2004d34 <fail_test>
 20068e8:	e3a00012 	mov	r0, #18
 20068ec:	e3e02102 	mvn	r2, #-2147483648	; 0x80000000
 20068f0:	e3e03000 	mvn	r3, #0
 20068f4:	e1231052 	qsub	r1, r2, r3
 20068f8:	e1510002 	cmp	r1, r2
 20068fc:	1afff90c 	bne	2004d34 <fail_test>
 2006900:	e10f5000 	mrs	r5, CPSR
 2006904:	e3150302 	tst	r5, #134217728	; 0x8000000
 2006908:	0afff909 	beq	2004d34 <fail_test>
 200690c:	e128f004 	msr	CPSR_f, r4
 2006910:	e3a00013 	mov	r0, #19
 2006914:	e3e02102 	mvn	r2, #-2147483648	; 0x80000000
 2006918:	e3a03001 	mov	r3, #1
 200691c:	e1231052 	qsub	r1, r2, r3
 2006920:	e371010a 	cmn	r1, #-2147483646	; 0x80000002
 2006924:	1afff902 	bne	2004d34 <fail_test>
 2006928:	e10f5000 	mrs	r5, CPSR
 200692c:	e3150302 	tst	r5, #134217728	; 0x8000000
 2006930:	1afff8ff 	bne	2004d34 <fail_test>
 2006934:	e3a00014 	mov	r0, #20
 2006938:	e3e02106 	mvn	r2, #-2147483647	; 0x80000001
 200693c:	e3a03001 	mov	r3, #1
 2006940:	e1231052 	qsub	r1, r2, r3
 2006944:	e371010e 	cmn	r1, #-2147483645	; 0x80000003
 2006948:	1afff8f9 	bne	2004d34 <fail_test>
 200694c:	e10f5000 	mrs	r5, CPSR
 2006950:	e3150302 	tst	r5, #134217728	; 0x8000000
 2006954:	1afff8f6 	bne	2004d34 <fail_test>
 2006958:	e3a00015 	mov	r0, #21
 200695c:	e3e02106 	mvn	r2, #-2147483647	; 0x80000001
 2006960:	e3e03000 	mvn	r3, #0
 2006964:	e1231052 	qsub	r1, r2, r3
 2006968:	e3710106 	cmn	r1, #-2147483647	; 0x80000001
 200696c:	1afff8f0 	bne	2004d34 <fail_test>
 2006970:	e10f5000 	mrs	r5, CPSR
 2006974:	e3150302 	tst	r5, #134217728	; 0x8000000
 2006978:	1afff8ed 	bne	2004d34 <fail_test>
 200697c:	e3a00016 	mov	r0, #22
 2006980:	e3e02106 	mvn	r2, #-2147483647	; 0x80000001
 2006984:	e3e03001 	mvn	r3, #1
 2006988:	e1231052 	qsub	r1, r2, r3
 200698c:	e3710106 	cmn	r1, #-2147483647	; 0x80000001
 2006990:	1afff8e7 	bne	2004d34 <fail_test>
 2006994:	e10f5000 	mrs	r5, CPSR
 2006998:	e3150302 	tst	r5, #134217728	; 0x8000000
 200699c:	0afff8e4 	beq	2004d34 <fail_test>
 20069a0:	e128f004 	msr	CPSR_f, r4
 20069a4:	e3a00017 	mov	r0, #23
 20069a8:	e3a02102 	mov	r2, #-2147483648	; 0x80000000
 20069ac:	e3a03000 	mov	r3, #0
 20069b0:	e1231052 	qsub	r1, r2, r3
 20069b4:	e3510102 	cmp	r1, #-2147483648	; 0x80000000
 20069b8:	1afff8dd 	bne	2004d34 <fail_test>
 20069bc:	e10f5000 	mrs	r5, CPSR
 20069c0:	e3150302 	tst	r5, #134217728	; 0x8000000
 20069c4:	1afff8da 	bne	2004d34 <fail_test>
 20069c8:	e3a00018 	mov	r0, #24
 20069cc:	e3a02102 	mov	r2, #-2147483648	; 0x80000000
 20069d0:	e3e03000 	mvn	r3, #0
 20069d4:	e1231052 	qsub	r1, r2, r3
 20069d8:	e3510106 	cmp	r1, #-2147483647	; 0x80000001
 20069dc:	1afff8d4 	bne	2004d34 <fail_test>
 20069e0:	e10f5000 	mrs	r5, CPSR
 20069e4:	e3150302 	tst	r5, #134217728	; 0x8000000
 20069e8:	1afff8d1 	bne	2004d34 <fail_test>
 20069ec:	e3a00019 	mov	r0, #25
 20069f0:	e3a02102 	mov	r2, #-2147483648	; 0x80000000
 20069f4:	e3a03001 	mov	r3, #1
 20069f8:	e1231052 	qsub	r1, r2, r3
 20069fc:	e3510102 	cmp	r1, #-2147483648	; 0x80000000
 2006a00:	1afff8cb 	bne	2004d34 <fail_test>
 2006a04:	e10f5000 	mrs	r5, CPSR
 2006a08:	e3150302 	tst	r5, #134217728	; 0x8000000
 2006a0c:	0afff8c8 	beq	2004d34 <fail_test>
 2006a10:	e128f004 	msr	CPSR_f, r4
 2006a14:	e3a0001a 	mov	r0, #26
 2006a18:	e3a020d6 	mov	r2, #214	; 0xd6
 2006a1c:	e3e0300a 	mvn	r3, #10
 2006a20:	e1231052 	qsub	r1, r2, r3
 2006a24:	e35100e1 	cmp	r1, #225	; 0xe1
 2006a28:	1afff8c1 	bne	2004d34 <fail_test>
 2006a2c:	e10f5000 	mrs	r5, CPSR
 2006a30:	e3150302 	tst	r5, #134217728	; 0x8000000
 2006a34:	1afff8be 	bne	2004d34 <fail_test>
 2006a38:	e8bd0030 	pop	{r4, r5}
 2006a3c:	e12fff1e 	bx	r14

02006a40 <run_tests_armv5_qdadd_qdsub>:
 2006a40:	e92d0030 	push	{r4, r5}
 2006a44:	e3a04000 	mov	r4, #0
 2006a48:	e128f004 	msr	CPSR_f, r4
 2006a4c:	e3a00000 	mov	r0, #0
 2006a50:	e3a0206a 	mov	r2, #106	; 0x6a
 2006a54:	e3a03008 	mov	r3, #8
 2006a58:	e1431052 	qdadd	r1, r2, r3
 2006a5c:	e351007a 	cmp	r1, #122	; 0x7a
 2006a60:	1afff8b3 	bne	2004d34 <fail_test>
 2006a64:	e10f5000 	mrs	r5, CPSR
 2006a68:	e3150302 	tst	r5, #134217728	; 0x8000000
 2006a6c:	1afff8b0 	bne	2004d34 <fail_test>
 2006a70:	e3a00001 	mov	r0, #1
 2006a74:	e3a02090 	mov	r2, #144	; 0x90
 2006a78:	e3e0300b 	mvn	r3, #11
 2006a7c:	e1431052 	qdadd	r1, r2, r3
 2006a80:	e3510078 	cmp	r1, #120	; 0x78
 2006a84:	1afff8aa 	bne	2004d34 <fail_test>
 2006a88:	e10f5000 	mrs	r5, CPSR
 2006a8c:	e3150302 	tst	r5, #134217728	; 0x8000000
 2006a90:	1afff8a7 	bne	2004d34 <fail_test>
 2006a94:	e3a00002 	mov	r0, #2
 2006a98:	e3e0200a 	mvn	r2, #10
 2006a9c:	e3a03008 	mov	r3, #8
 2006aa0:	e1431052 	qdadd	r1, r2, r3
 2006aa4:	e3510005 	cmp	r1, #5
 2006aa8:	1afff8a1 	bne	2004d34 <fail_test>
 2006aac:	e10f5000 	mrs	r5, CPSR
 2006ab0:	e3150302 	tst	r5, #134217728	; 0x8000000
 2006ab4:	1afff89e 	bne	2004d34 <fail_test>
 2006ab8:	e3a00003 	mov	r0, #3
 2006abc:	e3a02009 	mov	r2, #9
 2006ac0:	e3e0300b 	mvn	r3, #11
 2006ac4:	e1431052 	qdadd	r1, r2, r3
 2006ac8:	e371000f 	cmn	r1, #15
 2006acc:	1afff898 	bne	2004d34 <fail_test>
 2006ad0:	e10f5000 	mrs	r5, CPSR
 2006ad4:	e3150302 	tst	r5, #134217728	; 0x8000000
 2006ad8:	1afff895 	bne	2004d34 <fail_test>
 2006adc:	e3a00004 	mov	r0, #4
 2006ae0:	e3e0211e 	mvn	r2, #-2147483641	; 0x80000007
 2006ae4:	e3a03003 	mov	r3, #3
 2006ae8:	e1431052 	qdadd	r1, r2, r3
 2006aec:	e3e05106 	mvn	r5, #-2147483647	; 0x80000001
 2006af0:	e1510005 	cmp	r1, r5
 2006af4:	1afff88e 	bne	2004d34 <fail_test>
 2006af8:	e10f5000 	mrs	r5, CPSR
 2006afc:	e3150302 	tst	r5, #134217728	; 0x8000000
 2006b00:	1afff88b 	bne	2004d34 <fail_test>
 2006b04:	e3a00005 	mov	r0, #5
 2006b08:	e3e0211e 	mvn	r2, #-2147483641	; 0x80000007
 2006b0c:	e3a03004 	mov	r3, #4
 2006b10:	e1431052 	qdadd	r1, r2, r3
 2006b14:	e3710106 	cmn	r1, #-2147483647	; 0x80000001
 2006b18:	1afff885 	bne	2004d34 <fail_test>
 2006b1c:	e10f5000 	mrs	r5, CPSR
 2006b20:	e3150302 	tst	r5, #134217728	; 0x8000000
 2006b24:	0afff882 	beq	2004d34 <fail_test>
 2006b28:	e128f004 	msr	CPSR_f, r4
 2006b2c:	e3a00006 	mov	r0, #6
 2006b30:	e3e0211a 	mvn	r2, #-2147483642	; 0x80000006
 2006b34:	e3a03003 	mov	r3, #3
 2006b38:	e1431052 	qdadd	r1, r2, r3
 2006b3c:	e3710106 	cmn	r1, #-2147483647	; 0x80000001
 2006b40:	1afff87b 	bne	2004d34 <fail_test>
 2006b44:	e10f5000 	mrs	r5, CPSR
 2006b48:	e3150302 	tst	r5, #134217728	; 0x8000000
 2006b4c:	1afff878 	bne	2004d34 <fail_test>
 2006b50:	e3a00007 	mov	r0, #7
 2006b54:	e3a02116 	mov	r2, #-2147483643	; 0x80000005
 2006b58:	e3e03001 	mvn	r3, #1
 2006b5c:	e1431052 	qdadd	r1, r2, r3
 2006b60:	e3510106 	cmp	r1, #-2147483647	; 0x80000001
 2006b64:	1afff872 	bne	2004d34 <fail_test>
 2006b68:	e10f5000 	mrs	r5, CPSR
 2006b6c:	e3150302 	tst	r5, #134217728	; 0x8000000
 2006b70:	1afff86f 	bne	2004d34 <fail_test>
 2006b74:	e3a00008 	mov	r0, #8
 2006b78:	e3a02116 	mov	r2, #-2147483643	; 0x80000005
 2006b7c:	e3e03002 	mvn	r3, #2
 2006b80:	e1431052 	qdadd	r1, r2, r3
 2006b84:	e3510102 	cmp	r1, #-2147483648	; 0x80000000
 2006b88:	1afff869 	bne	2004d34 <fail_test>
 2006b8c:	e10f5000 	mrs	r5, CPSR
 2006b90:	e3150302 	tst	r5, #134217728	; 0x8000000
 2006b94:	0afff866 	beq	2004d34 <fail_test>
 2006b98:	e128f004 	msr	CPSR_f, r4
 2006b9c:	e3a00009 	mov	r0, #9
 2006ba0:	e3a02112 	mov	r2, #-2147483644	; 0x80000004
 2006ba4:	e3e03001 	mvn	r3, #1
 2006ba8:	e1431052 	qdadd	r1, r2, r3
 2006bac:	e3510102 	cmp	r1, #-2147483648	; 0x80000000
 2006bb0:	1afff85f 	bne	2004d34 <fail_test>
 2006bb4:	e10f5000 	mrs	r5, CPSR
 2006bb8:	e3150302 	tst	r5, #134217728	; 0x8000000
 2006bbc:	1afff85c 	bne	2004d34 <fail_test>
 2006bc0:	e3a0000a 	mov	r0, #10
 2006bc4:	e3a02102 	mov	r2, #-2147483648	; 0x80000000
 2006bc8:	e3e03106 	mvn	r3, #-2147483647	; 0x80000001
 2006bcc:	e1431052 	qdadd	r1, r2, r3
 2006bd0:	e3710001 	cmn	r1, #1
 2006bd4:	1afff856 	bne	2004d34 <fail_test>
 2006bd8:	e10f5000 	mrs	r5, CPSR
 2006bdc:	e3150302 	tst	r5, #134217728	; 0x8000000
 2006be0:	0afff853 	beq	2004d34 <fail_test>
 2006be4:	e128f004 	msr	CPSR_f, r4
 2006be8:	e3a0000b 	mov	r0, #11
 2006bec:	e3a02102 	mov	r2, #-2147483648	; 0x80000000
 2006bf0:	e3e03103 	mvn	r3, #-1073741824	; 0xc0000000
 2006bf4:	e1431052 	qdadd	r1, r2, r3
 2006bf8:	e3710002 	cmn	r1, #2
 2006bfc:	1afff84c 	bne	2004d34 <fail_test>
 2006c00:	e10f5000 	mrs	r5, CPSR
 2006c04:	e3150302 	tst	r5, #134217728	; 0x8000000
 2006c08:	1afff849 	bne	2004d34 <fail_test>
 2006c0c:	e3a0000c 	mov	r0, #12
 2006c10:	e3a02102 	mov	r2, #-2147483648	; 0x80000000
 2006c14:	e3a03101 	mov	r3, #1073741824	; 0x40000000
 2006c18:	e1431052 	qdadd	r1, r2, r3
 2006c1c:	e3710001 	cmn	r1, #1
 2006c20:	1afff843 	bne	2004d34 <fail_test>
 2006c24:	e10f5000 	mrs	r5, CPSR
 2006c28:	e3150302 	tst	r5, #134217728	; 0x8000000
 2006c2c:	0afff840 	beq	2004d34 <fail_test>
 2006c30:	e128f004 	msr	CPSR_f, r4
 2006c34:	e3a0000d 	mov	r0, #13
 2006c38:	e3e02102 	mvn	r2, #-2147483648	; 0x80000000
 2006c3c:	e3a03107 	mov	r3, #-1073741823	; 0xc0000001
 2006c40:	e1431052 	qdadd	r1, r2, r3
 2006c44:	e3510001 	cmp	r1, #1
 2006c48:	1afff839 	bne	2004d34 <fail_test>
 2006c4c:	e10f5000 	mrs	r5, CPSR
 2006c50:	e3150302 	tst	r5, #134217728	; 0x8000000
 2006c54:	1afff836 	bne	2004d34 <fail_test>
 2006c58:	e3a0000e 	mov	r0, #14
 2006c5c:	e3e02102 	mvn	r2, #-2147483648	; 0x80000000
 2006c60:	e3a03103 	mov	r3, #-1073741824	; 0xc0000000
 2006c64:	e1431052 	qdadd	r1, r2, r3
 2006c68:	e3710001 	cmn	r1, #1
 2006c6c:	1afff830 	bne	2004d34 <fail_test>
 2006c70:	e10f5000 	mrs	r5, CPSR
 2006c74:	e3150302 	tst	r5, #134217728	; 0x8000000
 2006c78:	1afff82d 	bne	2004d34 <fail_test>
 2006c7c:	e3a0000f 	mov	r0, #15
 2006c80:	e3e02102 	mvn	r2, #-2147483648	; 0x80000000
 2006c84:	e3e03101 	mvn	r3, #1073741824	; 0x40000000
 2006c88:	e1431052 	qdadd	r1, r2, r3
 2006c8c:	e3710001 	cmn	r1, #1
 2006c90:	1afff827 	bne	2004d34 <fail_test>
 2006c94:	e10f5000 	mrs	r5, CPSR
 2006c98:	e3150302 	tst	r5, #134217728	; 0x8000000
 2006c9c:	0afff824 	beq	2004d34 <fail_test>
 2006ca0:	e128f004 	msr	CPSR_f, r4
 2006ca4:	e3a00010 	mov	r0, #16
 2006ca8:	e3a0206a 	mov	r2, #106	; 0x6a
 2006cac:	e3a03008 	mov	r3, #8
 2006cb0:	e1631052 	qdsub	r1, r2, r3
 2006cb4:	e351005a 	cmp	r1, #90	; 0x5a
 2006cb8:	1afff81d 	bne	2004d34 <fail_test>
 2006cbc:	e10f5000 	mrs	r5, CPSR
 2006cc0:	e3150302 	tst	r5, #134217728	; 0x8000000
 2006cc4:	1afff81a 	bne	2004d34 <fail_test>
 2006cc8:	e3a00011 	mov	r0, #17
 2006ccc:	e3a02090 	mov	r2, #144	; 0x90
 2006cd0:	e3e0300b 	mvn	r3, #11
 2006cd4:	e1631052 	qdsub	r1, r2, r3
 2006cd8:	e35100a8 	cmp	r1, #168	; 0xa8
 2006cdc:	1afff814 	bne	2004d34 <fail_test>
 2006ce0:	e10f5000 	mrs	r5, CPSR
 2006ce4:	e3150302 	tst	r5, #134217728	; 0x8000000
 2006ce8:	1afff811 	bne	2004d34 <fail_test>
 2006cec:	e3a00012 	mov	r0, #18
 2006cf0:	e3a02007 	mov	r2, #7
 2006cf4:	e3a0303a 	mov	r3, #58	; 0x3a
 2006cf8:	e1631052 	qdsub	r1, r2, r3
 2006cfc:	e371006d 	cmn	r1, #109	; 0x6d
 2006d00:	1afff80b 	bne	2004d34 <fail_test>
 2006d04:	e10f5000 	mrs	r5, CPSR
 2006d08:	e3150302 	tst	r5, #134217728	; 0x8000000
 2006d0c:	1afff808 	bne	2004d34 <fail_test>
 2006d10:	e3a00013 	mov	r0, #19
 2006d14:	e3e02011 	mvn	r2, #17
 2006d18:	e3e0300b 	mvn	r3, #11
 2006d1c:	e1631052 	qdsub	r1, r2, r3
 2006d20:	e3510006 	cmp	r1, #6
 2006d24:	1afff802 	bne	2004d34 <fail_test>
 2006d28:	e10f5000 	mrs	r5, CPSR
 2006d2c:	e3150302 	tst	r5, #134217728	; 0x8000000
 2006d30:	1afff7ff 	bne	2004d34 <fail_test>
 2006d34:	e3a00014 	mov	r0, #20
 2006d38:	e3e0211e 	mvn	r2, #-2147483641	; 0x80000007
 2006d3c:	e3e03002 	mvn	r3, #2
 2006d40:	e1631052 	qdsub	r1, r2, r3
 2006d44:	e3e05106 	mvn	r5, #-2147483647	; 0x80000001
 2006d48:	e1510005 	cmp	r1, r5
 2006d4c:	1afff7f8 	bne	2004d34 <fail_test>
 2006d50:	e10f5000 	mrs	r5, CPSR
 2006d54:	e3150302 	tst	r5, #134217728	; 0x8000000
 2006d58:	1afff7f5 	bne	2004d34 <fail_test>
 2006d5c:	e3a00015 	mov	r0, #21
 2006d60:	e3e0211e 	mvn	r2, #-2147483641	; 0x80000007
 2006d64:	e3e03003 	mvn	r3, #3
 2006d68:	e1631052 	qdsub	r1, r2, r3
 2006d6c:	e3710106 	cmn	r1, #-2147483647	; 0x80000001
 2006d70:	1afff7ef 	bne	2004d34 <fail_test>
 2006d74:	e10f5000 	mrs	r5, CPSR
 2006d78:	e3150302 	tst	r5, #134217728	; 0x8000000
 2006d7c:	0afff7ec 	beq	2004d34 <fail_test>
 2006d80:	e128f004 	msr	CPSR_f, r4
 2006d84:	e3a00016 	mov	r0, #22
 2006d88:	e3e0211a 	mvn	r2, #-2147483642	; 0x80000006
 2006d8c:	e3e03002 	mvn	r3, #2
 2006d90:	e1631052 	qdsub	r1, r2, r3
 2006d94:	e3710106 	cmn	r1, #-2147483647	; 0x80000001
 2006d98:	1afff7e5 	bne	2004d34 <fail_test>
 2006d9c:	e10f5000 	mrs	r5, CPSR
 2006da0:	e3150302 	tst	r5, #134217728	; 0x8000000
 2006da4:	1afff7e2 	bne	2004d34 <fail_test>
 2006da8:	e3a00017 	mov	r0, #23
 2006dac:	e3a02116 	mov	r2, #-2147483643	; 0x80000005
 2006db0:	e3a03002 	mov	r3, #2
 2006db4:	e1631052 	qdsub	r1, r2, r3
 2006db8:	e3510106 	cmp	r1, #-2147483647	; 0x80000001
 2006dbc:	1afff7dc 	bne	2004d34 <fail_test>
 2006dc0:	e10f5000 	mrs	r5, CPSR
 2006dc4:	e3150302 	tst	r5, #134217728	; 0x8000000
 2006dc8:	1afff7d9 	bne	2004d34 <fail_test>
 2006dcc:	e3a00018 	mov	r0, #24
 2006dd0:	e3a02116 	mov	r2, #-2147483643	; 0x80000005
 2006dd4:	e3a03003 	mov	r3, #3
 2006dd8:	e1631052 	qdsub	r1, r2, r3
 2006ddc:	e3510102 	cmp	r1, #-2147483648	; 0x80000000
 2006de0:	1afff7d3 	bne	2004d34 <fail_test>
 2006de4:	e10f5000 	mrs	r5, CPSR
 2006de8:	e3150302 	tst	r5, #134217728	; 0x8000000
 2006dec:	0afff7d0 	beq	2004d34 <fail_test>
 2006df0:	e128f004 	msr	CPSR_f, r4
 2006df4:	e3a00019 	mov	r0, #25
 2006df8:	e3a02112 	mov	r2, #-2147483644	; 0x80000004
 2006dfc:	e3a03002 	mov	r3, #2
 2006e00:	e1631052 	qdsub	r1, r2, r3
 2006e04:	e3510102 	cmp	r1, #-2147483648	; 0x80000000
 2006e08:	1afff7c9 	bne	2004d34 <fail_test>
 2006e0c:	e10f5000 	mrs	r5, CPSR
 2006e10:	e3150302 	tst	r5, #134217728	; 0x8000000
 2006e14:	1afff7c6 	bne	2004d34 <fail_test>
 2006e18:	e3a0001a 	mov	r0, #26
 2006e1c:	e3e02102 	mvn	r2, #-2147483648	; 0x80000000
 2006e20:	e3e03106 	mvn	r3, #-2147483647	; 0x80000001
 2006e24:	e1631052 	qdsub	r1, r2, r3
 2006e28:	e3510000 	cmp	r1, #0
 2006e2c:	1afff7c0 	bne	2004d34 <fail_test>
 2006e30:	e10f5000 	mrs	r5, CPSR
 2006e34:	e3150302 	tst	r5, #134217728	; 0x8000000
 2006e38:	0afff7bd 	beq	2004d34 <fail_test>
 2006e3c:	e128f004 	msr	CPSR_f, r4
 2006e40:	e3a0001b 	mov	r0, #27
 2006e44:	e3e02102 	mvn	r2, #-2147483648	; 0x80000000
 2006e48:	e3e03103 	mvn	r3, #-1073741824	; 0xc0000000
 2006e4c:	e1631052 	qdsub	r1, r2, r3
 2006e50:	e3510001 	cmp	r1, #1
 2006e54:	1afff7b6 	bne	2004d34 <fail_test>
 2006e58:	e10f5000 	mrs	r5, CPSR
 2006e5c:	e3150302 	tst	r5, #134217728	; 0x8000000
 2006e60:	1afff7b3 	bne	2004d34 <fail_test>
 2006e64:	e3a0001c 	mov	r0, #28
 2006e68:	e3e02102 	mvn	r2, #-2147483648	; 0x80000000
 2006e6c:	e3a03101 	mov	r3, #1073741824	; 0x40000000
 2006e70:	e1631052 	qdsub	r1, r2, r3
 2006e74:	e3510000 	cmp	r1, #0
 2006e78:	1afff7ad 	bne	2004d34 <fail_test>
 2006e7c:	e10f5000 	mrs	r5, CPSR
 2006e80:	e3150302 	tst	r5, #134217728	; 0x8000000
 2006e84:	0afff7aa 	beq	2004d34 <fail_test>
 2006e88:	e128f004 	msr	CPSR_f, r4
 2006e8c:	e3a0001d 	mov	r0, #29
 2006e90:	e3a02102 	mov	r2, #-2147483648	; 0x80000000
 2006e94:	e3a03107 	mov	r3, #-1073741823	; 0xc0000001
 2006e98:	e1631052 	qdsub	r1, r2, r3
 2006e9c:	e3710002 	cmn	r1, #2
 2006ea0:	1afff7a3 	bne	2004d34 <fail_test>
 2006ea4:	e10f5000 	mrs	r5, CPSR
 2006ea8:	e3150302 	tst	r5, #134217728	; 0x8000000
 2006eac:	1afff7a0 	bne	2004d34 <fail_test>
 2006eb0:	e3a0001e 	mov	r0, #30
 2006eb4:	e3a02102 	mov	r2, #-2147483648	; 0x80000000
 2006eb8:	e3a03103 	mov	r3, #-1073741824	; 0xc0000000
 2006ebc:	e1631052 	qdsub	r1, r2, r3
 2006ec0:	e3510000 	cmp	r1, #0
 2006ec4:	1afff79a 	bne	2004d34 <fail_test>
 2006ec8:	e10f5000 	mrs	r5, CPSR
 2006ecc:	e3150302 	tst	r5, #134217728	; 0x8000000
 2006ed0:	1afff797 	bne	2004d34 <fail_test>
 2006ed4:	e3a0001f 	mov	r0, #31
 2006ed8:	e3a02102 	mov	r2, #-2147483648	; 0x80000000
 2006edc:	e3e03101 	mvn	r3, #1073741824	; 0x40000000
 2006ee0:	e1631052 	qdsub	r1, r2, r3
 2006ee4:	e3510000 	cmp	r1, #0
 2006ee8:	1afff791 	bne	2004d34 <fail_test>
 2006eec:	e10f5000 	mrs	r5, CPSR
 2006ef0:	e3150302 	tst	r5, #134217728	; 0x8000000
 2006ef4:	0afff78e 	beq	2004d34 <fail_test>
 2006ef8:	e128f004 	msr	CPSR_f, r4
 2006efc:	e8bd0030 	pop	{r4, r5}
 2006f00:	e12fff1e 	bx	r14

02006f04 <run_tests_armv5_SMLAxy>:
 2006f04:	e92d0030 	push	{r4, r5}
 2006f08:	e3a04000 	mov	r4, #0
 2006f0c:	e128f004 	msr	CPSR_f, r4
 2006f10:	e3a00000 	mov	r0, #0
 2006f14:	e3a02007 	mov	r2, #7
 2006f18:	e3a0300a 	mov	r3, #10
 2006f1c:	e3a05002 	mov	r5, #2
 2006f20:	e1015382 	smlabb	r1, r2, r3, r5
 2006f24:	e3510048 	cmp	r1, #72	; 0x48
 2006f28:	1afff781 	bne	2004d34 <fail_test>
 2006f2c:	e10f5000 	mrs	r5, CPSR
 2006f30:	e3150302 	tst	r5, #134217728	; 0x8000000
 2006f34:	1afff77e 	bne	2004d34 <fail_test>
 2006f38:	e3a00001 	mov	r0, #1
 2006f3c:	e3e02002 	mvn	r2, #2
 2006f40:	e3a0300b 	mov	r3, #11
 2006f44:	e3a05064 	mov	r5, #100	; 0x64
 2006f48:	e1015382 	smlabb	r1, r2, r3, r5
 2006f4c:	e3510043 	cmp	r1, #67	; 0x43
 2006f50:	1afff777 	bne	2004d34 <fail_test>
 2006f54:	e10f5000 	mrs	r5, CPSR
 2006f58:	e3150302 	tst	r5, #134217728	; 0x8000000
 2006f5c:	1afff774 	bne	2004d34 <fail_test>
 2006f60:	e3a00002 	mov	r0, #2
 2006f64:	e3a02901 	mov	r2, #16384	; 0x4000
 2006f68:	e3a03002 	mov	r3, #2
 2006f6c:	e3a05000 	mov	r5, #0
 2006f70:	e1015382 	smlabb	r1, r2, r3, r5
 2006f74:	e3510902 	cmp	r1, #32768	; 0x8000
 2006f78:	1afff76d 	bne	2004d34 <fail_test>
 2006f7c:	e10f5000 	mrs	r5, CPSR
 2006f80:	e3150302 	tst	r5, #134217728	; 0x8000000
 2006f84:	1afff76a 	bne	2004d34 <fail_test>
 2006f88:	e3a00003 	mov	r0, #3
 2006f8c:	e3a02801 	mov	r2, #65536	; 0x10000
 2006f90:	e2422001 	sub	r2, r2, #1
 2006f94:	e1a03002 	mov	r3, r2
 2006f98:	e3a05000 	mov	r5, #0
 2006f9c:	e1015382 	smlabb	r1, r2, r3, r5
 2006fa0:	e3510001 	cmp	r1, #1
 2006fa4:	1afff762 	bne	2004d34 <fail_test>
 2006fa8:	e10f5000 	mrs	r5, CPSR
 2006fac:	e3150302 	tst	r5, #134217728	; 0x8000000
 2006fb0:	1afff75f 	bne	2004d34 <fail_test>
 2006fb4:	e3a00004 	mov	r0, #4
 2006fb8:	e3a02001 	mov	r2, #1
 2006fbc:	e3a03001 	mov	r3, #1
 2006fc0:	e3e05102 	mvn	r5, #-2147483648	; 0x80000000
 2006fc4:	e1015382 	smlabb	r1, r2, r3, r5
 2006fc8:	e3510102 	cmp	r1, #-2147483648	; 0x80000000
 2006fcc:	1afff758 	bne	2004d34 <fail_test>
 2006fd0:	e10f5000 	mrs	r5, CPSR
 2006fd4:	e3150302 	tst	r5, #134217728	; 0x8000000
 2006fd8:	0afff755 	beq	2004d34 <fail_test>
 2006fdc:	e128f004 	msr	CPSR_f, r4
 2006fe0:	e3a00005 	mov	r0, #5
 2006fe4:	e3a02007 	mov	r2, #7
 2006fe8:	e3a03701 	mov	r3, #262144	; 0x40000
 2006fec:	e3e0501b 	mvn	r5, #27
 2006ff0:	e10153c2 	smlabt	r1, r2, r3, r5
 2006ff4:	e3510000 	cmp	r1, #0
 2006ff8:	1afff74d 	bne	2004d34 <fail_test>
 2006ffc:	e10f5000 	mrs	r5, CPSR
 2007000:	e3150302 	tst	r5, #134217728	; 0x8000000
 2007004:	1afff74a 	bne	2004d34 <fail_test>
 2007008:	e3a00006 	mov	r0, #6
 200700c:	e59f25c8 	ldr	r2, [pc, #1480]	; 20075dc <run_tests_armv5_ldrpopr15+0x100>
 2007010:	e3a03039 	mov	r3, #57	; 0x39
 2007014:	e3e05000 	mvn	r5, #0
 2007018:	e10153a2 	smlatb	r1, r2, r3, r5
 200701c:	e37100e5 	cmn	r1, #229	; 0xe5
 2007020:	1afff743 	bne	2004d34 <fail_test>
 2007024:	e10f5000 	mrs	r5, CPSR
 2007028:	e3150302 	tst	r5, #134217728	; 0x8000000
 200702c:	1afff740 	bne	2004d34 <fail_test>
 2007030:	e3a00007 	mov	r0, #7
 2007034:	e3a02102 	mov	r2, #-2147483648	; 0x80000000
 2007038:	e3e03102 	mvn	r3, #-2147483648	; 0x80000000
 200703c:	e3a05000 	mov	r5, #0
 2007040:	e10153e2 	smlatt	r1, r2, r3, r5
 2007044:	e2411103 	sub	r1, r1, #-1073741824	; 0xc0000000
 2007048:	e3510902 	cmp	r1, #32768	; 0x8000
 200704c:	1afff738 	bne	2004d34 <fail_test>
 2007050:	e10f5000 	mrs	r5, CPSR
 2007054:	e3150302 	tst	r5, #134217728	; 0x8000000
 2007058:	1afff735 	bne	2004d34 <fail_test>
 200705c:	e3a00008 	mov	r0, #8
 2007060:	e3a02102 	mov	r2, #-2147483648	; 0x80000000
 2007064:	e3e03102 	mvn	r3, #-2147483648	; 0x80000000
 2007068:	e3a05102 	mov	r5, #-2147483648	; 0x80000000
 200706c:	e10153e2 	smlatt	r1, r2, r3, r5
 2007070:	e2411101 	sub	r1, r1, #1073741824	; 0x40000000
 2007074:	e3510902 	cmp	r1, #32768	; 0x8000
 2007078:	1afff72d 	bne	2004d34 <fail_test>
 200707c:	e10f5000 	mrs	r5, CPSR
 2007080:	e3150302 	tst	r5, #134217728	; 0x8000000
 2007084:	0afff72a 	beq	2004d34 <fail_test>
 2007088:	e128f004 	msr	CPSR_f, r4
 200708c:	e3a00009 	mov	r0, #9
 2007090:	e3a01064 	mov	r1, #100	; 0x64
 2007094:	e3a02007 	mov	r2, #7
 2007098:	e3e03002 	mvn	r3, #2
 200709c:	e1011382 	smlabb	r1, r2, r3, r1
 20070a0:	e351004f 	cmp	r1, #79	; 0x4f
 20070a4:	1afff722 	bne	2004d34 <fail_test>
 20070a8:	e8bd0030 	pop	{r4, r5}
 20070ac:	e12fff1e 	bx	r14

020070b0 <run_tests_armv5_SMULxy>:
 20070b0:	e3a00000 	mov	r0, #0
 20070b4:	e128f000 	msr	CPSR_f, r0
 20070b8:	e3a00000 	mov	r0, #0
 20070bc:	e3a0200e 	mov	r2, #14
 20070c0:	e3a03005 	mov	r3, #5
 20070c4:	e1610382 	smulbb	r1, r2, r3
 20070c8:	e3510046 	cmp	r1, #70	; 0x46
 20070cc:	1afff718 	bne	2004d34 <fail_test>
 20070d0:	e3a00001 	mov	r0, #1
 20070d4:	e3e02005 	mvn	r2, #5
 20070d8:	e3a03068 	mov	r3, #104	; 0x68
 20070dc:	e1610382 	smulbb	r1, r2, r3
 20070e0:	e3710e27 	cmn	r1, #624	; 0x270
 20070e4:	1afff712 	bne	2004d34 <fail_test>
 20070e8:	e3a00002 	mov	r0, #2
 20070ec:	e3e0200f 	mvn	r2, #15
 20070f0:	e3a03058 	mov	r3, #88	; 0x58
 20070f4:	e16103a2 	smultb	r1, r2, r3
 20070f8:	e3710058 	cmn	r1, #88	; 0x58
 20070fc:	1afff70c 	bne	2004d34 <fail_test>
 2007100:	e3a00003 	mov	r0, #3
 2007104:	e3e0200d 	mvn	r2, #13
 2007108:	e3a03805 	mov	r3, #327680	; 0x50000
 200710c:	e2833e83 	add	r3, r3, #2096	; 0x830
 2007110:	e16103c2 	smulbt	r1, r2, r3
 2007114:	e3710046 	cmn	r1, #70	; 0x46
 2007118:	1afff705 	bne	2004d34 <fail_test>
 200711c:	e3a00004 	mov	r0, #4
 2007120:	e10f3000 	mrs	r3, CPSR
 2007124:	e3130302 	tst	r3, #134217728	; 0x8000000
 2007128:	1afff701 	bne	2004d34 <fail_test>
 200712c:	e12fff1e 	bx	r14

02007130 <run_tests_armv5_SMLAWy>:
 2007130:	e92d00b0 	push	{r4, r5, r7}
 2007134:	e3a04000 	mov	r4, #0
 2007138:	e128f004 	msr	CPSR_f, r4
 200713c:	e3a00000 	mov	r0, #0
 2007140:	e3a0202f 	mov	r2, #47	; 0x2f
 2007144:	e3a03005 	mov	r3, #5
 2007148:	e3e05002 	mvn	r5, #2
 200714c:	e1215382 	smlawb	r1, r2, r3, r5
 2007150:	e3710003 	cmn	r1, #3
 2007154:	1afff6f6 	bne	2004d34 <fail_test>
 2007158:	e10f5000 	mrs	r5, CPSR
 200715c:	e3150302 	tst	r5, #134217728	; 0x8000000
 2007160:	1afff6f3 	bne	2004d34 <fail_test>
 2007164:	e3a00001 	mov	r0, #1
 2007168:	e3a02809 	mov	r2, #589824	; 0x90000
 200716c:	e3e03006 	mvn	r3, #6
 2007170:	e3a05002 	mov	r5, #2
 2007174:	e1215382 	smlawb	r1, r2, r3, r5
 2007178:	e371003d 	cmn	r1, #61	; 0x3d
 200717c:	1afff6ec 	bne	2004d34 <fail_test>
 2007180:	e10f5000 	mrs	r5, CPSR
 2007184:	e3150302 	tst	r5, #134217728	; 0x8000000
 2007188:	1afff6e9 	bne	2004d34 <fail_test>
 200718c:	e3a00002 	mov	r0, #2
 2007190:	e3a02b01 	mov	r2, #1024	; 0x400
 2007194:	e3a03c05 	mov	r3, #1280	; 0x500
 2007198:	e3e05000 	mvn	r5, #0
 200719c:	e1215382 	smlawb	r1, r2, r3, r5
 20071a0:	e3510013 	cmp	r1, #19
 20071a4:	1afff6e2 	bne	2004d34 <fail_test>
 20071a8:	e10f5000 	mrs	r5, CPSR
 20071ac:	e3150302 	tst	r5, #134217728	; 0x8000000
 20071b0:	1afff6df 	bne	2004d34 <fail_test>
 20071b4:	e3a00003 	mov	r0, #3
 20071b8:	e3a02004 	mov	r2, #4
 20071bc:	e3a03901 	mov	r3, #16384	; 0x4000
 20071c0:	e3e05102 	mvn	r5, #-2147483648	; 0x80000000
 20071c4:	e1215382 	smlawb	r1, r2, r3, r5
 20071c8:	e3510102 	cmp	r1, #-2147483648	; 0x80000000
 20071cc:	1afff6d8 	bne	2004d34 <fail_test>
 20071d0:	e10f5000 	mrs	r5, CPSR
 20071d4:	e3150302 	tst	r5, #134217728	; 0x8000000
 20071d8:	0afff6d5 	beq	2004d34 <fail_test>
 20071dc:	e128f004 	msr	CPSR_f, r4
 20071e0:	e3a00004 	mov	r0, #4
 20071e4:	e3a02705 	mov	r2, #1310720	; 0x140000
 20071e8:	e3e03801 	mvn	r3, #65536	; 0x10000
 20071ec:	e2433e23 	sub	r3, r3, #560	; 0x230
 20071f0:	e3e05004 	mvn	r5, #4
 20071f4:	e12153c2 	smlawt	r1, r2, r3, r5
 20071f8:	e371002d 	cmn	r1, #45	; 0x2d
 20071fc:	1afff6cc 	bne	2004d34 <fail_test>
 2007200:	e10f5000 	mrs	r5, CPSR
 2007204:	e3150302 	tst	r5, #134217728	; 0x8000000
 2007208:	1afff6c9 	bne	2004d34 <fail_test>
 200720c:	e3a00005 	mov	r0, #5
 2007210:	e3a02e4d 	mov	r2, #1232	; 0x4d0
 2007214:	e3a03cc3 	mov	r3, #49920	; 0xc300
 2007218:	e3a05000 	mov	r5, #0
 200721c:	e1215382 	smlawb	r1, r2, r3, r5
 2007220:	e59f73b8 	ldr	r7, [pc, #952]	; 20075e0 <run_tests_armv5_ldrpopr15+0x104>
 2007224:	e1510007 	cmp	r1, r7
 2007228:	1afff6c1 	bne	2004d34 <fail_test>
 200722c:	e10f5000 	mrs	r5, CPSR
 2007230:	e3150302 	tst	r5, #134217728	; 0x8000000
 2007234:	1afff6be 	bne	2004d34 <fail_test>
 2007238:	e3a00006 	mov	r0, #6
 200723c:	e3a02004 	mov	r2, #4
 2007240:	e3a03101 	mov	r3, #1073741824	; 0x40000000
 2007244:	e3e05102 	mvn	r5, #-2147483648	; 0x80000000
 2007248:	e12153c2 	smlawt	r1, r2, r3, r5
 200724c:	e3510102 	cmp	r1, #-2147483648	; 0x80000000
 2007250:	1afff6b7 	bne	2004d34 <fail_test>
 2007254:	e10f5000 	mrs	r5, CPSR
 2007258:	e3150302 	tst	r5, #134217728	; 0x8000000
 200725c:	0afff6b4 	beq	2004d34 <fail_test>
 2007260:	e128f004 	msr	CPSR_f, r4
 2007264:	e3a00007 	mov	r0, #7
 2007268:	e3a01064 	mov	r1, #100	; 0x64
 200726c:	e3a02807 	mov	r2, #458752	; 0x70000
 2007270:	e3e03002 	mvn	r3, #2
 2007274:	e1211382 	smlawb	r1, r2, r3, r1
 2007278:	e351004f 	cmp	r1, #79	; 0x4f
 200727c:	1afff6ac 	bne	2004d34 <fail_test>
 2007280:	e8bd00b0 	pop	{r4, r5, r7}
 2007284:	e12fff1e 	bx	r14

02007288 <run_tests_armv5_SMULWy>:
 2007288:	e52d7004 	push	{r7}		; (str r7, [r13, #-4]!)
 200728c:	e3a00000 	mov	r0, #0
 2007290:	e128f000 	msr	CPSR_f, r0
 2007294:	e3a00000 	mov	r0, #0
 2007298:	e3a0200f 	mov	r2, #15
 200729c:	e3a0302c 	mov	r3, #44	; 0x2c
 20072a0:	e12103a2 	smulwb	r1, r2, r3
 20072a4:	e3510000 	cmp	r1, #0
 20072a8:	1afff6a1 	bne	2004d34 <fail_test>
 20072ac:	e3a00001 	mov	r0, #1
 20072b0:	e12103e2 	smulwt	r1, r2, r3
 20072b4:	e3510000 	cmp	r1, #0
 20072b8:	1afff69d 	bne	2004d34 <fail_test>
 20072bc:	e3a00002 	mov	r0, #2
 20072c0:	e3a020bc 	mov	r2, #188	; 0xbc
 20072c4:	e3a03c77 	mov	r3, #30464	; 0x7700
 20072c8:	e12103a2 	smulwb	r1, r2, r3
 20072cc:	e3510057 	cmp	r1, #87	; 0x57
 20072d0:	1afff697 	bne	2004d34 <fail_test>
 20072d4:	e3a00003 	mov	r0, #3
 20072d8:	e3e020bb 	mvn	r2, #187	; 0xbb
 20072dc:	e12103a2 	smulwb	r1, r2, r3
 20072e0:	e3710058 	cmn	r1, #88	; 0x58
 20072e4:	1afff692 	bne	2004d34 <fail_test>
 20072e8:	e3a00004 	mov	r0, #4
 20072ec:	e3e020f0 	mvn	r2, #240	; 0xf0
 20072f0:	e3e03044 	mvn	r3, #68	; 0x44
 20072f4:	e1a02582 	lsl	r2, r2, #11
 20072f8:	e12103a2 	smulwb	r1, r2, r3
 20072fc:	e59f72e0 	ldr	r7, [pc, #736]	; 20075e4 <run_tests_armv5_ldrpopr15+0x108>
 2007300:	e1510007 	cmp	r1, r7
 2007304:	1afff68a 	bne	2004d34 <fail_test>
 2007308:	e3a00005 	mov	r0, #5
 200730c:	e3a02a51 	mov	r2, #331776	; 0x51000
 2007310:	e282209a 	add	r2, r2, #154	; 0x9a
 2007314:	e3a03301 	mov	r3, #67108864	; 0x4000000
 2007318:	e12103e2 	smulwt	r1, r2, r3
 200731c:	e59f72c4 	ldr	r7, [pc, #708]	; 20075e8 <run_tests_armv5_ldrpopr15+0x10c>
 2007320:	e1510007 	cmp	r1, r7
 2007324:	1afff682 	bne	2004d34 <fail_test>
 2007328:	e3a00006 	mov	r0, #6
 200732c:	e10f7000 	mrs	r7, CPSR
 2007330:	e3170302 	tst	r7, #134217728	; 0x8000000
 2007334:	1afff67e 	bne	2004d34 <fail_test>
 2007338:	e49d7004 	pop	{r7}		; (ldr r7, [r13], #4)
 200733c:	e12fff1e 	bx	r14

02007340 <run_tests_armv5_SMLALxy>:
 2007340:	e92d0090 	push	{r4, r7}
 2007344:	e3a00000 	mov	r0, #0
 2007348:	e3a01000 	mov	r1, #0
 200734c:	e3a02000 	mov	r2, #0
 2007350:	e3a03007 	mov	r3, #7
 2007354:	e3a04012 	mov	r4, #18
 2007358:	e1421483 	smlalbb	r1, r2, r3, r4
 200735c:	e351007e 	cmp	r1, #126	; 0x7e
 2007360:	1afff673 	bne	2004d34 <fail_test>
 2007364:	e3520000 	cmp	r2, #0
 2007368:	1afff671 	bne	2004d34 <fail_test>
 200736c:	e3a00001 	mov	r0, #1
 2007370:	e3a01000 	mov	r1, #0
 2007374:	e3e03006 	mvn	r3, #6
 2007378:	e1421483 	smlalbb	r1, r2, r3, r4
 200737c:	e371007e 	cmn	r1, #126	; 0x7e
 2007380:	1afff66b 	bne	2004d34 <fail_test>
 2007384:	e3720001 	cmn	r2, #1
 2007388:	1afff669 	bne	2004d34 <fail_test>
 200738c:	e3a00002 	mov	r0, #2
 2007390:	e59f1254 	ldr	r1, [pc, #596]	; 20075ec <run_tests_armv5_ldrpopr15+0x110>
 2007394:	e1a02001 	mov	r2, r1
 2007398:	e3a03c47 	mov	r3, #18176	; 0x4700
 200739c:	e3a04e6d 	mov	r4, #1744	; 0x6d0
 20073a0:	e1421483 	smlalbb	r1, r2, r3, r4
 20073a4:	e59f7244 	ldr	r7, [pc, #580]	; 20075f0 <run_tests_armv5_ldrpopr15+0x114>
 20073a8:	e1510007 	cmp	r1, r7
 20073ac:	1afff660 	bne	2004d34 <fail_test>
 20073b0:	e59f7234 	ldr	r7, [pc, #564]	; 20075ec <run_tests_armv5_ldrpopr15+0x110>
 20073b4:	e1520007 	cmp	r2, r7
 20073b8:	1afff65d 	bne	2004d34 <fail_test>
 20073bc:	e3a00003 	mov	r0, #3
 20073c0:	e3a01000 	mov	r1, #0
 20073c4:	e3a02001 	mov	r2, #1
 20073c8:	e3e03000 	mvn	r3, #0
 20073cc:	e2433ec1 	sub	r3, r3, #3088	; 0xc10
 20073d0:	e3a04007 	mov	r4, #7
 20073d4:	e14214a3 	smlaltb	r1, r2, r3, r4
 20073d8:	e3710007 	cmn	r1, #7
 20073dc:	1afff654 	bne	2004d34 <fail_test>
 20073e0:	e3520000 	cmp	r2, #0
 20073e4:	1afff652 	bne	2004d34 <fail_test>
 20073e8:	e3a00004 	mov	r0, #4
 20073ec:	e3a01efa 	mov	r1, #4000	; 0xfa0
 20073f0:	e3a02008 	mov	r2, #8
 20073f4:	e3e03006 	mvn	r3, #6
 20073f8:	e3a04815 	mov	r4, #1376256	; 0x150000
 20073fc:	e14214c3 	smlalbt	r1, r2, r3, r4
 2007400:	e59f71ec 	ldr	r7, [pc, #492]	; 20075f4 <run_tests_armv5_ldrpopr15+0x118>
 2007404:	e1510007 	cmp	r1, r7
 2007408:	1afff649 	bne	2004d34 <fail_test>
 200740c:	e3520008 	cmp	r2, #8
 2007410:	1afff647 	bne	2004d34 <fail_test>
 2007414:	e3a00005 	mov	r0, #5
 2007418:	e10f4000 	mrs	r4, CPSR
 200741c:	e3140302 	tst	r4, #134217728	; 0x8000000
 2007420:	1afff643 	bne	2004d34 <fail_test>
 2007424:	e8bd0090 	pop	{r4, r7}
 2007428:	e12fff1e 	bx	r14

0200742c <run_tests_armv5_blx>:
 200742c:	e92d40e0 	push	{r5, r6, r7, r14}
 2007430:	e59f31c0 	ldr	r3, [pc, #448]	; 20075f8 <run_tests_armv5_ldrpopr15+0x11c>
 2007434:	e59f51c0 	ldr	r5, [pc, #448]	; 20075fc <run_tests_armv5_ldrpopr15+0x120>
 2007438:	e59f61c0 	ldr	r6, [pc, #448]	; 2007600 <run_tests_armv5_ldrpopr15+0x124>
 200743c:	e3a00000 	mov	r0, #0
 2007440:	e3c51001 	bic	r1, r5, #1
 2007444:	e1a0e00f 	mov	r14, r15
 2007448:	e12fff11 	bx	r1
 200744c:	e3570001 	cmp	r7, #1
 2007450:	1afff637 	bne	2004d34 <fail_test>
 2007454:	e3a00001 	mov	r0, #1
 2007458:	e3851001 	orr	r1, r5, #1
 200745c:	e1a0e00f 	mov	r14, r15
 2007460:	e12fff11 	bx	r1
 2007464:	e3570002 	cmp	r7, #2
 2007468:	1afff631 	bne	2004d34 <fail_test>
 200746c:	e3a00002 	mov	r0, #2
 2007470:	e3c51001 	bic	r1, r5, #1
 2007474:	e12fff31 	blx	r1
 2007478:	e3570001 	cmp	r7, #1
 200747c:	1afff62c 	bne	2004d34 <fail_test>
 2007480:	e3a00003 	mov	r0, #3
 2007484:	e3851001 	orr	r1, r5, #1
 2007488:	e12fff31 	blx	r1
 200748c:	e3570002 	cmp	r7, #2
 2007490:	1afff627 	bne	2004d34 <fail_test>
 2007494:	e3a00004 	mov	r0, #4
 2007498:	faffedcb 	blx	2002bcc <test_cpu_state>
 200749c:	e3570002 	cmp	r7, #2
 20074a0:	1afff623 	bne	2004d34 <fail_test>
 20074a4:	e28f1001 	add	r1, r15, #1
 20074a8:	e12fff11 	bx	r1
 20074ac:	08692005 	stmdaeq	r9!, {r0, r2, r13}^
 20074b0:	47880049 	strmi	r0, [r8, r9, asr #32]
 20074b4:	d0002f01 	andle	r2, r0, r1, lsl #30
 20074b8:	20064718 	andcs	r4, r6, r8, lsl r7
 20074bc:	43292101 			; <UNDEFINED> instruction: 0x43292101
 20074c0:	2f024788 	svccs	0x00024788
 20074c4:	4718d000 	ldrmi	r13, [r8, -r0]
 20074c8:	f7fb2007 			; <UNDEFINED> instruction: 0xf7fb2007
 20074cc:	2f01eb80 	svccs	0x0001eb80
 20074d0:	4718d000 	ldrmi	r13, [r8, -r0]
 20074d4:	47084679 	smlsdxmi	r8, r9, r6, r4
 20074d8:	e8bd80e0 	pop	{r5, r6, r7, r15}

020074dc <run_tests_armv5_ldrpopr15>:
 20074dc:	e92d40e0 	push	{r5, r6, r7, r14}
 20074e0:	e59f3110 	ldr	r3, [pc, #272]	; 20075f8 <run_tests_armv5_ldrpopr15+0x11c>
 20074e4:	e59f5110 	ldr	r5, [pc, #272]	; 20075fc <run_tests_armv5_ldrpopr15+0x120>
 20074e8:	e59f6110 	ldr	r6, [pc, #272]	; 2007600 <run_tests_armv5_ldrpopr15+0x124>
 20074ec:	e58f50d8 	str	r5, [pc, #216]	; 20075cc <run_tests_armv5_ldrpopr15+0xf0>
 20074f0:	e3852001 	orr	r2, r5, #1
 20074f4:	e58f20d4 	str	r2, [pc, #212]	; 20075d0 <run_tests_armv5_ldrpopr15+0xf4>
 20074f8:	e3a00000 	mov	r0, #0
 20074fc:	e1a0e00f 	mov	r14, r15
 2007500:	e59ff0c4 	ldr	r15, [pc, #196]	; 20075cc <run_tests_armv5_ldrpopr15+0xf0>
 2007504:	e3570001 	cmp	r7, #1
 2007508:	1afff609 	bne	2004d34 <fail_test>
 200750c:	e3a00001 	mov	r0, #1
 2007510:	e1a0e00f 	mov	r14, r15
 2007514:	e59ff0b4 	ldr	r15, [pc, #180]	; 20075d0 <run_tests_armv5_ldrpopr15+0xf4>
 2007518:	e3570002 	cmp	r7, #2
 200751c:	1afff604 	bne	2004d34 <fail_test>
 2007520:	e3a00002 	mov	r0, #2
 2007524:	e92d0021 	push	{r0, r5}
 2007528:	e1a0e00f 	mov	r14, r15
 200752c:	e8bd8001 	pop	{r0, r15}
 2007530:	e3570001 	cmp	r7, #1
 2007534:	1afff5fe 	bne	2004d34 <fail_test>
 2007538:	e3a00003 	mov	r0, #3
 200753c:	e92d0005 	push	{r0, r2}
 2007540:	e1a0e00f 	mov	r14, r15
 2007544:	e8bd8001 	pop	{r0, r15}
 2007548:	e3570002 	cmp	r7, #2
 200754c:	1afff5f8 	bne	2004d34 <fail_test>
 2007550:	e3a00004 	mov	r0, #4
 2007554:	e1a0e00f 	mov	r14, r15
 2007558:	e1a0f005 	mov	r15, r5
 200755c:	e3570001 	cmp	r7, #1
 2007560:	1afff5f3 	bne	2004d34 <fail_test>
 2007564:	e3a00005 	mov	r0, #5
 2007568:	e1a0e00f 	mov	r14, r15
 200756c:	e1a0f002 	mov	r15, r2
 2007570:	e3570001 	cmp	r7, #1
 2007574:	1afff5ee 	bne	2004d34 <fail_test>
 2007578:	e28f1001 	add	r1, r15, #1
 200757c:	e12fff11 	bx	r1
 2007580:	b4202006 	strtlt	r2, [r0], #-6
 2007584:	31054679 	tstcc	r5, r9, ror r6
 2007588:	bd00468e 	stclt	6, cr4, [r0, #-568]	; 0xfffffdc8
 200758c:	d0002f01 	andle	r2, r0, r1, lsl #30
 2007590:	20074718 	andcs	r4, r7, r8, lsl r7
 2007594:	4679b404 	ldrbtmi	r11, [r9], -r4, lsl #8
 2007598:	468e3105 	strmi	r3, [r14], r5, lsl #2
 200759c:	2f02bd00 	svccs	0x0002bd00
 20075a0:	4718d000 	ldrmi	r13, [r8, -r0]
 20075a4:	46792008 	ldrbtmi	r2, [r9], -r8
 20075a8:	468e3105 	strmi	r3, [r14], r5, lsl #2
 20075ac:	2f0246af 	svccs	0x000246af
 20075b0:	4718d000 	ldrmi	r13, [r8, -r0]
 20075b4:	46792009 	ldrbtmi	r2, [r9], -r9
 20075b8:	468e3105 	strmi	r3, [r14], r5, lsl #2
 20075bc:	2f024697 	svccs	0x00024697
 20075c0:	4718d000 	ldrmi	r13, [r8, -r0]
 20075c4:	47084679 	smlsdxmi	r8, r9, r6, r4
 20075c8:	e8bd80e0 	pop	{r5, r6, r7, r15}
	...
 20075d4:	0075abcd 	rsbseq	r10, r5, r13, asr #23
 20075d8:	00004d33 	andeq	r4, r0, r3, lsr r13
 20075dc:	fffc1234 			; <UNDEFINED> instruction: 0xfffc1234
 20075e0:	fffffeda 			; <UNDEFINED> instruction: 0xfffffeda
 20075e4:	00000207 	andeq	r0, r0, r7, lsl #4
 20075e8:	00001442 	andeq	r1, r0, r2, asr #8
 20075ec:	12345678 	eorsne	r5, r4, #120, 12	; 0x7800000
 20075f0:	14180678 	ldrne	r0, [r8], #-1656	; 0xfffff988
 20075f4:	00000f0d 	andeq	r0, r0, r13, lsl #30
 20075f8:	02004d34 	andeq	r4, r0, #52, 26	; 0xd00
 20075fc:	02002bcc 	andeq	r2, r0, #204, 22	; 0x33000
 2007600:	02002bd8 	andeq	r2, r0, #216, 22	; 0x36000

02007604 <enable_trace>:
 2007604:	e59f3008 	ldr	r3, [pc, #8]	; 2007614 <enable_trace+0x10>
 2007608:	e59f2008 	ldr	r2, [pc, #8]	; 2007618 <enable_trace+0x14>
 200760c:	e5832400 	str	r2, [r3, #1024]	; 0x400
 2007610:	e12fff1e 	bx	r14
 2007614:	08004000 	stmdaeq	r0, {r14}
 2007618:	08004400 	stmdaeq	r0, {r10, r14}

0200761c <disable_trace>:
 200761c:	e59f3008 	ldr	r3, [pc, #8]	; 200762c <disable_trace+0x10>
 2007620:	e59f2008 	ldr	r2, [pc, #8]	; 2007630 <disable_trace+0x14>
 2007624:	e5832500 	str	r2, [r3, #1280]	; 0x500
 2007628:	e12fff1e 	bx	r14
 200762c:	08005000 	stmdaeq	r0, {r12, r14}
 2007630:	08005500 	stmdaeq	r0, {r8, r10, r12, r14}

02007634 <wait_busy>:
 2007634:	e2500001 	subs	r0, r0, #1
 2007638:	1afffffd 	bne	2007634 <wait_busy>
 200763c:	e12fff1e 	bx	r14

02007640 <l_EIC>:
 2007640:	e10f3000 	mrs	r3, CPSR
 2007644:	e3c33080 	bic	r3, r3, #128	; 0x80
 2007648:	e121f003 	msr	CPSR_c, r3
 200764c:	e12fff1e 	bx	r14

02007650 <l_DIC>:
 2007650:	e10f3000 	mrs	r3, CPSR
 2007654:	e3833080 	orr	r3, r3, #128	; 0x80
 2007658:	e121f003 	msr	CPSR_c, r3
 200765c:	e12fff1e 	bx	r14

02007660 <memcpy>:
 2007660:	e352000f 	cmp	r2, #15
 2007664:	9a000035 	bls	2007740 <memcpy+0xe0>
 2007668:	e1803001 	orr	r3, r0, r1
 200766c:	e3130003 	tst	r3, #3
 2007670:	1a00003e 	bne	2007770 <memcpy+0x110>
 2007674:	e92d41f0 	push	{r4, r5, r6, r7, r8, r14}
 2007678:	e2428010 	sub	r8, r2, #16
 200767c:	e1a08228 	lsr	r8, r8, #4
 2007680:	e2817020 	add	r7, r1, #32
 2007684:	e0877208 	add	r7, r7, r8, lsl #4
 2007688:	e2813010 	add	r3, r1, #16
 200768c:	e280c010 	add	r12, r0, #16
 2007690:	e5136010 	ldr	r6, [r3, #-16]
 2007694:	e513500c 	ldr	r5, [r3, #-12]
 2007698:	e9134010 	ldmdb	r3, {r4, r14}
 200769c:	e2833010 	add	r3, r3, #16
 20076a0:	e1530007 	cmp	r3, r7
 20076a4:	e50c6010 	str	r6, [r12, #-16]
 20076a8:	e50c500c 	str	r5, [r12, #-12]
 20076ac:	e90c4010 	stmdb	r12, {r4, r14}
 20076b0:	e28cc010 	add	r12, r12, #16
 20076b4:	1afffff5 	bne	2007690 <memcpy+0x30>
 20076b8:	e288c001 	add	r12, r8, #1
 20076bc:	e1a0c20c 	lsl	r12, r12, #4
 20076c0:	e312000c 	tst	r2, #12
 20076c4:	e202e00f 	and	r14, r2, #15
 20076c8:	e081100c 	add	r1, r1, r12
 20076cc:	01a0200e 	moveq	r2, r14
 20076d0:	e080c00c 	add	r12, r0, r12
 20076d4:	0a00000d 	beq	2007710 <memcpy+0xb0>
 20076d8:	e1a04001 	mov	r4, r1
 20076dc:	e24ee004 	sub	r14, r14, #4
 20076e0:	e1a0e12e 	lsr	r14, r14, #2
 20076e4:	e08c610e 	add	r6, r12, r14, lsl #2
 20076e8:	e24c3004 	sub	r3, r12, #4
 20076ec:	e4945004 	ldr	r5, [r4], #4
 20076f0:	e5a35004 	str	r5, [r3, #4]!
 20076f4:	e1530006 	cmp	r3, r6
 20076f8:	1afffffb 	bne	20076ec <memcpy+0x8c>
 20076fc:	e28ee001 	add	r14, r14, #1
 2007700:	e1a0e10e 	lsl	r14, r14, #2
 2007704:	e08cc00e 	add	r12, r12, r14
 2007708:	e081100e 	add	r1, r1, r14
 200770c:	e2022003 	and	r2, r2, #3
 2007710:	e3520000 	cmp	r2, #0
 2007714:	e2422001 	sub	r2, r2, #1
 2007718:	12822001 	addne	r2, r2, #1
 200771c:	10813002 	addne	r3, r1, r2
 2007720:	124c2001 	subne	r2, r12, #1
 2007724:	0a000003 	beq	2007738 <memcpy+0xd8>
 2007728:	e4d1c001 	ldrb	r12, [r1], #1
 200772c:	e1510003 	cmp	r1, r3
 2007730:	e5e2c001 	strb	r12, [r2, #1]!
 2007734:	1afffffb 	bne	2007728 <memcpy+0xc8>
 2007738:	e8bd41f0 	pop	{r4, r5, r6, r7, r8, r14}
 200773c:	e12fff1e 	bx	r14
 2007740:	e3520000 	cmp	r2, #0
 2007744:	e1a0c000 	mov	r12, r0
 2007748:	e2422001 	sub	r2, r2, #1
 200774c:	012fff1e 	bxeq	r14
 2007750:	e2822001 	add	r2, r2, #1
 2007754:	e0813002 	add	r3, r1, r2
 2007758:	e24c2001 	sub	r2, r12, #1
 200775c:	e4d1c001 	ldrb	r12, [r1], #1
 2007760:	e1510003 	cmp	r1, r3
 2007764:	e5e2c001 	strb	r12, [r2, #1]!
 2007768:	1afffffb 	bne	200775c <memcpy+0xfc>
 200776c:	e12fff1e 	bx	r14
 2007770:	e2422001 	sub	r2, r2, #1
 2007774:	e1a0c000 	mov	r12, r0
 2007778:	eafffff4 	b	2007750 <memcpy+0xf0>

Disassembly of section .rodata:

0200777c <menu_main-0x8>:
 200777c:	294a0000 	stmdbcs	r10, {}^	; <UNPREDICTABLE>
 2007780:	7fff56b5 	svcvc	0x00ff56b5

02007784 <menu_main>:
 2007784:	0200791c 	andeq	r7, r0, #28, 18	; 0x70000
 2007788:	020085a8 	andeq	r8, r0, #168, 10	; 0x2a000000
 200778c:	00000000 	andeq	r0, r0, r0

02007790 <menu_initialstate>:
 2007790:	020077cc 	andeq	r7, r0, #204, 14	; 0x3300000
 2007794:	0200856c 	andeq	r8, r0, #108, 10	; 0x1b000000
 2007798:	02007784 	andeq	r7, r0, #132, 14	; 0x2100000

0200779c <menu_memory>:
 200779c:	020077f0 	andeq	r7, r0, #240, 14	; 0x3c00000
 20077a0:	0200857c 	andeq	r8, r0, #124, 10	; 0x1f000000
 20077a4:	02007784 	andeq	r7, r0, #132, 14	; 0x2100000

020077a8 <menu_dsmath>:
 20077a8:	02007820 	andeq	r7, r0, #32, 16	; 0x200000
 20077ac:	0200858c 	andeq	r8, r0, #140, 10	; 0x23000000
 20077b0:	02007784 	andeq	r7, r0, #132, 14	; 0x2100000

020077b4 <menu_ipc>:
 20077b4:	02007868 	andeq	r7, r0, #104, 16	; 0x680000
 20077b8:	02008594 	andeq	r8, r0, #148, 10	; 0x25000000
 20077bc:	02007784 	andeq	r7, r0, #132, 14	; 0x2100000

020077c0 <menu_armv5>:
 20077c0:	02007898 	andeq	r7, r0, #152, 16	; 0x980000
 20077c4:	020085a0 	andeq	r8, r0, #160, 10	; 0x28000000
 20077c8:	02007784 	andeq	r7, r0, #132, 14	; 0x2100000
 20077cc:	020085bc 	andeq	r8, r0, #188, 10	; 0x2f000000
 20077d0:	02004fd4 	andeq	r4, r0, #212, 30	; 0x350
 20077d4:	00000002 	andeq	r0, r0, r2
 20077d8:	020085cc 	andeq	r8, r0, #204, 10	; 0x33000000
 20077dc:	0200518c 	andeq	r5, r0, #140, 2	; 0x23
 20077e0:	00000002 	andeq	r0, r0, r2
	...
 20077f0:	020085d4 	andeq	r8, r0, #212, 10	; 0x35000000
 20077f4:	02006104 	andeq	r6, r0, #4, 2
 20077f8:	00000000 	andeq	r0, r0, r0
 20077fc:	020085e0 	andeq	r8, r0, #224, 10	; 0x38000000
 2007800:	02005cd0 	andeq	r5, r0, #208, 24	; 0xd000
 2007804:	00000000 	andeq	r0, r0, r0
 2007808:	020085ec 	andeq	r8, r0, #236, 10	; 0x3b000000
 200780c:	02005954 	andeq	r5, r0, #84, 18	; 0x150000
	...
 2007820:	020085f0 	andeq	r8, r0, #240, 10	; 0x3c000000
 2007824:	02005914 	andeq	r5, r0, #20, 18	; 0x50000
 2007828:	00000000 	andeq	r0, r0, r0
 200782c:	020085f8 	andeq	r8, r0, #248, 10	; 0x3e000000
 2007830:	02005934 	andeq	r5, r0, #52, 18	; 0xd0000
 2007834:	00000000 	andeq	r0, r0, r0
 2007838:	02008600 	andeq	r8, r0, #0, 12
 200783c:	02004eb8 	andeq	r4, r0, #184, 28	; 0xb80
 2007840:	00000000 	andeq	r0, r0, r0
 2007844:	0200860c 	andeq	r8, r0, #12, 12	; 0xc00000
 2007848:	02004ed8 	andeq	r4, r0, #216, 28	; 0xd80
 200784c:	00000000 	andeq	r0, r0, r0
 2007850:	02008618 	andeq	r8, r0, #24, 12	; 0x1800000
 2007854:	02004ef8 	andeq	r4, r0, #248, 28	; 0xf80
	...
 2007868:	02008624 	andeq	r8, r0, #36, 12	; 0x2400000
 200786c:	0200574c 	andeq	r5, r0, #76, 14	; 0x1300000
 2007870:	00000000 	andeq	r0, r0, r0
 2007874:	0200862c 	andeq	r8, r0, #44, 12	; 0x2c00000
 2007878:	020052a4 	andeq	r5, r0, #164, 4	; 0x4000000a
 200787c:	00000000 	andeq	r0, r0, r0
 2007880:	02008634 	andeq	r8, r0, #52, 12	; 0x3400000
 2007884:	02005630 	andeq	r5, r0, #48, 12	; 0x3000000
	...
 2007898:	02008640 	andeq	r8, r0, #64, 12	; 0x4000000
 200789c:	02006680 	andeq	r6, r0, #128, 12	; 0x8000000
 20078a0:	00000000 	andeq	r0, r0, r0
 20078a4:	02008644 	andeq	r8, r0, #68, 12	; 0x4400000
 20078a8:	020066fc 	andeq	r6, r0, #252, 12	; 0xfc00000
 20078ac:	00000000 	andeq	r0, r0, r0
 20078b0:	02008650 	andeq	r8, r0, #80, 12	; 0x5000000
 20078b4:	02006a40 	andeq	r6, r0, #64, 20	; 0x40000
 20078b8:	00000000 	andeq	r0, r0, r0
 20078bc:	02008660 	andeq	r8, r0, #96, 12	; 0x6000000
 20078c0:	020070b0 	andeq	r7, r0, #176	; 0xb0
 20078c4:	00000000 	andeq	r0, r0, r0
 20078c8:	02008668 	andeq	r8, r0, #104, 12	; 0x6800000
 20078cc:	02006f04 	andeq	r6, r0, #4, 30
 20078d0:	00000000 	andeq	r0, r0, r0
 20078d4:	02008670 	andeq	r8, r0, #112, 12	; 0x7000000
 20078d8:	02007288 	andeq	r7, r0, #136, 4	; 0x80000008
 20078dc:	00000000 	andeq	r0, r0, r0
 20078e0:	02008678 	andeq	r8, r0, #120, 12	; 0x7800000
 20078e4:	02007130 	andeq	r7, r0, #48, 2
 20078e8:	00000000 	andeq	r0, r0, r0
 20078ec:	02008680 	andeq	r8, r0, #128, 12	; 0x8000000
 20078f0:	02007340 	andeq	r7, r0, #64, 6
 20078f4:	00000000 	andeq	r0, r0, r0
 20078f8:	02008688 	andeq	r8, r0, #136, 12	; 0x8800000
 20078fc:	0200742c 	andeq	r7, r0, #44, 8	; 0x2c000000
 2007900:	00000000 	andeq	r0, r0, r0
 2007904:	0200868c 	andeq	r8, r0, #140, 12	; 0x8c00000
 2007908:	020074dc 	andeq	r7, r0, #220, 8	; 0xdc000000
	...
 200791c:	020085a0 	andeq	r8, r0, #160, 10	; 0x28000000
 2007920:	020077c0 	andeq	r7, r0, #192, 14	; 0x3000000
 2007924:	00000001 	andeq	r0, r0, r1
 2007928:	020086ac 	andeq	r8, r0, #172, 12	; 0xac00000
 200792c:	020077b4 	andeq	r7, r0, #180, 14	; 0x2d00000
 2007930:	00000001 	andeq	r0, r0, r1
 2007934:	0200858c 	andeq	r8, r0, #140, 10	; 0x23000000
 2007938:	020077a8 	andeq	r7, r0, #168, 14	; 0x2a00000
 200793c:	00000001 	andeq	r0, r0, r1
 2007940:	020086b0 	andeq	r8, r0, #176, 12	; 0xb000000
 2007944:	0200779c 	andeq	r7, r0, #156, 14	; 0x2700000
 2007948:	00000001 	andeq	r0, r0, r1
 200794c:	0200856c 	andeq	r8, r0, #108, 10	; 0x1b000000
 2007950:	02007790 	andeq	r7, r0, #144, 14	; 0x2400000
 2007954:	00000001 	andeq	r0, r0, r1
	...
 2007964:	00000043 	andeq	r0, r0, r3, asr #32
 2007968:	00000000 	andeq	r0, r0, r0
 200796c:	0000000a 	andeq	r0, r0, r10
 2007970:	00000000 	andeq	r0, r0, r0
 2007974:	00000006 	andeq	r0, r0, r6
 2007978:	00000000 	andeq	r0, r0, r0
 200797c:	00000007 	andeq	r0, r0, r7
	...
 2007988:	00007ae7 	andeq	r7, r0, r7, ror #21
 200798c:	00000000 	andeq	r0, r0, r0
 2007990:	000001c8 	andeq	r0, r0, r8, asr #3
 2007994:	00000000 	andeq	r0, r0, r0
 2007998:	00000044 	andeq	r0, r0, r4, asr #32
 200799c:	00000000 	andeq	r0, r0, r0
 20079a0:	000001c7 	andeq	r0, r0, r7, asr #3
	...
 20079ac:	00007ae8 	andeq	r7, r0, r8, ror #21
 20079b0:	00000000 	andeq	r0, r0, r0
 20079b4:	000001c8 	andeq	r0, r0, r8, asr #3
 20079b8:	00000000 	andeq	r0, r0, r0
 20079bc:	00000045 	andeq	r0, r0, r5, asr #32
	...
 20079d0:	00007ae9 	andeq	r7, r0, r9, ror #21
 20079d4:	00000000 	andeq	r0, r0, r0
 20079d8:	000001c8 	andeq	r0, r0, r8, asr #3
 20079dc:	00000000 	andeq	r0, r0, r0
 20079e0:	00000045 	andeq	r0, r0, r5, asr #32
 20079e4:	00000000 	andeq	r0, r0, r0
 20079e8:	00000001 	andeq	r0, r0, r1
	...
 20079f4:	ffffff74 			; <UNDEFINED> instruction: 0xffffff74
 20079f8:	0000002c 	andeq	r0, r0, r12, lsr #32
 20079fc:	00000012 	andeq	r0, r0, r2, lsl r0
 2007a00:	00000001 	andeq	r0, r0, r1
 2007a04:	fffffff9 			; <UNDEFINED> instruction: 0xfffffff9
 2007a08:	ffffffff 			; <UNDEFINED> instruction: 0xffffffff
 2007a0c:	fffffff2 			; <UNDEFINED> instruction: 0xfffffff2
 2007a10:	ffffffff 			; <UNDEFINED> instruction: 0xffffffff
 2007a14:	00000000 	andeq	r0, r0, r0
 2007a18:	fffffcd7 			; <UNDEFINED> instruction: 0xfffffcd7
 2007a1c:	0000007b 	andeq	r0, r0, r11, ror r0
 2007a20:	00000012 	andeq	r0, r0, r2, lsl r0
 2007a24:	000000bc 	strheq	r0, [r0], -r12
 2007a28:	ffffffd4 			; <UNDEFINED> instruction: 0xffffffd4
 2007a2c:	ffffffff 			; <UNDEFINED> instruction: 0xffffffff
 2007a30:	ffffffef 			; <UNDEFINED> instruction: 0xffffffef
 2007a34:	ffffffff 			; <UNDEFINED> instruction: 0xffffffff
 2007a38:	00000000 	andeq	r0, r0, r0
 2007a3c:	fffffcd6 			; <UNDEFINED> instruction: 0xfffffcd6
 2007a40:	ffffff85 			; <UNDEFINED> instruction: 0xffffff85
 2007a44:	00000012 	andeq	r0, r0, r2, lsl r0
 2007a48:	0000000b 	andeq	r0, r0, r11
 2007a4c:	ffffffd3 			; <UNDEFINED> instruction: 0xffffffd3
 2007a50:	ffffffff 			; <UNDEFINED> instruction: 0xffffffff
	...
 2007a60:	fffffcd5 			; <UNDEFINED> instruction: 0xfffffcd5
 2007a64:	00000000 	andeq	r0, r0, r0
 2007a68:	00000012 	andeq	r0, r0, r2, lsl r0
 2007a6c:	ffffffcd 			; <UNDEFINED> instruction: 0xffffffcd
 2007a70:	ffffffd3 			; <UNDEFINED> instruction: 0xffffffd3
 2007a74:	ffffffff 			; <UNDEFINED> instruction: 0xffffffff
 2007a78:	ffffffff 			; <UNDEFINED> instruction: 0xffffffff
 2007a7c:	ffffffff 			; <UNDEFINED> instruction: 0xffffffff
 2007a80:	00000000 	andeq	r0, r0, r0
 2007a84:	00000331 	andeq	r0, r0, r1, lsr r3
 2007a88:	fffffffb 			; <UNDEFINED> instruction: 0xfffffffb
 2007a8c:	fffffff6 			; <UNDEFINED> instruction: 0xfffffff6
 2007a90:	fffffffb 			; <UNDEFINED> instruction: 0xfffffffb
 2007a94:	ffffffaf 			; <UNDEFINED> instruction: 0xffffffaf
 2007a98:	ffffffff 			; <UNDEFINED> instruction: 0xffffffff
 2007a9c:	00000007 	andeq	r0, r0, r7
	...
 2007aa8:	0000032a 	andeq	r0, r0, r10, lsr #6
 2007aac:	fffffffb 			; <UNDEFINED> instruction: 0xfffffffb
 2007ab0:	fffffff6 			; <UNDEFINED> instruction: 0xfffffff6
 2007ab4:	fffffffb 			; <UNDEFINED> instruction: 0xfffffffb
 2007ab8:	ffffffaf 			; <UNDEFINED> instruction: 0xffffffaf
 2007abc:	ffffffff 			; <UNDEFINED> instruction: 0xffffffff
	...
 2007acc:	0000032b 	andeq	r0, r0, r11, lsr #6
 2007ad0:	fffffffa 			; <UNDEFINED> instruction: 0xfffffffa
 2007ad4:	fffffff6 			; <UNDEFINED> instruction: 0xfffffff6
 2007ad8:	00000213 	andeq	r0, r0, r3, lsl r2
 2007adc:	ffffffaf 			; <UNDEFINED> instruction: 0xffffffaf
 2007ae0:	ffffffff 			; <UNDEFINED> instruction: 0xffffffff
 2007ae4:	00000001 	andeq	r0, r0, r1
	...
 2007af0:	00000329 	andeq	r0, r0, r9, lsr #6
 2007af4:	00000005 	andeq	r0, r0, r5
 2007af8:	fffffff6 			; <UNDEFINED> instruction: 0xfffffff6
 2007afc:	000000fc 	strdeq	r0, [r0], -r12
 2007b00:	ffffffb0 			; <UNDEFINED> instruction: 0xffffffb0
 2007b04:	ffffffff 			; <UNDEFINED> instruction: 0xffffffff
 2007b08:	00000009 	andeq	r0, r0, r9
	...
 2007b14:	ffffffca 			; <UNDEFINED> instruction: 0xffffffca
 2007b18:	000000f4 	strdeq	r0, [r0], -r4
 2007b1c:	fffffff6 			; <UNDEFINED> instruction: 0xfffffff6
 2007b20:	000001ac 	andeq	r0, r0, r12, lsr #3
 2007b24:	00000005 	andeq	r0, r0, r5
 2007b28:	00000000 	andeq	r0, r0, r0
 2007b2c:	fffffffc 			; <UNDEFINED> instruction: 0xfffffffc
 2007b30:	ffffffff 			; <UNDEFINED> instruction: 0xffffffff
 2007b34:	00000000 	andeq	r0, r0, r0
 2007b38:	ffffffc5 			; <UNDEFINED> instruction: 0xffffffc5
 2007b3c:	000000f4 	strdeq	r0, [r0], -r4
 2007b40:	fffffff6 			; <UNDEFINED> instruction: 0xfffffff6
 2007b44:	000001ac 	andeq	r0, r0, r12, lsr #3
 2007b48:	00000005 	andeq	r0, r0, r5
 2007b4c:	00000000 	andeq	r0, r0, r0
 2007b50:	fffffff7 			; <UNDEFINED> instruction: 0xfffffff7
 2007b54:	ffffffff 			; <UNDEFINED> instruction: 0xffffffff
 2007b58:	00000000 	andeq	r0, r0, r0
 2007b5c:	ffffffc4 			; <UNDEFINED> instruction: 0xffffffc4
 2007b60:	000000f4 	strdeq	r0, [r0], -r4
 2007b64:	fffffff6 			; <UNDEFINED> instruction: 0xfffffff6
 2007b68:	000001ac 	andeq	r0, r0, r12, lsr #3
 2007b6c:	00000006 	andeq	r0, r0, r6
	...
 2007b80:	ffffffc3 			; <UNDEFINED> instruction: 0xffffffc3
 2007b84:	000000f4 	strdeq	r0, [r0], -r4
 2007b88:	fffffff6 			; <UNDEFINED> instruction: 0xfffffff6
 2007b8c:	000001ac 	andeq	r0, r0, r12, lsr #3
 2007b90:	00000006 	andeq	r0, r0, r6
 2007b94:	00000000 	andeq	r0, r0, r0
 2007b98:	ffffffff 			; <UNDEFINED> instruction: 0xffffffff
 2007b9c:	ffffffff 			; <UNDEFINED> instruction: 0xffffffff
 2007ba0:	00000000 	andeq	r0, r0, r0
 2007ba4:	000000bc 	strheq	r0, [r0], -r12
 2007ba8:	00000000 	andeq	r0, r0, r0
 2007bac:	00000001 	andeq	r0, r0, r1
 2007bb0:	00000000 	andeq	r0, r0, r0
 2007bb4:	000000bc 	strheq	r0, [r0], -r12
	...
 2007bc8:	ffffff85 			; <UNDEFINED> instruction: 0xffffff85
 2007bcc:	00000000 	andeq	r0, r0, r0
 2007bd0:	00000001 	andeq	r0, r0, r1
 2007bd4:	00000000 	andeq	r0, r0, r0
 2007bd8:	ffffff85 			; <UNDEFINED> instruction: 0xffffff85
 2007bdc:	ffffffff 			; <UNDEFINED> instruction: 0xffffffff
	...
 2007bec:	00000266 	andeq	r0, r0, r6, ror #4
 2007bf0:	00000000 	andeq	r0, r0, r0
 2007bf4:	ffffffff 			; <UNDEFINED> instruction: 0xffffffff
 2007bf8:	00000000 	andeq	r0, r0, r0
 2007bfc:	fffffd9a 			; <UNDEFINED> instruction: 0xfffffd9a
 2007c00:	ffffffff 			; <UNDEFINED> instruction: 0xffffffff
	...
 2007c10:	fffffdd5 			; <UNDEFINED> instruction: 0xfffffdd5
 2007c14:	00000000 	andeq	r0, r0, r0
 2007c18:	ffffffff 			; <UNDEFINED> instruction: 0xffffffff
 2007c1c:	00000000 	andeq	r0, r0, r0
 2007c20:	0000022b 	andeq	r0, r0, r11, lsr #4
	...
 2007c34:	80000000 	andhi	r0, r0, r0
 2007c38:	00000000 	andeq	r0, r0, r0
 2007c3c:	ffffffff 			; <UNDEFINED> instruction: 0xffffffff
 2007c40:	00000000 	andeq	r0, r0, r0
 2007c44:	80000000 	andhi	r0, r0, r0
	...
 2007c58:	0000007b 	andeq	r0, r0, r11, ror r0
	...
 2007c64:	0000022b 	andeq	r0, r0, r11, lsr #4
 2007c68:	ffffffff 			; <UNDEFINED> instruction: 0xffffffff
 2007c6c:	00000000 	andeq	r0, r0, r0
 2007c70:	0000007b 	andeq	r0, r0, r11, ror r0
	...
 2007c7c:	ffffff85 			; <UNDEFINED> instruction: 0xffffff85
	...
 2007c88:	0000022b 	andeq	r0, r0, r11, lsr #4
 2007c8c:	00000001 	andeq	r0, r0, r1
 2007c90:	ffffffff 			; <UNDEFINED> instruction: 0xffffffff
 2007c94:	ffffff85 			; <UNDEFINED> instruction: 0xffffff85
 2007c98:	ffffffff 			; <UNDEFINED> instruction: 0xffffffff
	...
 2007cac:	0000022b 	andeq	r0, r0, r11, lsr #4
 2007cb0:	ffffffff 			; <UNDEFINED> instruction: 0xffffffff
	...
 2007cc4:	000001c8 	andeq	r0, r0, r8, asr #3
	...
 2007cd4:	ffffffff 			; <UNDEFINED> instruction: 0xffffffff
 2007cd8:	00000000 	andeq	r0, r0, r0
 2007cdc:	000001c8 	andeq	r0, r0, r8, asr #3
 2007ce0:	00000000 	andeq	r0, r0, r0
 2007ce4:	00000001 	andeq	r0, r0, r1
 2007ce8:	fffffe38 			; <UNDEFINED> instruction: 0xfffffe38
	...
 2007cf8:	00000001 	andeq	r0, r0, r1
 2007cfc:	ffffffff 			; <UNDEFINED> instruction: 0xffffffff
 2007d00:	fffffe38 			; <UNDEFINED> instruction: 0xfffffe38
 2007d04:	ffffffff 			; <UNDEFINED> instruction: 0xffffffff
 2007d08:	00000001 	andeq	r0, r0, r1
	...
 2007d1c:	ffffffff 			; <UNDEFINED> instruction: 0xffffffff
	...
 2007d2c:	00000001 	andeq	r0, r0, r1
 2007d30:	ccae685d 	stcgt	8, cr6, [r14], #372	; 0x174
 2007d34:	5925fa0b 	stmdbpl	r5!, {r0, r1, r3, r9, r11, r12, r13, r14, r15}
 2007d38:	0e18d8d6 	mrceq	8, 0, r13, cr8, cr6, {6}
 2007d3c:	abbb6885 	blge	ee1f58 <_stack+0xe61f58>
 2007d40:	52eae999 	rscpl	r14, r10, #2506752	; 0x264000
 2007d44:	00000006 	andeq	r0, r0, r6
 2007d48:	02de0a77 	sbcseq	r0, r14, #487424	; 0x77000
	...
 2007d54:	806d5074 	rsbhi	r5, r13, r4, ror r0
 2007d58:	d1e29c22 	mvnle	r9, r2, lsr #24
 2007d5c:	195dffb6 	ldmdbne	r13, {r1, r2, r4, r5, r7, r8, r9, r10, r11, r12, r13, r14, r15}^
 2007d60:	ba6a150a 	blt	3a8d190 <__bss_end__+0x1a74a00>
 2007d64:	2e9e9d5f 	mrccs	13, 4, r9, cr14, cr15, {2}
 2007d68:	fffffffe 			; <UNDEFINED> instruction: 0xfffffffe
 2007d6c:	ea64cdea 	b	393b51c <__bss_end__+0x1922d8c>
 2007d70:	ffffffff 			; <UNDEFINED> instruction: 0xffffffff
 2007d74:	00000000 	andeq	r0, r0, r0
 2007d78:	7291f5d9 	addsvc	r15, r1, #910163968	; 0x36400000
 2007d7c:	6ebff54c 	cdpvs	5, 11, cr15, cr15, cr12, {2}
 2007d80:	072e2d38 			; <UNDEFINED> instruction: 0x072e2d38
 2007d84:	e8aad872 	stmia	r10!, {r1, r4, r5, r6, r11, r12, r14, r15}
 2007d88:	6c88798d 			; <UNDEFINED> instruction: 0x6c88798d
 2007d8c:	0000000f 	andeq	r0, r0, r15
 2007d90:	05039601 	streq	r9, [r3, #-1537]	; 0xfffff9ff
	...
 2007d9c:	83741881 	cmnhi	r4, #8454144	; 0x810000
 2007da0:	43fdc1c7 	mvnsmi	r12, #-1073741775	; 0xc0000031
 2007da4:	4ff12872 	svcmi	0x00f12872
 2007da8:	db68f5f7 	blle	3a4558c <__bss_end__+0x1a2cdfc>
 2007dac:	d9bad10b 	ldmible	r10!, {r0, r1, r3, r8, r12, r14, r15}
 2007db0:	00000000 	andeq	r0, r0, r0
 2007db4:	2d3e499b 			; <UNDEFINED> instruction: 0x2d3e499b
	...
 2007dc0:	bd72f4c2 	cfldrdlt	mvd15, [r2, #-776]!	; 0xfffffcf8
 2007dc4:	09ea2839 	stmibeq	r10!, {r0, r3, r4, r5, r11, r13}^
 2007dc8:	b176b6bb 	ldrhlt	r11, [r6, #-107]!	; 0xffffff95
 2007dcc:	e985e751 	stmib	r5, {r0, r4, r6, r8, r9, r10, r13, r14, r15}
 2007dd0:	dfae8559 	svcle	0x00ae8559
 2007dd4:	ffffffff 			; <UNDEFINED> instruction: 0xffffffff
 2007dd8:	462446bf 			; <UNDEFINED> instruction: 0x462446bf
	...
 2007de4:	d9204a08 	stmdble	r0!, {r3, r9, r11, r14}
 2007de8:	a39bb2b8 	orrsge	r11, r11, #184, 4	; 0x8000000b
 2007dec:	dbf0b392 	blle	1c34c3c <_stack+0x1bb4c3c>
 2007df0:	74f1a2c8 	ldrbtvc	r10, [r1], #712	; 0x2c8
 2007df4:	8feb683b 	svchi	0x00eb683b
 2007df8:	00000002 	andeq	r0, r0, r2
 2007dfc:	faad9762 	blx	b6db8c <_stack+0xaedb8c>
 2007e00:	ffffffff 			; <UNDEFINED> instruction: 0xffffffff
 2007e04:	00000000 	andeq	r0, r0, r0
 2007e08:	b0125148 	andslt	r5, r2, r8, asr #2
 2007e0c:	0d9f0736 	ldceq	7, cr0, [r15, #216]	; 2007eec <menu_armv5+0x72c>
 2007e10:	237e8059 	cmncs	r14, #89	; 0x59
 2007e14:	b30add2c 	movwlt	r13, #44332	; 0xad2c
 2007e18:	623e0a69 	eorsvs	r0, r14, #430080	; 0x69000
 2007e1c:	00000000 	andeq	r0, r0, r0
 2007e20:	089e32c7 	ldmeq	r14, {r0, r1, r2, r6, r7, r9, r12, r13}
	...
 2007e2c:	f5b1c3a0 			; <UNDEFINED> instruction: 0xf5b1c3a0
 2007e30:	8af3f163 	bhi	1d043c4 <_stack+0x1c843c4>
 2007e34:	e4f359a0 	ldrbt	r5, [r3], #2464	; 0x9a0
 2007e38:	ea11c6b2 	b	2479908 <__bss_end__+0x461178>
 2007e3c:	53c0a754 	bicpl	r10, r0, #84, 14	; 0x1500000
 2007e40:	00000004 	andeq	r0, r0, r4
 2007e44:	fe60fb20 	vselge.f64	d31, d0, d16
 2007e48:	ffffffff 			; <UNDEFINED> instruction: 0xffffffff
 2007e4c:	00000000 	andeq	r0, r0, r0
 2007e50:	4d668fa1 	stclmi	15, cr8, [r6, #-644]!	; 0xfffffd7c
 2007e54:	2044d84c 	subcs	r13, r4, r12, asr #16
 2007e58:	1a5cffaa 	bne	3747d08 <__bss_end__+0x172f578>
 2007e5c:	9bc894a1 	blls	122d0e8 <_stack+0x11ad0e8>
 2007e60:	3958bfb0 	ldmdbcc	r8, {r4, r5, r7, r8, r9, r10, r11, r12, r13, r15}^
 2007e64:	00000001 	andeq	r0, r0, r1
 2007e68:	0e46f4c1 	cdpeq	4, 4, cr15, cr6, cr1, {6}
	...
 2007e74:	186ba75c 	stmdane	r11!, {r2, r3, r4, r6, r8, r9, r10, r13, r15}^
 2007e78:	3a4c565b 	bcc	331d7ec <__bss_end__+0x130505c>
 2007e7c:	a8dc2568 	ldmge	r12, {r3, r5, r6, r8, r10, r13}^
 2007e80:	adcde85c 	stclge	8, cr14, [r13, #368]	; 0x170
 2007e84:	54bb4a64 	ldrtpl	r4, [r11], #2660	; 0xa64
 2007e88:	ffffffff 			; <UNDEFINED> instruction: 0xffffffff
 2007e8c:	0ca4fabc 	vstmiaeq	r4!, {s30-s217}
	...
 2007e98:	73186782 	tstvc	r8, #34078720	; 0x2080000
 2007e9c:	41e9fa8e 	mvnmi	r15, r14, lsl #21
 2007ea0:	b9f14bd2 	ldmiblt	r1!, {r1, r4, r6, r7, r8, r9, r11, r14}^
 2007ea4:	227c6951 	rsbscs	r6, r12, #1327104	; 0x144000
 2007ea8:	0f240af5 	svceq	0x00240af5
 2007eac:	ffffffff 			; <UNDEFINED> instruction: 0xffffffff
 2007eb0:	1aaca388 	bne	b30cd8 <_stack+0xab0cd8>
	...
 2007ebc:	00f79544 	rscseq	r9, r7, r4, asr #10
 2007ec0:	787f2241 	ldmdavc	r15!, {r0, r6, r9, r13}^	; <UNPREDICTABLE>
 2007ec4:	5a974696 	bpl	5d9924 <_stack+0x559924>
 2007ec8:	033c7506 	teqeq	r12, #25165824	; 0x1800000
 2007ecc:	54829d5d 	strpl	r9, [r2], #3421	; 0xd5d
 2007ed0:	00000001 	andeq	r0, r0, r1
 2007ed4:	418cf2c6 	orrmi	r15, r12, r6, asr #5
	...
 2007ee0:	ec716d8c 	ldcl	13, cr6, [r1], #-560	; 0xfffffdd0
 2007ee4:	cdff014e 	ldfgte	f0, [r15, #312]!	; 2008024 <menu_armv5+0x864>
 2007ee8:	62e40ff8 	rscvs	r0, r4, #248, 30	; 0x3e0
 2007eec:	f2c6c69a 			; <UNDEFINED> instruction: 0xf2c6c69a
 2007ef0:	7e8de87b 	mcrvc	8, 4, r14, cr13, cr11, {3}
 2007ef4:	ffffffff 			; <UNDEFINED> instruction: 0xffffffff
 2007ef8:	decd0164 	polleez	f0, f5, f4
 2007efc:	ffffffff 			; <UNDEFINED> instruction: 0xffffffff
 2007f00:	00000000 	andeq	r0, r0, r0
 2007f04:	9533d3d7 	ldrls	r13, [r3, #-983]!	; 0xfffffc29
 2007f08:	e02d17ca 	eor	r1, r13, r10, asr #15
 2007f0c:	f515f9f4 	pldw	[r5, #-2548]	; 0xfffff60c
 2007f10:	701da0b4 	ldrhvc	r10, [r13], -r4
 2007f14:	ea740ccc 	b	3d0b24c <__bss_end__+0x1cf2abc>
 2007f18:	00000002 	andeq	r0, r0, r2
 2007f1c:	f5693567 			; <UNDEFINED> instruction: 0xf5693567
 2007f20:	ffffffff 			; <UNDEFINED> instruction: 0xffffffff
 2007f24:	00000000 	andeq	r0, r0, r0
 2007f28:	d07c56a1 	rsbsle	r5, r12, r1, lsr #13
 2007f2c:	8c39b68f 	ldchi	6, cr11, [r9], #-572	; 0xfffffdc4
 2007f30:	4e1a8d35 	mrcmi	13, 0, r8, cr10, cr5, {1}
 2007f34:	0fd271db 	svceq	0x00d271db
 2007f38:	8486cc19 	strhi	r12, [r6], #3097	; 0xc19
 2007f3c:	fffffffe 			; <UNDEFINED> instruction: 0xfffffffe
 2007f40:	c9a05074 	stmibgt	r0!, {r2, r4, r5, r6, r12, r14}
 2007f44:	ffffffff 			; <UNDEFINED> instruction: 0xffffffff
 2007f48:	00000000 	andeq	r0, r0, r0
 2007f4c:	0ab8ab48 	beq	e32c74 <_stack+0xdb2c74>
 2007f50:	bdb2a983 			; <UNDEFINED> instruction: 0xbdb2a983
 2007f54:	120e5e04 	andne	r5, r14, #4, 28	; 0x40
 2007f58:	255d2a2f 	ldrbcs	r2, [r13, #-2607]	; 0xfffff5d1
 2007f5c:	53f7bb96 	mvnspl	r11, #153600	; 0x25800
 2007f60:	fffffffc 			; <UNDEFINED> instruction: 0xfffffffc
 2007f64:	f5c4a8f0 			; <UNDEFINED> instruction: 0xf5c4a8f0
 2007f68:	ffffffff 			; <UNDEFINED> instruction: 0xffffffff
	...
 2007f74:	80000000 	andhi	r0, r0, r0
 2007f78:	ffffffff 			; <UNDEFINED> instruction: 0xffffffff
	...
 2007f84:	80000000 	andhi	r0, r0, r0
	...
 2007f94:	0000007b 	andeq	r0, r0, r11, ror r0
 2007f98:	00000006 	andeq	r0, r0, r6
 2007f9c:	00000000 	andeq	r0, r0, r0
 2007fa0:	00000555 	andeq	r0, r0, r5, asr r5
 2007fa4:	ffffffff 			; <UNDEFINED> instruction: 0xffffffff
 2007fa8:	ffffffff 			; <UNDEFINED> instruction: 0xffffffff
 2007fac:	0000007b 	andeq	r0, r0, r11, ror r0
 2007fb0:	00000006 	andeq	r0, r0, r6
 2007fb4:	00000000 	andeq	r0, r0, r0
 2007fb8:	ffffff85 			; <UNDEFINED> instruction: 0xffffff85
 2007fbc:	fffffff8 			; <UNDEFINED> instruction: 0xfffffff8
 2007fc0:	00000000 	andeq	r0, r0, r0
 2007fc4:	00000555 	andeq	r0, r0, r5, asr r5
 2007fc8:	00000001 	andeq	r0, r0, r1
 2007fcc:	00000000 	andeq	r0, r0, r0
 2007fd0:	ffffff85 			; <UNDEFINED> instruction: 0xffffff85
 2007fd4:	fffffff8 			; <UNDEFINED> instruction: 0xfffffff8
	...
 2007fe8:	00000555 	andeq	r0, r0, r5, asr r5
 2007fec:	ffffffff 			; <UNDEFINED> instruction: 0xffffffff
 2007ff0:	ffffffff 			; <UNDEFINED> instruction: 0xffffffff
	...
 2008000:	000001c8 	andeq	r0, r0, r8, asr #3
 2008004:	00000006 	andeq	r0, r0, r6
	...
 2008010:	ffffffff 			; <UNDEFINED> instruction: 0xffffffff
 2008014:	ffffffff 			; <UNDEFINED> instruction: 0xffffffff
 2008018:	000001c8 	andeq	r0, r0, r8, asr #3
 200801c:	00000006 	andeq	r0, r0, r6
 2008020:	00000001 	andeq	r0, r0, r1
 2008024:	fffffe38 			; <UNDEFINED> instruction: 0xfffffe38
 2008028:	fffffff8 			; <UNDEFINED> instruction: 0xfffffff8
	...
 2008034:	00000001 	andeq	r0, r0, r1
 2008038:	00000000 	andeq	r0, r0, r0
 200803c:	fffffe38 			; <UNDEFINED> instruction: 0xfffffe38
 2008040:	fffffff8 			; <UNDEFINED> instruction: 0xfffffff8
 2008044:	00000001 	andeq	r0, r0, r1
	...
 2008058:	ffffffff 			; <UNDEFINED> instruction: 0xffffffff
 200805c:	ffffffff 			; <UNDEFINED> instruction: 0xffffffff
	...
 2008068:	00000001 	andeq	r0, r0, r1
 200806c:	6bf84f69 	blvs	1e1be18 <_stack+0x1d9be18>
 2008070:	accc50c6 	stclge	0, cr5, [r12], {198}	; 0xc6
 2008074:	16949cbe 			; <UNDEFINED> instruction: 0x16949cbe
 2008078:	758ff89e 	strvc	r15, [pc, #2206]	; 200891e <menu_armv5+0x115e>
	...
 2008084:	6bf84f69 	blvs	1e1be30 <_stack+0x1d9be30>
 2008088:	accc50c6 	stclge	0, cr5, [r12], {198}	; 0xc6
 200808c:	00000000 	andeq	r0, r0, r0
 2008090:	d441e4ca 	strble	r14, [r1], #-1226	; 0xfffffb36
 2008094:	a6a1aabe 			; <UNDEFINED> instruction: 0xa6a1aabe
 2008098:	9f2d5caa 	svcls	0x002d5caa
 200809c:	7591fb79 	ldrvc	r15, [r1, #2937]	; 0xb79
	...
 20080a8:	d441e4ca 	strble	r14, [r1], #-1226	; 0xfffffb36
 20080ac:	a6a1aabe 			; <UNDEFINED> instruction: 0xa6a1aabe
 20080b0:	00000000 	andeq	r0, r0, r0
 20080b4:	d34ae5cb 	movtle	r14, #42443	; 0xa5cb
 20080b8:	3440f8a8 	strbcc	r15, [r0], #-2216	; 0xfffff758	; <UNPREDICTABLE>
 20080bc:	05b8b3fc 	ldreq	r11, [r8, #1020]!	; 0x3fc
 20080c0:	00000000 	andeq	r0, r0, r0
 20080c4:	22050ce7 	andcs	r0, r5, #59136	; 0xe700
 20080c8:	00000009 	andeq	r0, r0, r9
 20080cc:	0544ad67 	strbeq	r10, [r4, #-3431]	; 0xfffff299
	...
 20080d8:	c48cbdee 	strgt	r11, [r12], #3566	; 0xdee
 20080dc:	039ea643 	orrseq	r10, r14, #70254592	; 0x4300000
 20080e0:	6d26267e 	stcvs	6, cr2, [r6, #-504]!	; 0xfffffe08
 20080e4:	5cee6ba4 	vstmiapl	r14!, {d22-<overflow reg d39>}
	...
 20080f0:	c48cbdee 	strgt	r11, [r12], #3566	; 0xdee
 20080f4:	039ea643 	orrseq	r10, r14, #70254592	; 0x4300000
 20080f8:	00000000 	andeq	r0, r0, r0
 20080fc:	e451c73d 	ldrb	r12, [r1], #-1853	; 0xfffff8c3
 2008100:	6fb01bc4 	svcvs	0x00b01bc4
 2008104:	e9ec0963 	stmib	r12!, {r0, r1, r5, r6, r8, r11}^
 2008108:	9b408dac 	blls	302b7c0 <__bss_end__+0x1013030>
 200810c:	ffffffff 			; <UNDEFINED> instruction: 0xffffffff
 2008110:	ffffffff 			; <UNDEFINED> instruction: 0xffffffff
 2008114:	ce3dd0a0 	cdpgt	0, 3, cr13, cr13, cr0, {5}
 2008118:	0af0a971 	beq	1c326e4 <_stack+0x1bb26e4>
 200811c:	00000000 	andeq	r0, r0, r0
 2008120:	3e51fb3e 	vmovcc.s8	r15, d1[1]
 2008124:	339ca0ed 	orrscc	r10, r12, #237	; 0xed
 2008128:	fabd8205 	blx	f68944 <_stack+0xee8944>
 200812c:	3ce3af82 	stclcc	15, cr10, [r3], #520	; 0x208
	...
 2008138:	3e51fb3e 	vmovcc.s8	r15, d1[1]
 200813c:	339ca0ed 	orrscc	r10, r12, #237	; 0xed
 2008140:	00000000 	andeq	r0, r0, r0
 2008144:	140450bb 	strne	r5, [r4], #-187	; 0xffffff45
 2008148:	354a66af 	strbcc	r6, [r10, #-1711]	; 0xfffff951
 200814c:	59ae4216 	stmibpl	r14!, {r1, r2, r4, r9, r14}
 2008150:	0195486a 	orrseq	r4, r5, r10, ror #16
 2008154:	00000021 	andeq	r0, r0, r1, lsr #32
 2008158:	00000000 	andeq	r0, r0, r0
 200815c:	848dcbe5 	strhi	r12, [r13], #3045	; 0xbe5
 2008160:	010c10f9 	strdeq	r1, [r12, -r9]
 2008164:	00000000 	andeq	r0, r0, r0
 2008168:	83863bd7 	orrhi	r3, r6, #220160	; 0x35c00
 200816c:	7d69b1b2 	stfvcp	f3, [r9, #-712]!	; 0xfffffd38
 2008170:	4438bfdd 	ldrtmi	r11, [r8], #-4061	; 0xfffff023
 2008174:	6dbd22d3 	lfmvs	f2, 4, [r13, #844]!	; 0x34c
 2008178:	00000001 	andeq	r0, r0, r1
 200817c:	00000000 	andeq	r0, r0, r0
 2008180:	3f4d7bfa 	svccc	0x004d7bfa
 2008184:	0fac8edf 	svceq	0x00ac8edf
 2008188:	00000000 	andeq	r0, r0, r0
 200818c:	9f5201c8 	svcls	0x005201c8
 2008190:	7a56eba7 	bvc	35c3034 <__bss_end__+0x15aa8a4>
 2008194:	2642ca78 			; <UNDEFINED> instruction: 0x2642ca78
 2008198:	754a7d71 	strbvc	r7, [r10, #-3441]	; 0xfffff28f
 200819c:	00000001 	andeq	r0, r0, r1
 20081a0:	00000000 	andeq	r0, r0, r0
 20081a4:	790f3750 	stmdbvc	r15, {r4, r6, r8, r9, r10, r12, r13}	; <UNPREDICTABLE>
 20081a8:	050c6e36 	streq	r6, [r12, #-3638]	; 0xfffff1ca
 20081ac:	00000000 	andeq	r0, r0, r0
 20081b0:	17f6ecde 	ubfxne	r14, r14, #25, #23
 20081b4:	9096476d 	addsls	r4, r6, r13, ror #14
 20081b8:	d9a8c491 	stmible	r8!, {r0, r4, r7, r10, r14, r15}
 20081bc:	6ff93349 	svcvs	0x00f93349
	...
 20081c8:	17f6ecde 	ubfxne	r14, r14, #25, #23
 20081cc:	9096476d 	addsls	r4, r6, r13, ror #14
 20081d0:	00000000 	andeq	r0, r0, r0
 20081d4:	78521eaa 	ldmdavc	r2, {r1, r3, r5, r7, r9, r10, r11, r12}^
 20081d8:	bde47a5d 			; <UNDEFINED> instruction: 0xbde47a5d
 20081dc:	72b6811c 	adcsvc	r8, r6, #28, 2
 20081e0:	2864c2d3 	stmdacs	r4!, {r0, r1, r4, r6, r7, r9, r14, r15}^
 20081e4:	ffffffff 			; <UNDEFINED> instruction: 0xffffffff
 20081e8:	ffffffff 			; <UNDEFINED> instruction: 0xffffffff
 20081ec:	eb089fc6 	bl	223010c <__bss_end__+0x21797c>
 20081f0:	e6493d30 			; <UNDEFINED> instruction: 0xe6493d30
 20081f4:	00000000 	andeq	r0, r0, r0
 20081f8:	2bf6cb73 	blcs	1dbafcc <_stack+0x1d3afcc>
 20081fc:	501a370f 	andspl	r3, r10, r15, lsl #14
 2008200:	b582bdd6 	strlt	r11, [r2, #3542]	; 0xdd6
 2008204:	05b93e71 	ldreq	r3, [r9, #3697]!	; 0xe71
 2008208:	0000000d 	andeq	r0, r0, r13
 200820c:	00000000 	andeq	r0, r0, r0
 2008210:	f4532795 			; <UNDEFINED> instruction: 0xf4532795
 2008214:	05b20b48 	ldreq	r0, [r2, #2888]!	; 0xb48
 2008218:	00000000 	andeq	r0, r0, r0
 200821c:	a2e10e01 	rscge	r0, r1, #1, 28
 2008220:	e4db166b 	ldrb	r1, [r11], #1643	; 0x66b
 2008224:	b6672d53 			; <UNDEFINED> instruction: 0xb6672d53
 2008228:	1e8541d2 	mcrne	1, 4, r4, cr5, cr2, {6}
	...
 2008234:	a2e10e01 	rscge	r0, r1, #1, 28
 2008238:	e4db166b 	ldrb	r1, [r11], #1643	; 0x66b
 200823c:	00000000 	andeq	r0, r0, r0
 2008240:	65508791 	ldrbvs	r8, [r0, #-1937]	; 0xfffff86f
 2008244:	395167bf 	ldmdbcc	r1, {r0, r1, r2, r3, r4, r5, r7, r8, r9, r10, r13, r14}^
 2008248:	1ec3eb4c 			; <UNDEFINED> instruction: 0x1ec3eb4c
 200824c:	00000000 	andeq	r0, r0, r0
 2008250:	dcf24b34 	vldmiale	r2!, {d20-<overflow reg d45>}
 2008254:	00000001 	andeq	r0, r0, r1
 2008258:	01bd7821 			; <UNDEFINED> instruction: 0x01bd7821
	...
 2008264:	57508b1c 	smmlapl	r0, r12, r11, r8
 2008268:	92fb4bc6 	rscsls	r4, r11, #202752	; 0x31800
 200826c:	74401965 	strbvc	r1, [r0], #-2405	; 0xfffff69b
 2008270:	00000000 	andeq	r0, r0, r0
 2008274:	0fed098f 	svceq	0x00ed098f
 2008278:	ffffffff 			; <UNDEFINED> instruction: 0xffffffff
 200827c:	b91cceb1 	ldmdblt	r12, {r0, r4, r5, r7, r9, r10, r11, r14, r15}
 2008280:	ffffffff 			; <UNDEFINED> instruction: 0xffffffff
 2008284:	00000000 	andeq	r0, r0, r0
 2008288:	70554849 	subsvc	r4, r5, r9, asr #16
 200828c:	b6f0b853 	usatlt	r11, #16, r3, asr #16
 2008290:	7ef1b9d1 			; <UNDEFINED> instruction: 0x7ef1b9d1
 2008294:	bcb1839c 	ldclt	3, cr8, [r1], #624	; 0x270
 2008298:	00000001 	andeq	r0, r0, r1
 200829c:	00000000 	andeq	r0, r0, r0
 20082a0:	f1638e78 			; <UNDEFINED> instruction: 0xf1638e78
 20082a4:	fa3f34b6 	blx	2fd5584 <__bss_end__+0xfbcdf4>
	...
 20082b0:	80000000 	andhi	r0, r0, r0
 20082b4:	ffffffff 			; <UNDEFINED> instruction: 0xffffffff
 20082b8:	ffffffff 			; <UNDEFINED> instruction: 0xffffffff
 20082bc:	00000000 	andeq	r0, r0, r0
 20082c0:	80000000 	andhi	r0, r0, r0
	...
 20082d0:	000001c8 	andeq	r0, r0, r8, asr #3
 20082d4:	00000006 	andeq	r0, r0, r6
	...
 20082e0:	ffffffff 			; <UNDEFINED> instruction: 0xffffffff
 20082e4:	ffffffff 			; <UNDEFINED> instruction: 0xffffffff
 20082e8:	000001c8 	andeq	r0, r0, r8, asr #3
 20082ec:	00000006 	andeq	r0, r0, r6
 20082f0:	00000001 	andeq	r0, r0, r1
 20082f4:	fffffe38 			; <UNDEFINED> instruction: 0xfffffe38
 20082f8:	fffffff8 			; <UNDEFINED> instruction: 0xfffffff8
	...
 2008304:	00000001 	andeq	r0, r0, r1
 2008308:	00000000 	andeq	r0, r0, r0
 200830c:	fffffe38 			; <UNDEFINED> instruction: 0xfffffe38
 2008310:	fffffff8 			; <UNDEFINED> instruction: 0xfffffff8
 2008314:	00000001 	andeq	r0, r0, r1
	...
 2008328:	ffffffff 			; <UNDEFINED> instruction: 0xffffffff
 200832c:	ffffffff 			; <UNDEFINED> instruction: 0xffffffff
	...
 2008338:	00000001 	andeq	r0, r0, r1
 200833c:	020086e4 	andeq	r8, r0, #228, 12	; 0xe400000
 2008340:	020086ec 	andeq	r8, r0, #236, 12	; 0xec00000
 2008344:	020086f4 	andeq	r8, r0, #244, 12	; 0xf400000
 2008348:	020086fc 	andeq	r8, r0, #252, 12	; 0xfc00000
 200834c:	02008704 	andeq	r8, r0, #4, 14	; 0x100000
 2008350:	0200870c 	andeq	r8, r0, #12, 14	; 0x300000
 2008354:	02008714 	andeq	r8, r0, #20, 14	; 0x500000
 2008358:	0200871c 	andeq	r8, r0, #28, 14	; 0x700000
 200835c:	02008724 	andeq	r8, r0, #36, 14	; 0x900000
 2008360:	0200872c 	andeq	r8, r0, #44, 14	; 0xb00000
 2008364:	02008734 	andeq	r8, r0, #52, 14	; 0xd00000
 2008368:	0200873c 	andeq	r8, r0, #60, 14	; 0xf00000
 200836c:	02008744 	andeq	r8, r0, #68, 14	; 0x1100000
 2008370:	0200874c 	andeq	r8, r0, #76, 14	; 0x1300000
 2008374:	02008754 	andeq	r8, r0, #84, 14	; 0x1500000
 2008378:	0200875c 	andeq	r8, r0, #92, 14	; 0x1700000
 200837c:	02008764 	andeq	r8, r0, #100, 14	; 0x1900000
 2008380:	0200876c 	andeq	r8, r0, #108, 14	; 0x1b00000
	...
 2008390:	00000001 	andeq	r0, r0, r1
 2008394:	00000000 	andeq	r0, r0, r0
 2008398:	00000001 	andeq	r0, r0, r1
 200839c:	00000003 	andeq	r0, r0, r3
 20083a0:	00000000 	andeq	r0, r0, r0
 20083a4:	00000001 	andeq	r0, r0, r1
 20083a8:	00000004 	andeq	r0, r0, r4
 20083ac:	00000000 	andeq	r0, r0, r0
 20083b0:	00000002 	andeq	r0, r0, r2
 20083b4:	00000005 	andeq	r0, r0, r5
 20083b8:	00000000 	andeq	r0, r0, r0
 20083bc:	00000002 	andeq	r0, r0, r2
 20083c0:	0000008f 	andeq	r0, r0, r15, lsl #1
 20083c4:	00000012 	andeq	r0, r0, r2, lsl r0
 20083c8:	0000000b 	andeq	r0, r0, r11
 20083cc:	00000090 	muleq	r0, r0, r0
 20083d0:	ffffffff 			; <UNDEFINED> instruction: 0xffffffff
 20083d4:	0000000c 	andeq	r0, r0, r12
 20083d8:	00000091 	muleq	r0, r1, r0
 20083dc:	000001bc 			; <UNDEFINED> instruction: 0x000001bc
 20083e0:	0000000c 	andeq	r0, r0, r12
 20083e4:	40000000 	andmi	r0, r0, r0
 20083e8:	ffffffdf 			; <UNDEFINED> instruction: 0xffffffdf
 20083ec:	00008000 	andeq	r8, r0, r0
 20083f0:	fffe0000 			; <UNDEFINED> instruction: 0xfffe0000
 20083f4:	0000022b 	andeq	r0, r0, r11, lsr #4
 20083f8:	0000fffe 	strdeq	r15, [r0], -r14
 20083fc:	fffe0001 			; <UNDEFINED> instruction: 0xfffe0001
 2008400:	0000022b 	andeq	r0, r0, r11, lsr #4
 2008404:	0000ffff 	strdeq	r15, [r0], -r15	; <UNPREDICTABLE>
 2008408:	fffe0002 			; <UNDEFINED> instruction: 0xfffe0002
 200840c:	0000022b 	andeq	r0, r0, r11, lsr #4
 2008410:	0000ffff 	strdeq	r15, [r0], -r15	; <UNPREDICTABLE>
 2008414:	ffffffff 			; <UNDEFINED> instruction: 0xffffffff
 2008418:	0000022b 	andeq	r0, r0, r11, lsr #4
 200841c:	0000ffff 	strdeq	r15, [r0], -r15	; <UNPREDICTABLE>
	...
 200842c:	00000001 	andeq	r0, r0, r1
 2008430:	00000000 	andeq	r0, r0, r0
 2008434:	00000001 	andeq	r0, r0, r1
 2008438:	00000003 	andeq	r0, r0, r3
 200843c:	00000000 	andeq	r0, r0, r0
 2008440:	00000001 	andeq	r0, r0, r1
 2008444:	00000004 	andeq	r0, r0, r4
 2008448:	00000000 	andeq	r0, r0, r0
 200844c:	00000002 	andeq	r0, r0, r2
 2008450:	00000005 	andeq	r0, r0, r5
 2008454:	00000000 	andeq	r0, r0, r0
 2008458:	00000002 	andeq	r0, r0, r2
 200845c:	0000008f 	andeq	r0, r0, r15, lsl #1
 2008460:	00000000 	andeq	r0, r0, r0
 2008464:	0000000b 	andeq	r0, r0, r11
 2008468:	00000090 	muleq	r0, r0, r0
 200846c:	00000000 	andeq	r0, r0, r0
 2008470:	0000000c 	andeq	r0, r0, r12
 2008474:	00000091 	muleq	r0, r1, r0
 2008478:	00000000 	andeq	r0, r0, r0
 200847c:	0000000c 	andeq	r0, r0, r12
 2008480:	40000000 	andmi	r0, r0, r0
 2008484:	00000000 	andeq	r0, r0, r0
 2008488:	00008000 	andeq	r8, r0, r0
 200848c:	fffe0000 			; <UNDEFINED> instruction: 0xfffe0000
 2008490:	00000000 	andeq	r0, r0, r0
 2008494:	0000fffe 	strdeq	r15, [r0], -r14
 2008498:	fffe0001 			; <UNDEFINED> instruction: 0xfffe0001
 200849c:	00000000 	andeq	r0, r0, r0
 20084a0:	0000ffff 	strdeq	r15, [r0], -r15	; <UNPREDICTABLE>
 20084a4:	fffe0002 			; <UNDEFINED> instruction: 0xfffe0002
 20084a8:	00000000 	andeq	r0, r0, r0
 20084ac:	0000ffff 	strdeq	r15, [r0], -r15	; <UNPREDICTABLE>
 20084b0:	ffffffff 			; <UNDEFINED> instruction: 0xffffffff
 20084b4:	00000000 	andeq	r0, r0, r0
 20084b8:	0000ffff 	strdeq	r15, [r0], -r15	; <UNPREDICTABLE>
 20084bc:	00000000 	andeq	r0, r0, r0
 20084c0:	00000001 	andeq	r0, r0, r1
 20084c4:	00010000 	andeq	r0, r1, r0
 20084c8:	00000001 	andeq	r0, r0, r1
 20084cc:	00000001 	andeq	r0, r0, r1
 20084d0:	00010000 	andeq	r0, r1, r0
 20084d4:	00000000 	andeq	r0, r0, r0
 20084d8:	00000002 	andeq	r0, r0, r2
 20084dc:	00016a09 	andeq	r6, r1, r9, lsl #20
 20084e0:	00000457 	andeq	r0, r0, r7, asr r4
 20084e4:	00000002 	andeq	r0, r0, r2
 20084e8:	00016a09 	andeq	r6, r1, r9, lsl #20
 20084ec:	000f423f 	andeq	r4, r15, r15, lsr r2	; <UNPREDICTABLE>
 20084f0:	00000002 	andeq	r0, r0, r2
 20084f4:	00016a0f 	andeq	r6, r1, r15, lsl #20
 20084f8:	00000000 	andeq	r0, r0, r0
 20084fc:	10000000 	andne	r0, r0, r0
 2008500:	40000000 	andmi	r0, r0, r0
 2008504:	00000001 	andeq	r0, r0, r1
 2008508:	10000000 	andne	r0, r0, r0
 200850c:	40000000 	andmi	r0, r0, r0
 2008510:	ffffffff 			; <UNDEFINED> instruction: 0xffffffff
 2008514:	0fffffff 	svceq	0x00ffffff
 2008518:	3fffffff 	svccc	0x00ffffff
 200851c:	ffffffff 			; <UNDEFINED> instruction: 0xffffffff
 2008520:	ffffffff 			; <UNDEFINED> instruction: 0xffffffff
 2008524:	ffffffff 			; <UNDEFINED> instruction: 0xffffffff
 2008528:	50495720 	subpl	r5, r9, r0, lsr #14
 200852c:	4f432020 	svcmi	0x00432020
 2008530:	4341544e 	movtmi	r5, #5198	; 0x144e
 2008534:	52203a54 	eorpl	r3, r0, #84, 20	; 0x54000
 2008538:	504b434f 	subpl	r4, r11, r15, asr #6
 200853c:	53494c4f 	movtpl	r4, #40015	; 0x9c4f
 2008540:	00000048 	andeq	r0, r0, r8, asr #32
 2008544:	59414d20 	stmdbpl	r1, {r5, r8, r10, r11, r14}^
 2008548:	49545320 	ldmdbmi	r4, {r5, r8, r9, r12, r14}^
 200854c:	43204c4c 			; <UNDEFINED> instruction: 0x43204c4c
 2008550:	41544e4f 	cmpmi	r4, r15, asr #28
 2008554:	42204e49 	eormi	r4, r0, #1168	; 0x490
 2008558:	20534755 	subscs	r4, r3, r5, asr r7
 200855c:	00000020 	andeq	r0, r0, r0, lsr #32
 2008560:	00004b4f 	andeq	r4, r0, r15, asr #22
 2008564:	374d5241 	strbcc	r5, [r13, -r1, asr #4]
 2008568:	00000000 	andeq	r0, r0, r0
 200856c:	54494e49 	strbpl	r4, [r9], #-3657	; 0xfffff1b7
 2008570:	204c4149 	subcs	r4, r12, r9, asr #2
 2008574:	54415453 	strbpl	r5, [r1], #-1107	; 0xfffffbad
 2008578:	00000045 	andeq	r0, r0, r5, asr #32
 200857c:	4f4d454d 	svcmi	0x004d454d
 2008580:	43205952 			; <UNDEFINED> instruction: 0x43205952
 2008584:	52544e4f 	subspl	r4, r4, #1264	; 0x4f0
 2008588:	00004c4f 	andeq	r4, r0, r15, asr #24
 200858c:	4d205344 	stcmi	3, cr5, [r0, #-272]!	; 0xfffffef0
 2008590:	00485441 	subeq	r5, r8, r1, asr #8
 2008594:	20435049 	subcs	r5, r3, r9, asr #32
 2008598:	54534554 	ldrbpl	r4, [r3], #-1364	; 0xfffffaac
 200859c:	00000053 	andeq	r0, r0, r3, asr r0
 20085a0:	764d5241 	strbvc	r5, [r13], -r1, asr #4
 20085a4:	00000035 	andeq	r0, r0, r5, lsr r0
 20085a8:	4b434f52 	blmi	30dc2f8 <__bss_end__+0x10c3b68>
 20085ac:	53455257 	movtpl	r5, #21079	; 0x5257
 20085b0:	52454c54 	subpl	r4, r5, #84, 24	; 0x5400
 20085b4:	2e307620 	cfmsuba32cs	mvax1, mvax7, mvfx0, mvfx0
 20085b8:	00000031 	andeq	r0, r0, r1, lsr r0
 20085bc:	2f435049 	svccs	0x00435049
 20085c0:	2f515249 	svccs	0x00515249
 20085c4:	52535043 	subspl	r5, r3, #67	; 0x43
 20085c8:	00000000 	andeq	r0, r0, r0
 20085cc:	35315043 	ldrcc	r5, [r1, #-67]!	; 0xffffffbd
 20085d0:	00000000 	andeq	r0, r0, r0
 20085d4:	4d415257 	sfmmi	f5, 2, [r1, #-348]	; 0xfffffea4
 20085d8:	544e4320 	strbpl	r4, [r14], #-800	; 0xfffffce0
 20085dc:	00000000 	andeq	r0, r0, r0
 20085e0:	4d415256 	sfmmi	f5, 2, [r1, #-344]	; 0xfffffea8
 20085e4:	544e4320 	strbpl	r4, [r14], #-800	; 0xfffffce0
 20085e8:	00000000 	andeq	r0, r0, r0
 20085ec:	004d4354 	subeq	r4, r13, r4, asr r3
 20085f0:	54525153 	ldrbpl	r5, [r2], #-339	; 0xfffffead
 20085f4:	00323320 	eorseq	r3, r2, r0, lsr #6
 20085f8:	54525153 	ldrbpl	r5, [r2], #-339	; 0xfffffead
 20085fc:	00343620 	eorseq	r3, r4, r0, lsr #12
 2008600:	20564944 	subscs	r4, r6, r4, asr #18
 2008604:	332f3233 			; <UNDEFINED> instruction: 0x332f3233
 2008608:	00000032 	andeq	r0, r0, r2, lsr r0
 200860c:	20564944 	subscs	r4, r6, r4, asr #18
 2008610:	332f3436 			; <UNDEFINED> instruction: 0x332f3436
 2008614:	00000032 	andeq	r0, r0, r2, lsr r0
 2008618:	20564944 	subscs	r4, r6, r4, asr #18
 200861c:	362f3436 			; <UNDEFINED> instruction: 0x362f3436
 2008620:	00000034 	andeq	r0, r0, r4, lsr r0
 2008624:	53435049 	movtpl	r5, #12361	; 0x3049
 2008628:	00434e59 	subeq	r4, r3, r9, asr r14
 200862c:	46435049 	strbmi	r5, [r3], -r9, asr #32
 2008630:	004f4649 	subeq	r4, r15, r9, asr #12
 2008634:	46435049 	strbmi	r5, [r3], -r9, asr #32
 2008638:	204f4649 	subcs	r4, r15, r9, asr #12
 200863c:	00515249 	subseq	r5, r1, r9, asr #4
 2008640:	005a4c43 	subseq	r4, r10, r3, asr #24
 2008644:	44444151 	strbmi	r4, [r4], #-337	; 0xfffffeaf
 2008648:	5351202c 	cmppl	r1, #44	; 0x2c
 200864c:	00004255 	andeq	r4, r0, r5, asr r2
 2008650:	44414451 	strbmi	r4, [r1], #-1105	; 0xfffffbaf
 2008654:	51202c44 			; <UNDEFINED> instruction: 0x51202c44
 2008658:	42555344 	subsmi	r5, r5, #68, 6	; 0x10000001
 200865c:	00000000 	andeq	r0, r0, r0
 2008660:	4c554d53 	mrrcmi	13, 5, r4, r5, cr3
 2008664:	00007978 	andeq	r7, r0, r8, ror r9
 2008668:	414c4d53 	cmpmi	r12, r3, asr r13
 200866c:	00007978 	andeq	r7, r0, r8, ror r9
 2008670:	4c554d53 	mrrcmi	13, 5, r4, r5, cr3
 2008674:	00007957 	andeq	r7, r0, r7, asr r9
 2008678:	414c4d53 	cmpmi	r12, r3, asr r13
 200867c:	00007957 	andeq	r7, r0, r7, asr r9
 2008680:	414c4d53 	cmpmi	r12, r3, asr r13
 2008684:	0079784c 	rsbseq	r7, r9, r12, asr #16
 2008688:	00584c42 	subseq	r4, r8, r2, asr #24
 200868c:	2052444c 	subscs	r4, r2, r12, asr #8
 2008690:	2c353172 	ldfcss	f3, [r5], #-456	; 0xfffffe38
 2008694:	504f5020 	subpl	r5, r15, r0, lsr #32
 2008698:	31727b20 	cmncc	r2, r0, lsr #22
 200869c:	202c7d35 	eorcs	r7, r12, r5, lsr r13
 20086a0:	204d444c 	subcs	r4, r13, r12, asr #8
 20086a4:	3531727b 	ldrcc	r7, [r1, #-635]!	; 0xfffffd85
 20086a8:	0000007d 	andeq	r0, r0, r13, ror r0
 20086ac:	00435049 	subeq	r5, r3, r9, asr #32
 20086b0:	4f4d454d 	svcmi	0x004d454d
 20086b4:	00005952 	andeq	r5, r0, r2, asr r9
 20086b8:	394d5241 	stmdbcc	r13, {r0, r6, r9, r12, r14}^
 20086bc:	00000000 	andeq	r0, r0, r0
 20086c0:	46435049 	strbmi	r5, [r3], -r9, asr #32
 20086c4:	434f4649 	movtmi	r4, #63049	; 0xf649
 20086c8:	0000544e 	andeq	r5, r0, r14, asr #8
 20086cc:	4f464946 	svcmi	0x00464946
 20086d0:	4e454c20 	cdpmi	12, 4, cr4, cr5, cr0, {1}
 20086d4:	00000000 	andeq	r0, r0, r0
 20086d8:	00454d49 	subeq	r4, r5, r9, asr #26
 20086dc:	00004549 	andeq	r4, r0, r9, asr #10
 20086e0:	00004649 	andeq	r4, r0, r9, asr #12
 20086e4:	432c3143 			; <UNDEFINED> instruction: 0x432c3143
 20086e8:	00302c30 	eorseq	r2, r0, r0, lsr r12
 20086ec:	432c3243 			; <UNDEFINED> instruction: 0x432c3243
 20086f0:	00302c30 	eorseq	r2, r0, r0, lsr r12
 20086f4:	432c3243 			; <UNDEFINED> instruction: 0x432c3243
 20086f8:	00312c30 	eorseq	r2, r1, r0, lsr r12
 20086fc:	432c3343 			; <UNDEFINED> instruction: 0x432c3343
 2008700:	00302c30 	eorseq	r2, r0, r0, lsr r12
 2008704:	432c3543 			; <UNDEFINED> instruction: 0x432c3543
 2008708:	00302c30 	eorseq	r2, r0, r0, lsr r12
 200870c:	432c3543 			; <UNDEFINED> instruction: 0x432c3543
 2008710:	00312c30 	eorseq	r2, r1, r0, lsr r12
 2008714:	432c3543 			; <UNDEFINED> instruction: 0x432c3543
 2008718:	00322c30 	eorseq	r2, r2, r0, lsr r12
 200871c:	432c3543 			; <UNDEFINED> instruction: 0x432c3543
 2008720:	00332c30 	eorseq	r2, r3, r0, lsr r12
 2008724:	432c3643 			; <UNDEFINED> instruction: 0x432c3643
 2008728:	00302c30 	eorseq	r2, r0, r0, lsr r12
 200872c:	432c3643 			; <UNDEFINED> instruction: 0x432c3643
 2008730:	00302c31 	eorseq	r2, r0, r1, lsr r12
 2008734:	432c3643 			; <UNDEFINED> instruction: 0x432c3643
 2008738:	00302c32 	eorseq	r2, r0, r2, lsr r12
 200873c:	432c3643 			; <UNDEFINED> instruction: 0x432c3643
 2008740:	00302c33 	eorseq	r2, r0, r3, lsr r12
 2008744:	432c3643 			; <UNDEFINED> instruction: 0x432c3643
 2008748:	00302c34 	eorseq	r2, r0, r4, lsr r12
 200874c:	432c3643 			; <UNDEFINED> instruction: 0x432c3643
 2008750:	00302c35 	eorseq	r2, r0, r5, lsr r12
 2008754:	432c3643 			; <UNDEFINED> instruction: 0x432c3643
 2008758:	00302c36 	eorseq	r2, r0, r6, lsr r12
 200875c:	432c3643 			; <UNDEFINED> instruction: 0x432c3643
 2008760:	00302c37 	eorseq	r2, r0, r7, lsr r12
 2008764:	432c3943 			; <UNDEFINED> instruction: 0x432c3943
 2008768:	00302c31 	eorseq	r2, r0, r1, lsr r12
 200876c:	432c3943 			; <UNDEFINED> instruction: 0x432c3943
 2008770:	00312c31 	eorseq	r2, r1, r1, lsr r12

Disassembly of section .bss:

02018774 <val_IPCSYNC>:
	...

02018776 <val_IPCFIFOCNT>:
	...

02018778 <FIFO_length>:
 2018778:	00000000 	andeq	r0, r0, r0

0201877c <val_IME>:
 201877c:	00000000 	andeq	r0, r0, r0

02018780 <val_IE>:
 2018780:	00000000 	andeq	r0, r0, r0

02018784 <val_IF>:
	...

Disassembly of section .comment:

00000000 <_stack-0x80000>:
   0:	3a434347 	bcc	10d0d24 <_stack+0x1050d24>
   4:	65642820 	strbvs	r2, [r4, #-2080]!	; 0xfffff7e0
   8:	74696b76 	strbtvc	r6, [r9], #-2934	; 0xfffff48a
   c:	204d5241 	subcs	r5, r13, r1, asr #4
  10:	656c6572 	strbvs	r6, [r12, #-1394]!	; 0xfffffa8e
  14:	20657361 	rsbcs	r7, r5, r1, ror #6
  18:	20293235 	eorcs	r3, r9, r5, lsr r2
  1c:	2e332e38 	mrccs	14, 1, r2, cr3, cr8, {1}
  20:	Address 0x0000000000000020 is out of bounds.


Disassembly of section .ARM.attributes:

00000000 <.ARM.attributes>:
   0:	00002641 	andeq	r2, r0, r1, asr #12
   4:	61656100 	cmnvs	r5, r0, lsl #2
   8:	01006962 	tsteq	r0, r2, ror #18
   c:	0000001c 	andeq	r0, r0, r12, lsl r0
  10:	45543505 	ldrbmi	r3, [r4, #-1285]	; 0xfffffafb
  14:	08040600 	stmdaeq	r4, {r9, r10}
  18:	12010901 	andne	r0, r1, #16384	; 0x4000
  1c:	15011404 	strne	r1, [r1, #-1028]	; 0xfffffbfc
  20:	18031701 	stmdane	r3, {r0, r8, r9, r10, r12}
  24:	Address 0x0000000000000024 is out of bounds.

