
arm9.o:     file format elf32-littlearm


Disassembly of section .text:

02000100 <_start>:
 2000100:	ea000b09 	b	2002d2c <arm9_main>

02000104 <_Z17read_from_IPCFIFOi>:
 2000104:	e92d4070 	push	{r4, r5, r6, r14}
 2000108:	e59f5034 	ldr	r5, [pc, #52]	; 2000144 <_Z17read_from_IPCFIFOi+0x40>
 200010c:	e1a06000 	mov	r6, r0
 2000110:	e3a04901 	mov	r4, #16384	; 0x4000
 2000114:	ea000001 	b	2000120 <_Z17read_from_IPCFIFOi+0x1c>
 2000118:	e2544001 	subs	r4, r4, #1
 200011c:	0a000005 	beq	2000138 <_Z17read_from_IPCFIFOi+0x34>
 2000120:	e1d538b4 	ldrh	r3, [r5, #132]	; 0x84
 2000124:	e3130c01 	tst	r3, #256	; 0x100
 2000128:	1afffffa 	bne	2000118 <_Z17read_from_IPCFIFOi+0x14>
 200012c:	e3a03641 	mov	r3, #68157440	; 0x4100000
 2000130:	e5930000 	ldr	r0, [r3]
 2000134:	e8bd8070 	pop	{r4, r5, r6, r15}
 2000138:	e1a00006 	mov	r0, r6
 200013c:	eb001341 	bl	2004e48 <timeout_test>
 2000140:	eafffff6 	b	2000120 <_Z17read_from_IPCFIFOi+0x1c>
 2000144:	04000100 	streq	r0, [r0], #-256	; 0xffffff00

02000148 <init_iostate>:
 2000148:	e92d4010 	push	{r4, r14}
 200014c:	e59f003c 	ldr	r0, [pc, #60]	; 2000190 <init_iostate+0x48>
 2000150:	eb0002d3 	bl	2000ca4 <cp15_set_controlreg>
 2000154:	e59f2038 	ldr	r2, [pc, #56]	; 2000194 <init_iostate+0x4c>
 2000158:	e3a03802 	mov	r3, #131072	; 0x20000
 200015c:	e3a04301 	mov	r4, #67108864	; 0x4000000
 2000160:	e3e0107f 	mvn	r1, #127	; 0x7f
 2000164:	e59f002c 	ldr	r0, [pc, #44]	; 2000198 <init_iostate+0x50>
 2000168:	e5840304 	str	r0, [r4, #772]	; 0x304
 200016c:	e5c21040 	strb	r1, [r2, #64]	; 0x40
 2000170:	e59f0024 	ldr	r0, [pc, #36]	; 200019c <init_iostate+0x54>
 2000174:	e5843000 	str	r3, [r4]
 2000178:	eb0002cd 	bl	2000cb4 <cp15_set_DTCMcontrol>
 200017c:	e3a0000c 	mov	r0, #12
 2000180:	eb0002cf 	bl	2000cc4 <cp15_set_ITCMcontrol>
 2000184:	e3a03000 	mov	r3, #0
 2000188:	e5843208 	str	r3, [r4, #520]	; 0x208
 200018c:	e8bd8010 	pop	{r4, r15}
 2000190:	00052078 	andeq	r2, r5, r8, ror r0
 2000194:	04000200 	streq	r0, [r0], #-512	; 0xfffffe00
 2000198:	00008003 	andeq	r8, r0, r3
 200019c:	0080000a 	addeq	r0, r0, r10

020001a0 <_Z11wait_vblankv>:
 20001a0:	e3a02301 	mov	r2, #67108864	; 0x4000000
 20001a4:	e1d230b4 	ldrh	r3, [r2, #4]
 20001a8:	e3130001 	tst	r3, #1
 20001ac:	1afffffc 	bne	20001a4 <_Z11wait_vblankv+0x4>
 20001b0:	e3a02301 	mov	r2, #67108864	; 0x4000000
 20001b4:	e1d230b4 	ldrh	r3, [r2, #4]
 20001b8:	e3130001 	tst	r3, #1
 20001bc:	0afffffc 	beq	20001b4 <_Z11wait_vblankv+0x14>
 20001c0:	e12fff1e 	bx	r14

020001c4 <l_resetIPCSYNC>:
 20001c4:	e59f3008 	ldr	r3, [pc, #8]	; 20001d4 <l_resetIPCSYNC+0x10>
 20001c8:	e3a02000 	mov	r2, #0
 20001cc:	e1c328b0 	strh	r2, [r3, #128]	; 0x80
 20001d0:	e12fff1e 	bx	r14
 20001d4:	04000100 	streq	r0, [r0], #-256	; 0xffffff00

020001d8 <_Z12clear_screenv>:
 20001d8:	e59f1014 	ldr	r1, [pc, #20]	; 20001f4 <_Z12clear_screenv+0x1c>
 20001dc:	e59f2014 	ldr	r2, [pc, #20]	; 20001f8 <_Z12clear_screenv+0x20>
 20001e0:	e3a0351a 	mov	r3, #109051904	; 0x6800000
 20001e4:	e4831004 	str	r1, [r3], #4
 20001e8:	e1530002 	cmp	r3, r2
 20001ec:	1afffffc 	bne	20001e4 <_Z12clear_screenv+0xc>
 20001f0:	e12fff1e 	bx	r14
 20001f4:	56b556b5 			; <UNDEFINED> instruction: 0x56b556b5
 20001f8:	06818000 	streq	r8, [r1], r0

020001fc <_Z14draw_cleartileiit>:
 20001fc:	e1a03180 	lsl	r3, r0, #3
 2000200:	e0833581 	add	r3, r3, r1, lsl #11
 2000204:	e59f0030 	ldr	r0, [pc, #48]	; 200023c <_Z14draw_cleartileiit+0x40>
 2000208:	e283150d 	add	r1, r3, #54525952	; 0x3400000
 200020c:	e2811008 	add	r1, r1, #8
 2000210:	e0830000 	add	r0, r3, r0
 2000214:	e1a01081 	lsl	r1, r1, #1
 2000218:	e1a00080 	lsl	r0, r0, #1
 200021c:	e2413010 	sub	r3, r1, #16
 2000220:	e0c320b2 	strh	r2, [r3], #2
 2000224:	e1510003 	cmp	r1, r3
 2000228:	1afffffc 	bne	2000220 <_Z14draw_cleartileiit+0x24>
 200022c:	e2811c02 	add	r1, r1, #512	; 0x200
 2000230:	e1510000 	cmp	r1, r0
 2000234:	1afffff8 	bne	200021c <_Z14draw_cleartileiit+0x20>
 2000238:	e12fff1e 	bx	r14
 200023c:	03400808 	movteq	r0, #2056	; 0x808

02000240 <_Z9draw_tileiii>:
 2000240:	e92d4010 	push	{r4, r14}
 2000244:	e1a01581 	lsl	r1, r1, #11
 2000248:	e59f404c 	ldr	r4, [pc, #76]	; 200029c <_Z9draw_tileiii+0x5c>
 200024c:	e0811180 	add	r1, r1, r0, lsl #3
 2000250:	e0844302 	add	r4, r4, r2, lsl #6
 2000254:	e281150d 	add	r1, r1, #54525952	; 0x3400000
 2000258:	e59fc040 	ldr	r12, [pc, #64]	; 20002a0 <_Z9draw_tileiii+0x60>
 200025c:	e2840008 	add	r0, r4, #8
 2000260:	e1a0e081 	lsl	r14, r1, #1
 2000264:	e2844048 	add	r4, r4, #72	; 0x48
 2000268:	e2402008 	sub	r2, r0, #8
 200026c:	e1a0100e 	mov	r1, r14
 2000270:	e4d23001 	ldrb	r3, [r2], #1
 2000274:	e1a03083 	lsl	r3, r3, #1
 2000278:	e19c30b3 	ldrh	r3, [r12, r3]
 200027c:	e1500002 	cmp	r0, r2
 2000280:	e0c130b2 	strh	r3, [r1], #2
 2000284:	1afffff9 	bne	2000270 <_Z9draw_tileiii+0x30>
 2000288:	e2800008 	add	r0, r0, #8
 200028c:	e1500004 	cmp	r0, r4
 2000290:	e28eec02 	add	r14, r14, #512	; 0x200
 2000294:	1afffff3 	bne	2000268 <_Z9draw_tileiii+0x28>
 2000298:	e8bd8010 	pop	{r4, r15}
 200029c:	02000ccc 	andeq	r0, r0, #204, 24	; 0xcc00
 20002a0:	02007f8c 	andeq	r7, r0, #140, 30	; 0x230

020002a4 <_Z11draw_stringiiPKc>:
 20002a4:	e92d4070 	push	{r4, r5, r6, r14}
 20002a8:	e1a04002 	mov	r4, r2
 20002ac:	e5d22000 	ldrb	r2, [r2]
 20002b0:	e3520000 	cmp	r2, #0
 20002b4:	08bd8070 	popeq	{r4, r5, r6, r15}
 20002b8:	e1a06001 	mov	r6, r1
 20002bc:	e0405004 	sub	r5, r0, r4
 20002c0:	e0840005 	add	r0, r4, r5
 20002c4:	e1a01006 	mov	r1, r6
 20002c8:	ebffffdc 	bl	2000240 <_Z9draw_tileiii>
 20002cc:	e5f42001 	ldrb	r2, [r4, #1]!
 20002d0:	e3520000 	cmp	r2, #0
 20002d4:	1afffff9 	bne	20002c0 <_Z11draw_stringiiPKc+0x1c>
 20002d8:	e8bd8070 	pop	{r4, r5, r6, r15}

020002dc <cpp_menu>:
 20002dc:	e59f35e8 	ldr	r3, [pc, #1512]	; 20008cc <cpp_menu+0x5f0>
 20002e0:	e92d4ff0 	push	{r4, r5, r6, r7, r8, r9, r10, r11, r14}
 20002e4:	e5930000 	ldr	r0, [r3]
 20002e8:	e24dd04c 	sub	r13, r13, #76	; 0x4c
 20002ec:	eb000195 	bl	2000948 <_ZNK4Menu4drawEv>
 20002f0:	e3a02040 	mov	r2, #64	; 0x40
 20002f4:	e3a01000 	mov	r1, #0
 20002f8:	e28d0008 	add	r0, r13, #8
 20002fc:	eb001ed2 	bl	2007e4c <memset>
 2000300:	e3a09000 	mov	r9, #0
 2000304:	e59f75c4 	ldr	r7, [pc, #1476]	; 20008d0 <cpp_menu+0x5f4>
 2000308:	e59f65c4 	ldr	r6, [pc, #1476]	; 20008d4 <cpp_menu+0x5f8>
 200030c:	e3a08001 	mov	r8, #1
 2000310:	e1a04009 	mov	r4, r9
 2000314:	ebffffa1 	bl	20001a0 <_Z11wait_vblankv>
 2000318:	e1d633b0 	ldrh	r3, [r6, #48]	; 0x30
 200031c:	e3a02000 	mov	r2, #0
 2000320:	e1834004 	orr	r4, r3, r4
 2000324:	e1e0a004 	mvn	r10, r4
 2000328:	e1e03003 	mvn	r3, r3
 200032c:	e1a04803 	lsl	r4, r3, #16
 2000330:	e1a0a80a 	lsl	r10, r10, #16
 2000334:	e1a04824 	lsr	r4, r4, #16
 2000338:	e1a0a82a 	lsr	r10, r10, #16
 200033c:	e28d1008 	add	r1, r13, #8
 2000340:	e1a05002 	mov	r5, r2
 2000344:	e3a0c001 	mov	r12, #1
 2000348:	e1a03254 	asr	r3, r4, r2
 200034c:	e2133001 	ands	r3, r3, #1
 2000350:	0a00000a 	beq	2000380 <cpp_menu+0xa4>
 2000354:	e5913000 	ldr	r3, [r1]
 2000358:	e185021c 	orr	r0, r5, r12, lsl r2
 200035c:	e3530000 	cmp	r3, #0
 2000360:	e2833001 	add	r3, r3, #1
 2000364:	0a000003 	beq	2000378 <cpp_menu+0x9c>
 2000368:	e353001e 	cmp	r3, #30
 200036c:	da000003 	ble	2000380 <cpp_menu+0xa4>
 2000370:	e3130007 	tst	r3, #7
 2000374:	1a000001 	bne	2000380 <cpp_menu+0xa4>
 2000378:	e1a05800 	lsl	r5, r0, #16
 200037c:	e1a05825 	lsr	r5, r5, #16
 2000380:	e2822001 	add	r2, r2, #1
 2000384:	e3520010 	cmp	r2, #16
 2000388:	e4813004 	str	r3, [r1], #4
 200038c:	1affffed 	bne	2000348 <cpp_menu+0x6c>
 2000390:	e3150040 	tst	r5, #64	; 0x40
 2000394:	1a000062 	bne	2000524 <cpp_menu+0x248>
 2000398:	e3150080 	tst	r5, #128	; 0x80
 200039c:	1a000079 	bne	2000588 <cpp_menu+0x2ac>
 20003a0:	e31a0001 	tst	r10, #1
 20003a4:	1a000029 	bne	2000450 <cpp_menu+0x174>
 20003a8:	e31a0002 	tst	r10, #2
 20003ac:	0a000004 	beq	20003c4 <cpp_menu+0xe8>
 20003b0:	e59f1514 	ldr	r1, [pc, #1300]	; 20008cc <cpp_menu+0x5f0>
 20003b4:	e5910000 	ldr	r0, [r1]
 20003b8:	e590a008 	ldr	r10, [r0, #8]
 20003bc:	e35a0000 	cmp	r10, #0
 20003c0:	1a00008e 	bne	2000600 <cpp_menu+0x324>
 20003c4:	e5971000 	ldr	r1, [r7]
 20003c8:	e3a02016 	mov	r2, #22
 20003cc:	e2811002 	add	r1, r1, #2
 20003d0:	e3a00001 	mov	r0, #1
 20003d4:	ebffff99 	bl	2000240 <_Z9draw_tileiii>
 20003d8:	e1d638b0 	ldrh	r3, [r6, #128]	; 0x80
 20003dc:	e203300f 	and	r3, r3, #15
 20003e0:	e1530008 	cmp	r3, r8
 20003e4:	0a00000e 	beq	2000424 <cpp_menu+0x148>
 20003e8:	e1a03c08 	lsl	r3, r8, #24
 20003ec:	e1a03823 	lsr	r3, r3, #16
 20003f0:	e59f24e0 	ldr	r2, [pc, #1248]	; 20008d8 <cpp_menu+0x5fc>
 20003f4:	e2899001 	add	r9, r9, #1
 20003f8:	e3a01000 	mov	r1, #0
 20003fc:	e3a0001b 	mov	r0, #27
 2000400:	e1c638b0 	strh	r3, [r6, #128]	; 0x80
 2000404:	ebffffa6 	bl	20002a4 <_Z11draw_stringiiPKc>
 2000408:	e3590006 	cmp	r9, #6
 200040c:	b3a02e3e 	movlt	r2, #992	; 0x3e0
 2000410:	a3a0201f 	movge	r2, #31
 2000414:	e3a01000 	mov	r1, #0
 2000418:	e3a0001f 	mov	r0, #31
 200041c:	ebffff76 	bl	20001fc <_Z14draw_cleartileiit>
 2000420:	eaffffbb 	b	2000314 <cpp_menu+0x38>
 2000424:	e2688003 	rsb	r8, r8, #3
 2000428:	e1a03c08 	lsl	r3, r8, #24
 200042c:	e1a03823 	lsr	r3, r3, #16
 2000430:	e59f24a0 	ldr	r2, [pc, #1184]	; 20008d8 <cpp_menu+0x5fc>
 2000434:	e3a01000 	mov	r1, #0
 2000438:	e3a0001b 	mov	r0, #27
 200043c:	e1c638b0 	strh	r3, [r6, #128]	; 0x80
 2000440:	ebffff97 	bl	20002a4 <_Z11draw_stringiiPKc>
 2000444:	e3a09000 	mov	r9, #0
 2000448:	e3a02e3e 	mov	r2, #992	; 0x3e0
 200044c:	eafffff0 	b	2000414 <cpp_menu+0x138>
 2000450:	ebffff60 	bl	20001d8 <_Z12clear_screenv>
 2000454:	e59f3470 	ldr	r3, [pc, #1136]	; 20008cc <cpp_menu+0x5f0>
 2000458:	e5932000 	ldr	r2, [r3]
 200045c:	e5973000 	ldr	r3, [r7]
 2000460:	e5922000 	ldr	r2, [r2]
 2000464:	e0833083 	add	r3, r3, r3, lsl #1
 2000468:	e0823103 	add	r3, r2, r3, lsl #2
 200046c:	e5935008 	ldr	r5, [r3, #8]
 2000470:	e3550000 	cmp	r5, #0
 2000474:	0a0000cd 	beq	20007b0 <cpp_menu+0x4d4>
 2000478:	e3550001 	cmp	r5, #1
 200047c:	0a000098 	beq	20006e4 <cpp_menu+0x408>
 2000480:	e3550002 	cmp	r5, #2
 2000484:	1affffc7 	bne	20003a8 <cpp_menu+0xcc>
 2000488:	e5930004 	ldr	r0, [r3, #4]
 200048c:	eb001e25 	bl	2007d28 <call_fncptr>
 2000490:	e1d633b0 	ldrh	r3, [r6, #48]	; 0x30
 2000494:	e2135002 	ands	r5, r3, #2
 2000498:	1afffffc 	bne	2000490 <cpp_menu+0x1b4>
 200049c:	e59f3428 	ldr	r3, [pc, #1064]	; 20008cc <cpp_menu+0x5f0>
 20004a0:	e5933000 	ldr	r3, [r3]
 20004a4:	e58d3000 	str	r3, [r13]
 20004a8:	ebffff4a 	bl	20001d8 <_Z12clear_screenv>
 20004ac:	e59d3000 	ldr	r3, [r13]
 20004b0:	e1a01005 	mov	r1, r5
 20004b4:	e5932004 	ldr	r2, [r3, #4]
 20004b8:	e3a00003 	mov	r0, #3
 20004bc:	ebffff78 	bl	20002a4 <_Z11draw_stringiiPKc>
 20004c0:	e1a0300a 	mov	r3, r10
 20004c4:	e58d4004 	str	r4, [r13, #4]
 20004c8:	e59d4000 	ldr	r4, [r13]
 20004cc:	e1a0a008 	mov	r10, r8
 20004d0:	e1a0b003 	mov	r11, r3
 20004d4:	e1a08005 	mov	r8, r5
 20004d8:	e594c000 	ldr	r12, [r4]
 20004dc:	e1a0200c 	mov	r2, r12
 20004e0:	e492100c 	ldr	r1, [r2], #12
 20004e4:	e3510000 	cmp	r1, #0
 20004e8:	0a0000e0 	beq	2000870 <cpp_menu+0x594>
 20004ec:	e3a01000 	mov	r1, #0
 20004f0:	e492300c 	ldr	r3, [r2], #12
 20004f4:	e2811001 	add	r1, r1, #1
 20004f8:	e3530000 	cmp	r3, #0
 20004fc:	1afffffb 	bne	20004f0 <cpp_menu+0x214>
 2000500:	e1550001 	cmp	r5, r1
 2000504:	aa0000d9 	bge	2000870 <cpp_menu+0x594>
 2000508:	e79c2008 	ldr	r2, [r12, r8]
 200050c:	e2851002 	add	r1, r5, #2
 2000510:	e3a00002 	mov	r0, #2
 2000514:	e288800c 	add	r8, r8, #12
 2000518:	e2855001 	add	r5, r5, #1
 200051c:	ebffff60 	bl	20002a4 <_Z11draw_stringiiPKc>
 2000520:	eaffffec 	b	20004d8 <cpp_menu+0x1fc>
 2000524:	e5971000 	ldr	r1, [r7]
 2000528:	e59f23ac 	ldr	r2, [pc, #940]	; 20008dc <cpp_menu+0x600>
 200052c:	e2811002 	add	r1, r1, #2
 2000530:	e3a00001 	mov	r0, #1
 2000534:	ebffff30 	bl	20001fc <_Z14draw_cleartileiit>
 2000538:	e5973000 	ldr	r3, [r7]
 200053c:	e2433001 	sub	r3, r3, #1
 2000540:	e3530000 	cmp	r3, #0
 2000544:	e5873000 	str	r3, [r7]
 2000548:	aaffff92 	bge	2000398 <cpp_menu+0xbc>
 200054c:	e59f2378 	ldr	r2, [pc, #888]	; 20008cc <cpp_menu+0x5f0>
 2000550:	e5922000 	ldr	r2, [r2]
 2000554:	e5922000 	ldr	r2, [r2]
 2000558:	e492100c 	ldr	r1, [r2], #12
 200055c:	e3510000 	cmp	r1, #0
 2000560:	0a000005 	beq	200057c <cpp_menu+0x2a0>
 2000564:	e3a01000 	mov	r1, #0
 2000568:	e492000c 	ldr	r0, [r2], #12
 200056c:	e2811001 	add	r1, r1, #1
 2000570:	e3500000 	cmp	r0, #0
 2000574:	1afffffb 	bne	2000568 <cpp_menu+0x28c>
 2000578:	e0833001 	add	r3, r3, r1
 200057c:	e3150080 	tst	r5, #128	; 0x80
 2000580:	e5873000 	str	r3, [r7]
 2000584:	0affff85 	beq	20003a0 <cpp_menu+0xc4>
 2000588:	e5971000 	ldr	r1, [r7]
 200058c:	e59f2348 	ldr	r2, [pc, #840]	; 20008dc <cpp_menu+0x600>
 2000590:	e2811002 	add	r1, r1, #2
 2000594:	e3a00001 	mov	r0, #1
 2000598:	ebffff17 	bl	20001fc <_Z14draw_cleartileiit>
 200059c:	e59f3328 	ldr	r3, [pc, #808]	; 20008cc <cpp_menu+0x5f0>
 20005a0:	e5975000 	ldr	r5, [r7]
 20005a4:	e5933000 	ldr	r3, [r3]
 20005a8:	e285e001 	add	r14, r5, #1
 20005ac:	e593c000 	ldr	r12, [r3]
 20005b0:	e587e000 	str	r14, [r7]
 20005b4:	e49c200c 	ldr	r2, [r12], #12
 20005b8:	e3520000 	cmp	r2, #0
 20005bc:	0a0000bf 	beq	20008c0 <cpp_menu+0x5e4>
 20005c0:	e1a0100c 	mov	r1, r12
 20005c4:	e3a03000 	mov	r3, #0
 20005c8:	e491200c 	ldr	r2, [r1], #12
 20005cc:	e1a00003 	mov	r0, r3
 20005d0:	e3520000 	cmp	r2, #0
 20005d4:	e2833001 	add	r3, r3, #1
 20005d8:	1afffffa 	bne	20005c8 <cpp_menu+0x2ec>
 20005dc:	e1550000 	cmp	r5, r0
 20005e0:	baffff6e 	blt	20003a0 <cpp_menu+0xc4>
 20005e4:	e49c300c 	ldr	r3, [r12], #12
 20005e8:	e2822001 	add	r2, r2, #1
 20005ec:	e3530000 	cmp	r3, #0
 20005f0:	1afffffb 	bne	20005e4 <cpp_menu+0x308>
 20005f4:	e04e2002 	sub	r2, r14, r2
 20005f8:	e5872000 	str	r2, [r7]
 20005fc:	eaffff67 	b	20003a0 <cpp_menu+0xc4>
 2000600:	e59a3000 	ldr	r3, [r10]
 2000604:	e3a02000 	mov	r2, #0
 2000608:	e5872000 	str	r2, [r7]
 200060c:	e5932004 	ldr	r2, [r3, #4]
 2000610:	e581a000 	str	r10, [r1]
 2000614:	e1500002 	cmp	r0, r2
 2000618:	0a000007 	beq	200063c <cpp_menu+0x360>
 200061c:	e3a02001 	mov	r2, #1
 2000620:	e5931010 	ldr	r1, [r3, #16]
 2000624:	e283300c 	add	r3, r3, #12
 2000628:	e1500001 	cmp	r0, r1
 200062c:	e1a01002 	mov	r1, r2
 2000630:	e2822001 	add	r2, r2, #1
 2000634:	1afffff9 	bne	2000620 <cpp_menu+0x344>
 2000638:	e5871000 	str	r1, [r7]
 200063c:	ebfffee5 	bl	20001d8 <_Z12clear_screenv>
 2000640:	e59a2004 	ldr	r2, [r10, #4]
 2000644:	e3a01000 	mov	r1, #0
 2000648:	e3a00003 	mov	r0, #3
 200064c:	ebffff14 	bl	20002a4 <_Z11draw_stringiiPKc>
 2000650:	e3a0b000 	mov	r11, #0
 2000654:	e1a0500b 	mov	r5, r11
 2000658:	e59a0000 	ldr	r0, [r10]
 200065c:	e1a03000 	mov	r3, r0
 2000660:	e493200c 	ldr	r2, [r3], #12
 2000664:	e3520000 	cmp	r2, #0
 2000668:	0a00000d 	beq	20006a4 <cpp_menu+0x3c8>
 200066c:	e3a02000 	mov	r2, #0
 2000670:	e493100c 	ldr	r1, [r3], #12
 2000674:	e2822001 	add	r2, r2, #1
 2000678:	e3510000 	cmp	r1, #0
 200067c:	1afffffb 	bne	2000670 <cpp_menu+0x394>
 2000680:	e1550002 	cmp	r5, r2
 2000684:	aa000006 	bge	20006a4 <cpp_menu+0x3c8>
 2000688:	e790200b 	ldr	r2, [r0, r11]
 200068c:	e2851002 	add	r1, r5, #2
 2000690:	e3a00002 	mov	r0, #2
 2000694:	e28bb00c 	add	r11, r11, #12
 2000698:	e2855001 	add	r5, r5, #1
 200069c:	ebffff00 	bl	20002a4 <_Z11draw_stringiiPKc>
 20006a0:	eaffffec 	b	2000658 <cpp_menu+0x37c>
 20006a4:	e59a3008 	ldr	r3, [r10, #8]
 20006a8:	e3530000 	cmp	r3, #0
 20006ac:	1affff44 	bne	20003c4 <cpp_menu+0xe8>
 20006b0:	e59f2228 	ldr	r2, [pc, #552]	; 20008e0 <cpp_menu+0x604>
 20006b4:	e3a01015 	mov	r1, #21
 20006b8:	e3a00003 	mov	r0, #3
 20006bc:	ebfffef8 	bl	20002a4 <_Z11draw_stringiiPKc>
 20006c0:	e59f221c 	ldr	r2, [pc, #540]	; 20008e4 <cpp_menu+0x608>
 20006c4:	e3a01016 	mov	r1, #22
 20006c8:	e3a00003 	mov	r0, #3
 20006cc:	ebfffef4 	bl	20002a4 <_Z11draw_stringiiPKc>
 20006d0:	e59f2210 	ldr	r2, [pc, #528]	; 20008e8 <cpp_menu+0x60c>
 20006d4:	e3a01017 	mov	r1, #23
 20006d8:	e3a00003 	mov	r0, #3
 20006dc:	ebfffef0 	bl	20002a4 <_Z11draw_stringiiPKc>
 20006e0:	eaffff37 	b	20003c4 <cpp_menu+0xe8>
 20006e4:	e59f21e0 	ldr	r2, [pc, #480]	; 20008cc <cpp_menu+0x5f0>
 20006e8:	e5933004 	ldr	r3, [r3, #4]
 20006ec:	e3a05000 	mov	r5, #0
 20006f0:	e5823000 	str	r3, [r2]
 20006f4:	e58d3000 	str	r3, [r13]
 20006f8:	e5875000 	str	r5, [r7]
 20006fc:	ebfffeb5 	bl	20001d8 <_Z12clear_screenv>
 2000700:	e59d3000 	ldr	r3, [r13]
 2000704:	e1a01005 	mov	r1, r5
 2000708:	e5932004 	ldr	r2, [r3, #4]
 200070c:	e3a00003 	mov	r0, #3
 2000710:	ebfffee3 	bl	20002a4 <_Z11draw_stringiiPKc>
 2000714:	e59db000 	ldr	r11, [r13]
 2000718:	e58d4004 	str	r4, [r13, #4]
 200071c:	e1a04005 	mov	r4, r5
 2000720:	e59bc000 	ldr	r12, [r11]
 2000724:	e1a0200c 	mov	r2, r12
 2000728:	e492100c 	ldr	r1, [r2], #12
 200072c:	e3510000 	cmp	r1, #0
 2000730:	0a00000d 	beq	200076c <cpp_menu+0x490>
 2000734:	e3a01000 	mov	r1, #0
 2000738:	e492300c 	ldr	r3, [r2], #12
 200073c:	e2811001 	add	r1, r1, #1
 2000740:	e3530000 	cmp	r3, #0
 2000744:	1afffffb 	bne	2000738 <cpp_menu+0x45c>
 2000748:	e1550001 	cmp	r5, r1
 200074c:	aa000006 	bge	200076c <cpp_menu+0x490>
 2000750:	e79c2004 	ldr	r2, [r12, r4]
 2000754:	e2851002 	add	r1, r5, #2
 2000758:	e3a00002 	mov	r0, #2
 200075c:	e284400c 	add	r4, r4, #12
 2000760:	e2855001 	add	r5, r5, #1
 2000764:	ebfffece 	bl	20002a4 <_Z11draw_stringiiPKc>
 2000768:	eaffffec 	b	2000720 <cpp_menu+0x444>
 200076c:	e89d0018 	ldm	r13, {r3, r4}
 2000770:	e5933008 	ldr	r3, [r3, #8]
 2000774:	e3530000 	cmp	r3, #0
 2000778:	1affff0a 	bne	20003a8 <cpp_menu+0xcc>
 200077c:	e59f215c 	ldr	r2, [pc, #348]	; 20008e0 <cpp_menu+0x604>
 2000780:	e3a01015 	mov	r1, #21
 2000784:	e3a00003 	mov	r0, #3
 2000788:	ebfffec5 	bl	20002a4 <_Z11draw_stringiiPKc>
 200078c:	e59f2150 	ldr	r2, [pc, #336]	; 20008e4 <cpp_menu+0x608>
 2000790:	e3a01016 	mov	r1, #22
 2000794:	e3a00003 	mov	r0, #3
 2000798:	ebfffec1 	bl	20002a4 <_Z11draw_stringiiPKc>
 200079c:	e59f2144 	ldr	r2, [pc, #324]	; 20008e8 <cpp_menu+0x60c>
 20007a0:	e3a01017 	mov	r1, #23
 20007a4:	e3a00003 	mov	r0, #3
 20007a8:	ebfffebd 	bl	20002a4 <_Z11draw_stringiiPKc>
 20007ac:	eafffefd 	b	20003a8 <cpp_menu+0xcc>
 20007b0:	e5930004 	ldr	r0, [r3, #4]
 20007b4:	eb001d5b 	bl	2007d28 <call_fncptr>
 20007b8:	e59f212c 	ldr	r2, [pc, #300]	; 20008ec <cpp_menu+0x610>
 20007bc:	e1a01005 	mov	r1, r5
 20007c0:	e1a00005 	mov	r0, r5
 20007c4:	ebfffeb6 	bl	20002a4 <_Z11draw_stringiiPKc>
 20007c8:	e1d633b0 	ldrh	r3, [r6, #48]	; 0x30
 20007cc:	e2133002 	ands	r3, r3, #2
 20007d0:	1afffffc 	bne	20007c8 <cpp_menu+0x4ec>
 20007d4:	e1a0b003 	mov	r11, r3
 20007d8:	e59f30ec 	ldr	r3, [pc, #236]	; 20008cc <cpp_menu+0x5f0>
 20007dc:	e1a0500b 	mov	r5, r11
 20007e0:	e5933000 	ldr	r3, [r3]
 20007e4:	e58d3000 	str	r3, [r13]
 20007e8:	ebfffe7a 	bl	20001d8 <_Z12clear_screenv>
 20007ec:	e59d3000 	ldr	r3, [r13]
 20007f0:	e1a0100b 	mov	r1, r11
 20007f4:	e5932004 	ldr	r2, [r3, #4]
 20007f8:	e3a00003 	mov	r0, #3
 20007fc:	ebfffea8 	bl	20002a4 <_Z11draw_stringiiPKc>
 2000800:	e58d4004 	str	r4, [r13, #4]
 2000804:	e1a0400b 	mov	r4, r11
 2000808:	e59db000 	ldr	r11, [r13]
 200080c:	e59bc000 	ldr	r12, [r11]
 2000810:	e1a0200c 	mov	r2, r12
 2000814:	e492100c 	ldr	r1, [r2], #12
 2000818:	e3510000 	cmp	r1, #0
 200081c:	0a00000d 	beq	2000858 <cpp_menu+0x57c>
 2000820:	e3a01000 	mov	r1, #0
 2000824:	e492300c 	ldr	r3, [r2], #12
 2000828:	e2811001 	add	r1, r1, #1
 200082c:	e3530000 	cmp	r3, #0
 2000830:	1afffffb 	bne	2000824 <cpp_menu+0x548>
 2000834:	e1550001 	cmp	r5, r1
 2000838:	aa000006 	bge	2000858 <cpp_menu+0x57c>
 200083c:	e79c2004 	ldr	r2, [r12, r4]
 2000840:	e2851002 	add	r1, r5, #2
 2000844:	e3a00002 	mov	r0, #2
 2000848:	e284400c 	add	r4, r4, #12
 200084c:	e2855001 	add	r5, r5, #1
 2000850:	ebfffe93 	bl	20002a4 <_Z11draw_stringiiPKc>
 2000854:	eaffffec 	b	200080c <cpp_menu+0x530>
 2000858:	e89d0018 	ldm	r13, {r3, r4}
 200085c:	e5933008 	ldr	r3, [r3, #8]
 2000860:	e3530000 	cmp	r3, #0
 2000864:	0a000008 	beq	200088c <cpp_menu+0x5b0>
 2000868:	e3844002 	orr	r4, r4, #2
 200086c:	eafffecd 	b	20003a8 <cpp_menu+0xcc>
 2000870:	e59d3000 	ldr	r3, [r13]
 2000874:	e1a0800a 	mov	r8, r10
 2000878:	e5933008 	ldr	r3, [r3, #8]
 200087c:	e59d4004 	ldr	r4, [r13, #4]
 2000880:	e3530000 	cmp	r3, #0
 2000884:	e1a0a00b 	mov	r10, r11
 2000888:	1afffff6 	bne	2000868 <cpp_menu+0x58c>
 200088c:	e59f204c 	ldr	r2, [pc, #76]	; 20008e0 <cpp_menu+0x604>
 2000890:	e3a01015 	mov	r1, #21
 2000894:	e3a00003 	mov	r0, #3
 2000898:	ebfffe81 	bl	20002a4 <_Z11draw_stringiiPKc>
 200089c:	e59f2040 	ldr	r2, [pc, #64]	; 20008e4 <cpp_menu+0x608>
 20008a0:	e3a01016 	mov	r1, #22
 20008a4:	e3a00003 	mov	r0, #3
 20008a8:	ebfffe7d 	bl	20002a4 <_Z11draw_stringiiPKc>
 20008ac:	e59f2034 	ldr	r2, [pc, #52]	; 20008e8 <cpp_menu+0x60c>
 20008b0:	e3a01017 	mov	r1, #23
 20008b4:	e3a00003 	mov	r0, #3
 20008b8:	ebfffe79 	bl	20002a4 <_Z11draw_stringiiPKc>
 20008bc:	eaffffe9 	b	2000868 <cpp_menu+0x58c>
 20008c0:	e35e0000 	cmp	r14, #0
 20008c4:	bafffeb5 	blt	20003a0 <cpp_menu+0xc4>
 20008c8:	eaffff49 	b	20005f4 <cpp_menu+0x318>
 20008cc:	02007f88 	andeq	r7, r0, #136, 30	; 0x220
 20008d0:	02007f68 	andeq	r7, r0, #104, 30	; 0x1a0
 20008d4:	04000100 	streq	r0, [r0], #-256	; 0xffffff00
 20008d8:	02008db0 	andeq	r8, r0, #176, 26	; 0x2c00
 20008dc:	000056b5 			; <UNDEFINED> instruction: 0x000056b5
 20008e0:	02008d74 	andeq	r8, r0, #116, 26	; 0x1d00
 20008e4:	02008d90 	andeq	r8, r0, #144, 26	; 0x2400
 20008e8:	02004ea8 	andeq	r4, r0, #168, 28	; 0xa80
 20008ec:	02008dac 	andeq	r8, r0, #172, 26	; 0x2b00

020008f0 <cpp_fail_test>:
 20008f0:	e92d4070 	push	{r4, r5, r6, r14}
 20008f4:	e1a05000 	mov	r5, r0
 20008f8:	e1a06002 	mov	r6, r2
 20008fc:	e1a04001 	mov	r4, r1
 2000900:	ebfffe10 	bl	2000148 <init_iostate>
 2000904:	e3a01000 	mov	r1, #0
 2000908:	e1a02005 	mov	r2, r5
 200090c:	e1a00001 	mov	r0, r1
 2000910:	ebfffe63 	bl	20002a4 <_Z11draw_stringiiPKc>
 2000914:	e3560000 	cmp	r6, #0
 2000918:	b8bd8070 	poplt	{r4, r5, r6, r15}
 200091c:	e3a05008 	mov	r5, #8
 2000920:	e1a02536 	lsr	r2, r6, r5
 2000924:	e1a00004 	mov	r0, r4
 2000928:	e202200f 	and	r2, r2, #15
 200092c:	e3a01000 	mov	r1, #0
 2000930:	e2455004 	sub	r5, r5, #4
 2000934:	ebfffe41 	bl	2000240 <_Z9draw_tileiii>
 2000938:	e3750004 	cmn	r5, #4
 200093c:	e2844001 	add	r4, r4, #1
 2000940:	1afffff6 	bne	2000920 <cpp_fail_test+0x30>
 2000944:	e8bd8070 	pop	{r4, r5, r6, r15}

02000948 <_ZNK4Menu4drawEv>:
 2000948:	e92d4070 	push	{r4, r5, r6, r14}
 200094c:	e1a06000 	mov	r6, r0
 2000950:	e3a05000 	mov	r5, #0
 2000954:	ebfffe1f 	bl	20001d8 <_Z12clear_screenv>
 2000958:	e5962004 	ldr	r2, [r6, #4]
 200095c:	e1a01005 	mov	r1, r5
 2000960:	e3a00003 	mov	r0, #3
 2000964:	ebfffe4e 	bl	20002a4 <_Z11draw_stringiiPKc>
 2000968:	e1a04005 	mov	r4, r5
 200096c:	e596c000 	ldr	r12, [r6]
 2000970:	e1a0300c 	mov	r3, r12
 2000974:	e493200c 	ldr	r2, [r3], #12
 2000978:	e3520000 	cmp	r2, #0
 200097c:	0a00000d 	beq	20009b8 <_ZNK4Menu4drawEv+0x70>
 2000980:	e3a02000 	mov	r2, #0
 2000984:	e493100c 	ldr	r1, [r3], #12
 2000988:	e2822001 	add	r2, r2, #1
 200098c:	e3510000 	cmp	r1, #0
 2000990:	1afffffb 	bne	2000984 <_ZNK4Menu4drawEv+0x3c>
 2000994:	e1540002 	cmp	r4, r2
 2000998:	aa000006 	bge	20009b8 <_ZNK4Menu4drawEv+0x70>
 200099c:	e79c2005 	ldr	r2, [r12, r5]
 20009a0:	e2841002 	add	r1, r4, #2
 20009a4:	e3a00002 	mov	r0, #2
 20009a8:	ebfffe3d 	bl	20002a4 <_Z11draw_stringiiPKc>
 20009ac:	e2844001 	add	r4, r4, #1
 20009b0:	e285500c 	add	r5, r5, #12
 20009b4:	eaffffec 	b	200096c <_ZNK4Menu4drawEv+0x24>
 20009b8:	e5963008 	ldr	r3, [r6, #8]
 20009bc:	e3530000 	cmp	r3, #0
 20009c0:	18bd8070 	popne	{r4, r5, r6, r15}
 20009c4:	e59f202c 	ldr	r2, [pc, #44]	; 20009f8 <_ZNK4Menu4drawEv+0xb0>
 20009c8:	e3a01015 	mov	r1, #21
 20009cc:	e3a00003 	mov	r0, #3
 20009d0:	ebfffe33 	bl	20002a4 <_Z11draw_stringiiPKc>
 20009d4:	e59f2020 	ldr	r2, [pc, #32]	; 20009fc <_ZNK4Menu4drawEv+0xb4>
 20009d8:	e3a01016 	mov	r1, #22
 20009dc:	e3a00003 	mov	r0, #3
 20009e0:	ebfffe2f 	bl	20002a4 <_Z11draw_stringiiPKc>
 20009e4:	e8bd4070 	pop	{r4, r5, r6, r14}
 20009e8:	e59f2010 	ldr	r2, [pc, #16]	; 2000a00 <_ZNK4Menu4drawEv+0xb8>
 20009ec:	e3a01017 	mov	r1, #23
 20009f0:	e3a00003 	mov	r0, #3
 20009f4:	eafffe2a 	b	20002a4 <_Z11draw_stringiiPKc>
 20009f8:	02008d74 	andeq	r8, r0, #116, 26	; 0x1d00
 20009fc:	02008d90 	andeq	r8, r0, #144, 26	; 0x2400
 2000a00:	02004ea8 	andeq	r4, r0, #168, 28	; 0xa80

02000a04 <_Z12ARM7_rw_coremim>:
 2000a04:	e241c004 	sub	r12, r1, #4
 2000a08:	e3a03301 	mov	r3, #67108864	; 0x4000000
 2000a0c:	e1800e01 	orr	r0, r0, r1, lsl #28
 2000a10:	e35c0002 	cmp	r12, #2
 2000a14:	e92d4070 	push	{r4, r5, r6, r14}
 2000a18:	e5830188 	str	r0, [r3, #392]	; 0x188
 2000a1c:	e59f5030 	ldr	r5, [pc, #48]	; 2000a54 <_Z12ARM7_rw_coremim+0x50>
 2000a20:	e3a04a02 	mov	r4, #8192	; 0x2000
 2000a24:	95832188 	strls	r2, [r3, #392]	; 0x188
 2000a28:	ea000001 	b	2000a34 <_Z12ARM7_rw_coremim+0x30>
 2000a2c:	e2544001 	subs	r4, r4, #1
 2000a30:	0a000005 	beq	2000a4c <_Z12ARM7_rw_coremim+0x48>
 2000a34:	e1d538b4 	ldrh	r3, [r5, #132]	; 0x84
 2000a38:	e3130c01 	tst	r3, #256	; 0x100
 2000a3c:	1afffffa 	bne	2000a2c <_Z12ARM7_rw_coremim+0x28>
 2000a40:	e3a03641 	mov	r3, #68157440	; 0x4100000
 2000a44:	e5930000 	ldr	r0, [r3]
 2000a48:	e8bd8070 	pop	{r4, r5, r6, r15}
 2000a4c:	eb001104 	bl	2004e64 <timeout_rw>
 2000a50:	eafffff7 	b	2000a34 <_Z12ARM7_rw_coremim+0x30>
 2000a54:	04000100 	streq	r0, [r0], #-256	; 0xffffff00

02000a58 <_Z13ARM7_start_rwv>:
 2000a58:	e92d4010 	push	{r4, r14}
 2000a5c:	e59f4020 	ldr	r4, [pc, #32]	; 2000a84 <_Z13ARM7_start_rwv+0x2c>
 2000a60:	e3a03c0a 	mov	r3, #2560	; 0xa00
 2000a64:	e59f201c 	ldr	r2, [pc, #28]	; 2000a88 <_Z13ARM7_start_rwv+0x30>
 2000a68:	e1c428b4 	strh	r2, [r4, #132]	; 0x84
 2000a6c:	e3a00a01 	mov	r0, #4096	; 0x1000
 2000a70:	e1c438b0 	strh	r3, [r4, #128]	; 0x80
 2000a74:	eb001ca0 	bl	2007cfc <wait_busy>
 2000a78:	e3a03000 	mov	r3, #0
 2000a7c:	e1c438b0 	strh	r3, [r4, #128]	; 0x80
 2000a80:	e8bd8010 	pop	{r4, r15}
 2000a84:	04000100 	streq	r0, [r0], #-256	; 0xffffff00
 2000a88:	ffff8008 			; <UNDEFINED> instruction: 0xffff8008

02000a8c <_Z14ARM7_read_wordm>:
 2000a8c:	e3800201 	orr	r0, r0, #268435456	; 0x10000000
 2000a90:	e3a03301 	mov	r3, #67108864	; 0x4000000
 2000a94:	e92d4070 	push	{r4, r5, r6, r14}
 2000a98:	e59f5030 	ldr	r5, [pc, #48]	; 2000ad0 <_Z14ARM7_read_wordm+0x44>
 2000a9c:	e3a04a02 	mov	r4, #8192	; 0x2000
 2000aa0:	e5830188 	str	r0, [r3, #392]	; 0x188
 2000aa4:	ea000001 	b	2000ab0 <_Z14ARM7_read_wordm+0x24>
 2000aa8:	e2544001 	subs	r4, r4, #1
 2000aac:	0a000005 	beq	2000ac8 <_Z14ARM7_read_wordm+0x3c>
 2000ab0:	e1d538b4 	ldrh	r3, [r5, #132]	; 0x84
 2000ab4:	e3130c01 	tst	r3, #256	; 0x100
 2000ab8:	1afffffa 	bne	2000aa8 <_Z14ARM7_read_wordm+0x1c>
 2000abc:	e3a03641 	mov	r3, #68157440	; 0x4100000
 2000ac0:	e5930000 	ldr	r0, [r3]
 2000ac4:	e8bd8070 	pop	{r4, r5, r6, r15}
 2000ac8:	eb0010e5 	bl	2004e64 <timeout_rw>
 2000acc:	eafffff7 	b	2000ab0 <_Z14ARM7_read_wordm+0x24>
 2000ad0:	04000100 	streq	r0, [r0], #-256	; 0xffffff00

02000ad4 <_Z18ARM7_read_halfwordm>:
 2000ad4:	e3800202 	orr	r0, r0, #536870912	; 0x20000000
 2000ad8:	e3a03301 	mov	r3, #67108864	; 0x4000000
 2000adc:	e92d4070 	push	{r4, r5, r6, r14}
 2000ae0:	e59f5038 	ldr	r5, [pc, #56]	; 2000b20 <_Z18ARM7_read_halfwordm+0x4c>
 2000ae4:	e3a04a02 	mov	r4, #8192	; 0x2000
 2000ae8:	e5830188 	str	r0, [r3, #392]	; 0x188
 2000aec:	ea000001 	b	2000af8 <_Z18ARM7_read_halfwordm+0x24>
 2000af0:	e2544001 	subs	r4, r4, #1
 2000af4:	0a000007 	beq	2000b18 <_Z18ARM7_read_halfwordm+0x44>
 2000af8:	e1d538b4 	ldrh	r3, [r5, #132]	; 0x84
 2000afc:	e3130c01 	tst	r3, #256	; 0x100
 2000b00:	1afffffa 	bne	2000af0 <_Z18ARM7_read_halfwordm+0x1c>
 2000b04:	e3a03641 	mov	r3, #68157440	; 0x4100000
 2000b08:	e5930000 	ldr	r0, [r3]
 2000b0c:	e1a00800 	lsl	r0, r0, #16
 2000b10:	e1a00820 	lsr	r0, r0, #16
 2000b14:	e8bd8070 	pop	{r4, r5, r6, r15}
 2000b18:	eb0010d1 	bl	2004e64 <timeout_rw>
 2000b1c:	eafffff5 	b	2000af8 <_Z18ARM7_read_halfwordm+0x24>
 2000b20:	04000100 	streq	r0, [r0], #-256	; 0xffffff00

02000b24 <_Z14ARM7_read_bytem>:
 2000b24:	e3800203 	orr	r0, r0, #805306368	; 0x30000000
 2000b28:	e3a03301 	mov	r3, #67108864	; 0x4000000
 2000b2c:	e92d4070 	push	{r4, r5, r6, r14}
 2000b30:	e59f5034 	ldr	r5, [pc, #52]	; 2000b6c <_Z14ARM7_read_bytem+0x48>
 2000b34:	e3a04a02 	mov	r4, #8192	; 0x2000
 2000b38:	e5830188 	str	r0, [r3, #392]	; 0x188
 2000b3c:	ea000001 	b	2000b48 <_Z14ARM7_read_bytem+0x24>
 2000b40:	e2544001 	subs	r4, r4, #1
 2000b44:	0a000006 	beq	2000b64 <_Z14ARM7_read_bytem+0x40>
 2000b48:	e1d538b4 	ldrh	r3, [r5, #132]	; 0x84
 2000b4c:	e3130c01 	tst	r3, #256	; 0x100
 2000b50:	1afffffa 	bne	2000b40 <_Z14ARM7_read_bytem+0x1c>
 2000b54:	e3a03641 	mov	r3, #68157440	; 0x4100000
 2000b58:	e5930000 	ldr	r0, [r3]
 2000b5c:	e20000ff 	and	r0, r0, #255	; 0xff
 2000b60:	e8bd8070 	pop	{r4, r5, r6, r15}
 2000b64:	eb0010be 	bl	2004e64 <timeout_rw>
 2000b68:	eafffff6 	b	2000b48 <_Z14ARM7_read_bytem+0x24>
 2000b6c:	04000100 	streq	r0, [r0], #-256	; 0xffffff00

02000b70 <_Z15ARM7_write_wordmm>:
 2000b70:	e3a03301 	mov	r3, #67108864	; 0x4000000
 2000b74:	e3800101 	orr	r0, r0, #1073741824	; 0x40000000
 2000b78:	e92d4070 	push	{r4, r5, r6, r14}
 2000b7c:	e5830188 	str	r0, [r3, #392]	; 0x188
 2000b80:	e59f5030 	ldr	r5, [pc, #48]	; 2000bb8 <_Z15ARM7_write_wordmm+0x48>
 2000b84:	e3a04a02 	mov	r4, #8192	; 0x2000
 2000b88:	e5831188 	str	r1, [r3, #392]	; 0x188
 2000b8c:	ea000001 	b	2000b98 <_Z15ARM7_write_wordmm+0x28>
 2000b90:	e2544001 	subs	r4, r4, #1
 2000b94:	0a000005 	beq	2000bb0 <_Z15ARM7_write_wordmm+0x40>
 2000b98:	e1d538b4 	ldrh	r3, [r5, #132]	; 0x84
 2000b9c:	e3130c01 	tst	r3, #256	; 0x100
 2000ba0:	1afffffa 	bne	2000b90 <_Z15ARM7_write_wordmm+0x20>
 2000ba4:	e3a03641 	mov	r3, #68157440	; 0x4100000
 2000ba8:	e5933000 	ldr	r3, [r3]
 2000bac:	e8bd8070 	pop	{r4, r5, r6, r15}
 2000bb0:	eb0010ab 	bl	2004e64 <timeout_rw>
 2000bb4:	eafffff7 	b	2000b98 <_Z15ARM7_write_wordmm+0x28>
 2000bb8:	04000100 	streq	r0, [r0], #-256	; 0xffffff00

02000bbc <_Z19ARM7_write_halfwordmt>:
 2000bbc:	e3a03301 	mov	r3, #67108864	; 0x4000000
 2000bc0:	e3800205 	orr	r0, r0, #1342177280	; 0x50000000
 2000bc4:	e92d4070 	push	{r4, r5, r6, r14}
 2000bc8:	e5830188 	str	r0, [r3, #392]	; 0x188
 2000bcc:	e59f5030 	ldr	r5, [pc, #48]	; 2000c04 <_Z19ARM7_write_halfwordmt+0x48>
 2000bd0:	e3a04a02 	mov	r4, #8192	; 0x2000
 2000bd4:	e5831188 	str	r1, [r3, #392]	; 0x188
 2000bd8:	ea000001 	b	2000be4 <_Z19ARM7_write_halfwordmt+0x28>
 2000bdc:	e2544001 	subs	r4, r4, #1
 2000be0:	0a000005 	beq	2000bfc <_Z19ARM7_write_halfwordmt+0x40>
 2000be4:	e1d538b4 	ldrh	r3, [r5, #132]	; 0x84
 2000be8:	e3130c01 	tst	r3, #256	; 0x100
 2000bec:	1afffffa 	bne	2000bdc <_Z19ARM7_write_halfwordmt+0x20>
 2000bf0:	e3a03641 	mov	r3, #68157440	; 0x4100000
 2000bf4:	e5933000 	ldr	r3, [r3]
 2000bf8:	e8bd8070 	pop	{r4, r5, r6, r15}
 2000bfc:	eb001098 	bl	2004e64 <timeout_rw>
 2000c00:	eafffff7 	b	2000be4 <_Z19ARM7_write_halfwordmt+0x28>
 2000c04:	04000100 	streq	r0, [r0], #-256	; 0xffffff00

02000c08 <_Z15ARM7_write_bytemh>:
 2000c08:	e3a03301 	mov	r3, #67108864	; 0x4000000
 2000c0c:	e3800206 	orr	r0, r0, #1610612736	; 0x60000000
 2000c10:	e92d4070 	push	{r4, r5, r6, r14}
 2000c14:	e5830188 	str	r0, [r3, #392]	; 0x188
 2000c18:	e59f5030 	ldr	r5, [pc, #48]	; 2000c50 <_Z15ARM7_write_bytemh+0x48>
 2000c1c:	e3a04a02 	mov	r4, #8192	; 0x2000
 2000c20:	e5831188 	str	r1, [r3, #392]	; 0x188
 2000c24:	ea000001 	b	2000c30 <_Z15ARM7_write_bytemh+0x28>
 2000c28:	e2544001 	subs	r4, r4, #1
 2000c2c:	0a000005 	beq	2000c48 <_Z15ARM7_write_bytemh+0x40>
 2000c30:	e1d538b4 	ldrh	r3, [r5, #132]	; 0x84
 2000c34:	e3130c01 	tst	r3, #256	; 0x100
 2000c38:	1afffffa 	bne	2000c28 <_Z15ARM7_write_bytemh+0x20>
 2000c3c:	e3a03641 	mov	r3, #68157440	; 0x4100000
 2000c40:	e5933000 	ldr	r3, [r3]
 2000c44:	e8bd8070 	pop	{r4, r5, r6, r15}
 2000c48:	eb001085 	bl	2004e64 <timeout_rw>
 2000c4c:	eafffff7 	b	2000c30 <_Z15ARM7_write_bytemh+0x28>
 2000c50:	04000100 	streq	r0, [r0], #-256	; 0xffffff00

02000c54 <_Z11ARM7_end_rwv>:
 2000c54:	e3a03301 	mov	r3, #67108864	; 0x4000000
 2000c58:	e3a02000 	mov	r2, #0
 2000c5c:	e92d4070 	push	{r4, r5, r6, r14}
 2000c60:	e59f5030 	ldr	r5, [pc, #48]	; 2000c98 <_Z11ARM7_end_rwv+0x44>
 2000c64:	e3a04a02 	mov	r4, #8192	; 0x2000
 2000c68:	e5832188 	str	r2, [r3, #392]	; 0x188
 2000c6c:	ea000001 	b	2000c78 <_Z11ARM7_end_rwv+0x24>
 2000c70:	e2544001 	subs	r4, r4, #1
 2000c74:	0a000005 	beq	2000c90 <_Z11ARM7_end_rwv+0x3c>
 2000c78:	e1d538b4 	ldrh	r3, [r5, #132]	; 0x84
 2000c7c:	e3130c01 	tst	r3, #256	; 0x100
 2000c80:	1afffffa 	bne	2000c70 <_Z11ARM7_end_rwv+0x1c>
 2000c84:	e3a03641 	mov	r3, #68157440	; 0x4100000
 2000c88:	e5933000 	ldr	r3, [r3]
 2000c8c:	e8bd8070 	pop	{r4, r5, r6, r15}
 2000c90:	eb001073 	bl	2004e64 <timeout_rw>
 2000c94:	eafffff7 	b	2000c78 <_Z11ARM7_end_rwv+0x24>
 2000c98:	04000100 	streq	r0, [r0], #-256	; 0xffffff00

02000c9c <cp15_get_controlreg>:
 2000c9c:	ee110f10 	mrc	15, 0, r0, cr1, cr0, {0}
 2000ca0:	e12fff1e 	bx	r14

02000ca4 <cp15_set_controlreg>:
 2000ca4:	ee010f10 	mcr	15, 0, r0, cr1, cr0, {0}
 2000ca8:	e12fff1e 	bx	r14

02000cac <cp15_get_DTCMcontrol>:
 2000cac:	ee190f11 	mrc	15, 0, r0, cr9, cr1, {0}
 2000cb0:	e12fff1e 	bx	r14

02000cb4 <cp15_set_DTCMcontrol>:
 2000cb4:	ee090f11 	mcr	15, 0, r0, cr9, cr1, {0}
 2000cb8:	e12fff1e 	bx	r14

02000cbc <cp15_get_ITCMcontrol>:
 2000cbc:	ee190f31 	mrc	15, 0, r0, cr9, cr1, {1}
 2000cc0:	e12fff1e 	bx	r14

02000cc4 <cp15_set_ITCMcontrol>:
 2000cc4:	ee090f31 	mcr	15, 0, r0, cr9, cr1, {1}
 2000cc8:	e12fff1e 	bx	r14

02000ccc <font_start>:
 2000ccc:	03030303 	movweq	r0, #13059	; 0x3303
 2000cd0:	03030303 	movweq	r0, #13059	; 0x3303
 2000cd4:	00030303 	andeq	r0, r3, r3, lsl #6
 2000cd8:	03030300 	movweq	r0, #13056	; 0x3300
 2000cdc:	03000303 	movweq	r0, #771	; 0x303
 2000ce0:	03030003 	movweq	r0, #12291	; 0x3003
 2000ce4:	03000303 	movweq	r0, #771	; 0x303
 2000ce8:	03030000 	movweq	r0, #12288	; 0x3000
 2000cec:	00000303 	andeq	r0, r0, r3, lsl #6
 2000cf0:	03030003 	movweq	r0, #12291	; 0x3003
 2000cf4:	03000303 	movweq	r0, #771	; 0x303
 2000cf8:	03030003 	movweq	r0, #12291	; 0x3003
 2000cfc:	00030303 	andeq	r0, r3, r3, lsl #6
 2000d00:	03030300 	movweq	r0, #13056	; 0x3300
 2000d04:	03030303 	movweq	r0, #13059	; 0x3303
 2000d08:	03030303 	movweq	r0, #13059	; 0x3303
 2000d0c:	03030303 	movweq	r0, #13059	; 0x3303
 2000d10:	03030303 	movweq	r0, #13059	; 0x3303
 2000d14:	00030303 	andeq	r0, r3, r3, lsl #6
 2000d18:	03030303 	movweq	r0, #13059	; 0x3303
 2000d1c:	00000303 	andeq	r0, r0, r3, lsl #6
 2000d20:	03030303 	movweq	r0, #13059	; 0x3303
 2000d24:	00030303 	andeq	r0, r3, r3, lsl #6
 2000d28:	03030303 	movweq	r0, #13059	; 0x3303
 2000d2c:	00030303 	andeq	r0, r3, r3, lsl #6
 2000d30:	03030303 	movweq	r0, #13059	; 0x3303
 2000d34:	00030303 	andeq	r0, r3, r3, lsl #6
 2000d38:	03030303 	movweq	r0, #13059	; 0x3303
 2000d3c:	00000303 	andeq	r0, r0, r3, lsl #6
 2000d40:	03030300 	movweq	r0, #13056	; 0x3300
 2000d44:	03030303 	movweq	r0, #13059	; 0x3303
 2000d48:	03030303 	movweq	r0, #13059	; 0x3303
 2000d4c:	03030303 	movweq	r0, #13059	; 0x3303
 2000d50:	03030303 	movweq	r0, #13059	; 0x3303
 2000d54:	00000303 	andeq	r0, r0, r3, lsl #6
 2000d58:	03030300 	movweq	r0, #13056	; 0x3300
 2000d5c:	03030003 	movweq	r0, #12291	; 0x3003
 2000d60:	03030003 	movweq	r0, #12291	; 0x3003
 2000d64:	03030303 	movweq	r0, #13059	; 0x3303
 2000d68:	03030003 	movweq	r0, #12291	; 0x3003
 2000d6c:	00000303 	andeq	r0, r0, r3, lsl #6
 2000d70:	03030300 	movweq	r0, #13056	; 0x3300
 2000d74:	03030003 	movweq	r0, #12291	; 0x3003
 2000d78:	03030303 	movweq	r0, #13059	; 0x3303
 2000d7c:	00000003 	andeq	r0, r0, r3
 2000d80:	03030000 	movweq	r0, #12288	; 0x3000
 2000d84:	03030303 	movweq	r0, #13059	; 0x3303
 2000d88:	03030303 	movweq	r0, #13059	; 0x3303
 2000d8c:	03030303 	movweq	r0, #13059	; 0x3303
 2000d90:	03030303 	movweq	r0, #13059	; 0x3303
 2000d94:	00000303 	andeq	r0, r0, r3, lsl #6
 2000d98:	03030000 	movweq	r0, #12288	; 0x3000
 2000d9c:	03030003 	movweq	r0, #12291	; 0x3003
 2000da0:	03000303 	movweq	r0, #771	; 0x303
 2000da4:	00030303 	andeq	r0, r3, r3, lsl #6
 2000da8:	03030000 	movweq	r0, #12288	; 0x3000
 2000dac:	03030303 	movweq	r0, #13059	; 0x3303
 2000db0:	03000303 	movweq	r0, #771	; 0x303
 2000db4:	03030003 	movweq	r0, #12291	; 0x3003
 2000db8:	03000303 	movweq	r0, #771	; 0x303
 2000dbc:	00000303 	andeq	r0, r0, r3, lsl #6
 2000dc0:	03030000 	movweq	r0, #12288	; 0x3000
 2000dc4:	03030303 	movweq	r0, #13059	; 0x3303
 2000dc8:	03030303 	movweq	r0, #13059	; 0x3303
 2000dcc:	03030303 	movweq	r0, #13059	; 0x3303
 2000dd0:	03030303 	movweq	r0, #13059	; 0x3303
 2000dd4:	03030303 	movweq	r0, #13059	; 0x3303
 2000dd8:	03030003 	movweq	r0, #12291	; 0x3003
 2000ddc:	03030303 	movweq	r0, #13059	; 0x3303
 2000de0:	03030000 	movweq	r0, #12288	; 0x3000
 2000de4:	00030303 	andeq	r0, r3, r3, lsl #6
 2000de8:	03030003 	movweq	r0, #12291	; 0x3003
 2000dec:	03000303 	movweq	r0, #771	; 0x303
 2000df0:	03030003 	movweq	r0, #12291	; 0x3003
 2000df4:	00000003 	andeq	r0, r0, r3
 2000df8:	03000000 	movweq	r0, #0
 2000dfc:	03030303 	movweq	r0, #13059	; 0x3303
 2000e00:	03030003 	movweq	r0, #12291	; 0x3003
 2000e04:	03030303 	movweq	r0, #13059	; 0x3303
 2000e08:	03030303 	movweq	r0, #13059	; 0x3303
 2000e0c:	03030303 	movweq	r0, #13059	; 0x3303
 2000e10:	03030303 	movweq	r0, #13059	; 0x3303
 2000e14:	00000003 	andeq	r0, r0, r3
 2000e18:	03000000 	movweq	r0, #0
 2000e1c:	03030003 	movweq	r0, #12291	; 0x3003
 2000e20:	03030303 	movweq	r0, #13059	; 0x3303
 2000e24:	00000003 	andeq	r0, r0, r3
 2000e28:	03030000 	movweq	r0, #12288	; 0x3000
 2000e2c:	03030303 	movweq	r0, #13059	; 0x3303
 2000e30:	03000303 	movweq	r0, #771	; 0x303
 2000e34:	03030003 	movweq	r0, #12291	; 0x3003
 2000e38:	03000303 	movweq	r0, #771	; 0x303
 2000e3c:	00000303 	andeq	r0, r0, r3, lsl #6
 2000e40:	03030000 	movweq	r0, #12288	; 0x3000
 2000e44:	03030303 	movweq	r0, #13059	; 0x3303
 2000e48:	03030303 	movweq	r0, #13059	; 0x3303
 2000e4c:	03030303 	movweq	r0, #13059	; 0x3303
 2000e50:	03030303 	movweq	r0, #13059	; 0x3303
 2000e54:	00000303 	andeq	r0, r0, r3, lsl #6
 2000e58:	03030000 	movweq	r0, #12288	; 0x3000
 2000e5c:	03000303 	movweq	r0, #771	; 0x303
 2000e60:	03030303 	movweq	r0, #13059	; 0x3303
 2000e64:	00000303 	andeq	r0, r0, r3, lsl #6
 2000e68:	03030000 	movweq	r0, #12288	; 0x3000
 2000e6c:	03000303 	movweq	r0, #771	; 0x303
 2000e70:	03030003 	movweq	r0, #12291	; 0x3003
 2000e74:	03000303 	movweq	r0, #771	; 0x303
 2000e78:	03030003 	movweq	r0, #12291	; 0x3003
 2000e7c:	00000303 	andeq	r0, r0, r3, lsl #6
 2000e80:	03030000 	movweq	r0, #12288	; 0x3000
 2000e84:	03030303 	movweq	r0, #13059	; 0x3303
 2000e88:	03030303 	movweq	r0, #13059	; 0x3303
 2000e8c:	03030303 	movweq	r0, #13059	; 0x3303
 2000e90:	03030303 	movweq	r0, #13059	; 0x3303
 2000e94:	00000003 	andeq	r0, r0, r3
 2000e98:	03000000 	movweq	r0, #0
 2000e9c:	03030303 	movweq	r0, #13059	; 0x3303
 2000ea0:	03000303 	movweq	r0, #771	; 0x303
 2000ea4:	03030303 	movweq	r0, #13059	; 0x3303
 2000ea8:	03030003 	movweq	r0, #12291	; 0x3003
 2000eac:	03030303 	movweq	r0, #13059	; 0x3303
 2000eb0:	03030300 	movweq	r0, #13056	; 0x3300
 2000eb4:	00030303 	andeq	r0, r3, r3, lsl #6
 2000eb8:	03030303 	movweq	r0, #13059	; 0x3303
 2000ebc:	00030303 	andeq	r0, r3, r3, lsl #6
 2000ec0:	03030303 	movweq	r0, #13059	; 0x3303
 2000ec4:	03030303 	movweq	r0, #13059	; 0x3303
 2000ec8:	03030303 	movweq	r0, #13059	; 0x3303
 2000ecc:	03030303 	movweq	r0, #13059	; 0x3303
 2000ed0:	03030303 	movweq	r0, #13059	; 0x3303
 2000ed4:	00000303 	andeq	r0, r0, r3, lsl #6
 2000ed8:	03030000 	movweq	r0, #12288	; 0x3000
 2000edc:	03030003 	movweq	r0, #12291	; 0x3003
 2000ee0:	03000303 	movweq	r0, #771	; 0x303
 2000ee4:	00000303 	andeq	r0, r0, r3, lsl #6
 2000ee8:	03030000 	movweq	r0, #12288	; 0x3000
 2000eec:	03030003 	movweq	r0, #12291	; 0x3003
 2000ef0:	03000303 	movweq	r0, #771	; 0x303
 2000ef4:	03030003 	movweq	r0, #12291	; 0x3003
 2000ef8:	03000303 	movweq	r0, #771	; 0x303
 2000efc:	00000303 	andeq	r0, r0, r3, lsl #6
 2000f00:	03030000 	movweq	r0, #12288	; 0x3000
 2000f04:	03030303 	movweq	r0, #13059	; 0x3303
 2000f08:	03030303 	movweq	r0, #13059	; 0x3303
 2000f0c:	03030303 	movweq	r0, #13059	; 0x3303
 2000f10:	03030303 	movweq	r0, #13059	; 0x3303
 2000f14:	00000303 	andeq	r0, r0, r3, lsl #6
 2000f18:	03030000 	movweq	r0, #12288	; 0x3000
 2000f1c:	03030003 	movweq	r0, #12291	; 0x3003
 2000f20:	03000303 	movweq	r0, #771	; 0x303
 2000f24:	03030003 	movweq	r0, #12291	; 0x3003
 2000f28:	03000303 	movweq	r0, #771	; 0x303
 2000f2c:	00000303 	andeq	r0, r0, r3, lsl #6
 2000f30:	03000000 	movweq	r0, #0
 2000f34:	03030303 	movweq	r0, #13059	; 0x3303
 2000f38:	03000303 	movweq	r0, #771	; 0x303
 2000f3c:	00000303 	andeq	r0, r0, r3, lsl #6
 2000f40:	03030000 	movweq	r0, #12288	; 0x3000
 2000f44:	03030303 	movweq	r0, #13059	; 0x3303
 2000f48:	03030303 	movweq	r0, #13059	; 0x3303
 2000f4c:	03030303 	movweq	r0, #13059	; 0x3303
 2000f50:	03030303 	movweq	r0, #13059	; 0x3303
 2000f54:	00000303 	andeq	r0, r0, r3, lsl #6
 2000f58:	03030000 	movweq	r0, #12288	; 0x3000
 2000f5c:	03030003 	movweq	r0, #12291	; 0x3003
 2000f60:	03000303 	movweq	r0, #771	; 0x303
 2000f64:	03030003 	movweq	r0, #12291	; 0x3003
 2000f68:	03000303 	movweq	r0, #771	; 0x303
 2000f6c:	00000003 	andeq	r0, r0, r3
 2000f70:	03000000 	movweq	r0, #0
 2000f74:	03030003 	movweq	r0, #12291	; 0x3003
 2000f78:	03000303 	movweq	r0, #771	; 0x303
 2000f7c:	03030003 	movweq	r0, #12291	; 0x3003
 2000f80:	03000303 	movweq	r0, #771	; 0x303
 2000f84:	03030303 	movweq	r0, #13059	; 0x3303
 2000f88:	03030303 	movweq	r0, #13059	; 0x3303
 2000f8c:	03030303 	movweq	r0, #13059	; 0x3303
 2000f90:	03030303 	movweq	r0, #13059	; 0x3303
 2000f94:	00000003 	andeq	r0, r0, r3
 2000f98:	03030300 	movweq	r0, #13056	; 0x3300
 2000f9c:	03030003 	movweq	r0, #12291	; 0x3003
 2000fa0:	03030003 	movweq	r0, #12291	; 0x3003
 2000fa4:	00000003 	andeq	r0, r0, r3
 2000fa8:	03030000 	movweq	r0, #12288	; 0x3000
 2000fac:	03030003 	movweq	r0, #12291	; 0x3003
 2000fb0:	03000303 	movweq	r0, #771	; 0x303
 2000fb4:	03030003 	movweq	r0, #12291	; 0x3003
 2000fb8:	03000303 	movweq	r0, #771	; 0x303
 2000fbc:	00000003 	andeq	r0, r0, r3
 2000fc0:	03030000 	movweq	r0, #12288	; 0x3000
 2000fc4:	03030303 	movweq	r0, #13059	; 0x3303
 2000fc8:	03030303 	movweq	r0, #13059	; 0x3303
 2000fcc:	03030303 	movweq	r0, #13059	; 0x3303
 2000fd0:	03030303 	movweq	r0, #13059	; 0x3303
 2000fd4:	00000303 	andeq	r0, r0, r3, lsl #6
 2000fd8:	03030300 	movweq	r0, #13056	; 0x3300
 2000fdc:	03030003 	movweq	r0, #12291	; 0x3003
 2000fe0:	03030003 	movweq	r0, #12291	; 0x3003
 2000fe4:	03030003 	movweq	r0, #12291	; 0x3003
 2000fe8:	03030303 	movweq	r0, #13059	; 0x3303
 2000fec:	03030003 	movweq	r0, #12291	; 0x3003
 2000ff0:	03030303 	movweq	r0, #13059	; 0x3303
 2000ff4:	03030003 	movweq	r0, #12291	; 0x3003
 2000ff8:	03030003 	movweq	r0, #12291	; 0x3003
 2000ffc:	00000303 	andeq	r0, r0, r3, lsl #6
 2001000:	03030300 	movweq	r0, #13056	; 0x3300
 2001004:	03030303 	movweq	r0, #13059	; 0x3303
 2001008:	03030303 	movweq	r0, #13059	; 0x3303
 200100c:	03030303 	movweq	r0, #13059	; 0x3303
 2001010:	03030303 	movweq	r0, #13059	; 0x3303
 2001014:	00000003 	andeq	r0, r0, r3
 2001018:	03030300 	movweq	r0, #13056	; 0x3300
 200101c:	03030003 	movweq	r0, #12291	; 0x3003
 2001020:	03030003 	movweq	r0, #12291	; 0x3003
 2001024:	03030003 	movweq	r0, #12291	; 0x3003
 2001028:	03000303 	movweq	r0, #771	; 0x303
 200102c:	03030003 	movweq	r0, #12291	; 0x3003
 2001030:	03000303 	movweq	r0, #771	; 0x303
 2001034:	03030003 	movweq	r0, #12291	; 0x3003
 2001038:	03000303 	movweq	r0, #771	; 0x303
 200103c:	00000003 	andeq	r0, r0, r3
 2001040:	03030000 	movweq	r0, #12288	; 0x3000
 2001044:	03030303 	movweq	r0, #13059	; 0x3303
 2001048:	03030303 	movweq	r0, #13059	; 0x3303
 200104c:	03030303 	movweq	r0, #13059	; 0x3303
 2001050:	03030303 	movweq	r0, #13059	; 0x3303
 2001054:	00000003 	andeq	r0, r0, r3
 2001058:	03030000 	movweq	r0, #12288	; 0x3000
 200105c:	03030003 	movweq	r0, #12291	; 0x3003
 2001060:	03030303 	movweq	r0, #13059	; 0x3303
 2001064:	00000003 	andeq	r0, r0, r3
 2001068:	03030300 	movweq	r0, #13056	; 0x3300
 200106c:	03030003 	movweq	r0, #12291	; 0x3003
 2001070:	03030303 	movweq	r0, #13059	; 0x3303
 2001074:	03030003 	movweq	r0, #12291	; 0x3003
 2001078:	03030303 	movweq	r0, #13059	; 0x3303
 200107c:	00000003 	andeq	r0, r0, r3
 2001080:	03030000 	movweq	r0, #12288	; 0x3000
 2001084:	03030303 	movweq	r0, #13059	; 0x3303
 2001088:	03030303 	movweq	r0, #13059	; 0x3303
 200108c:	03030303 	movweq	r0, #13059	; 0x3303
 2001090:	03030303 	movweq	r0, #13059	; 0x3303
 2001094:	00000003 	andeq	r0, r0, r3
 2001098:	03000000 	movweq	r0, #0
 200109c:	03030003 	movweq	r0, #12291	; 0x3003
 20010a0:	03030303 	movweq	r0, #13059	; 0x3303
 20010a4:	00000003 	andeq	r0, r0, r3
 20010a8:	03030300 	movweq	r0, #13056	; 0x3300
 20010ac:	03030003 	movweq	r0, #12291	; 0x3003
 20010b0:	03030303 	movweq	r0, #13059	; 0x3303
 20010b4:	03030003 	movweq	r0, #12291	; 0x3003
 20010b8:	03030303 	movweq	r0, #13059	; 0x3303
 20010bc:	03030003 	movweq	r0, #12291	; 0x3003
 20010c0:	03030303 	movweq	r0, #13059	; 0x3303
 20010c4:	03030303 	movweq	r0, #13059	; 0x3303
 20010c8:	03030303 	movweq	r0, #13059	; 0x3303
 20010cc:	03030303 	movweq	r0, #13059	; 0x3303
 20010d0:	03030303 	movweq	r0, #13059	; 0x3303
 20010d4:	00000303 	andeq	r0, r0, r3, lsl #6
 20010d8:	03030000 	movweq	r0, #12288	; 0x3000
 20010dc:	03030003 	movweq	r0, #12291	; 0x3003
 20010e0:	03000303 	movweq	r0, #771	; 0x303
 20010e4:	03030003 	movweq	r0, #12291	; 0x3003
 20010e8:	03000303 	movweq	r0, #771	; 0x303
 20010ec:	00030003 	andeq	r0, r3, r3
 20010f0:	03000300 	movweq	r0, #768	; 0x300
 20010f4:	00030003 	andeq	r0, r3, r3
 20010f8:	03000300 	movweq	r0, #768	; 0x300
 20010fc:	03000303 	movweq	r0, #771	; 0x303
 2001100:	03030000 	movweq	r0, #12288	; 0x3000
 2001104:	03030303 	movweq	r0, #13059	; 0x3303
 2001108:	03030303 	movweq	r0, #13059	; 0x3303
 200110c:	03030303 	movweq	r0, #13059	; 0x3303
 2001110:	03030303 	movweq	r0, #13059	; 0x3303
 2001114:	03030303 	movweq	r0, #13059	; 0x3303
 2001118:	03030303 	movweq	r0, #13059	; 0x3303
 200111c:	03030303 	movweq	r0, #13059	; 0x3303
 2001120:	03030303 	movweq	r0, #13059	; 0x3303
 2001124:	03030303 	movweq	r0, #13059	; 0x3303
 2001128:	03030303 	movweq	r0, #13059	; 0x3303
 200112c:	03030303 	movweq	r0, #13059	; 0x3303
 2001130:	03030303 	movweq	r0, #13059	; 0x3303
 2001134:	03030303 	movweq	r0, #13059	; 0x3303
 2001138:	03030303 	movweq	r0, #13059	; 0x3303
 200113c:	03030303 	movweq	r0, #13059	; 0x3303
 2001140:	03030303 	movweq	r0, #13059	; 0x3303
 2001144:	03030303 	movweq	r0, #13059	; 0x3303
 2001148:	03030303 	movweq	r0, #13059	; 0x3303
 200114c:	02020303 	andeq	r0, r2, #201326592	; 0xc000000
 2001150:	03030202 	movweq	r0, #12802	; 0x3202
 2001154:	02020203 	andeq	r0, r2, #805306368	; 0x30000000
 2001158:	03020202 	movweq	r0, #8706	; 0x2202
 200115c:	03000202 	movweq	r0, #514	; 0x202
 2001160:	02030002 	andeq	r0, r3, #2
 2001164:	03030202 	movweq	r0, #12802	; 0x3202
 2001168:	02030302 	andeq	r0, r3, #134217728	; 0x8000000
 200116c:	02020202 	andeq	r0, r2, #536870912	; 0x20000000
 2001170:	02020202 	andeq	r0, r2, #536870912	; 0x20000000
 2001174:	02020202 	andeq	r0, r2, #536870912	; 0x20000000
 2001178:	02020202 	andeq	r0, r2, #536870912	; 0x20000000
 200117c:	02020202 	andeq	r0, r2, #536870912	; 0x20000000
 2001180:	02020202 	andeq	r0, r2, #536870912	; 0x20000000
 2001184:	02030202 	andeq	r0, r3, #536870912	; 0x20000000
 2001188:	02020302 	andeq	r0, r2, #134217728	; 0x8000000
 200118c:	01010303 	tsteq	r1, r3, lsl #6
 2001190:	03030101 	movweq	r0, #12545	; 0x3101
 2001194:	01010103 	tsteq	r1, r3, lsl #2
 2001198:	03010101 	movweq	r0, #4353	; 0x1101
 200119c:	01000101 	tsteq	r0, r1, lsl #2
 20011a0:	03030101 	movweq	r0, #12545	; 0x3101
 20011a4:	01010101 	tsteq	r1, r1, lsl #2
 20011a8:	03030301 	movweq	r0, #13057	; 0x3301
 20011ac:	01010101 	tsteq	r1, r1, lsl #2
 20011b0:	03030301 	movweq	r0, #13057	; 0x3301
 20011b4:	01010101 	tsteq	r1, r1, lsl #2
 20011b8:	03030101 	movweq	r0, #12545	; 0x3101
 20011bc:	01010103 	tsteq	r1, r3, lsl #2
 20011c0:	03010101 	movweq	r0, #4353	; 0x1101
 20011c4:	01010303 	tsteq	r1, r3, lsl #6
 20011c8:	03030101 	movweq	r0, #12545	; 0x3101
 20011cc:	01030303 	tsteq	r3, r3, lsl #6
 20011d0:	03030301 	movweq	r0, #13057	; 0x3301
 20011d4:	01030303 	tsteq	r3, r3, lsl #6
 20011d8:	03030301 	movweq	r0, #13057	; 0x3301
 20011dc:	01000303 	tsteq	r0, r3, lsl #6
 20011e0:	03030001 	movweq	r0, #12289	; 0x3001
 20011e4:	01000300 	mrseq	r0, LR_irq
 20011e8:	00030001 	andeq	r0, r3, r1
 20011ec:	01010100 	mrseq	r0, (UNDEF: 17)
 20011f0:	00010101 	andeq	r0, r1, r1, lsl #2
 20011f4:	00010101 	andeq	r0, r1, r1, lsl #2
 20011f8:	01010100 	mrseq	r0, (UNDEF: 17)
 20011fc:	01000101 	tsteq	r0, r1, lsl #2
 2001200:	01010001 	tsteq	r1, r1
 2001204:	01030101 	tsteq	r3, r1, lsl #2
 2001208:	01010301 	tsteq	r1, r1, lsl #6
 200120c:	02020202 	andeq	r0, r2, #536870912	; 0x20000000
 2001210:	02020202 	andeq	r0, r2, #536870912	; 0x20000000
 2001214:	02020202 	andeq	r0, r2, #536870912	; 0x20000000
 2001218:	02020202 	andeq	r0, r2, #536870912	; 0x20000000
 200121c:	02000002 	andeq	r0, r0, #2
 2001220:	02000002 	andeq	r0, r0, #2
 2001224:	02000002 	andeq	r0, r0, #2
 2001228:	02000002 	andeq	r0, r0, #2
 200122c:	00020202 	andeq	r0, r2, r2, lsl #4
 2001230:	02020200 	andeq	r0, r2, #0, 4
 2001234:	00000202 	andeq	r0, r0, r2, lsl #4
 2001238:	02020000 	andeq	r0, r2, #0
 200123c:	00000202 	andeq	r0, r0, r2, lsl #4
 2001240:	02020000 	andeq	r0, r2, #0
 2001244:	02000202 	andeq	r0, r0, #536870912	; 0x20000000
 2001248:	02020002 	andeq	r0, r2, #2
 200124c:	01010303 	tsteq	r1, r3, lsl #6
 2001250:	03030101 	movweq	r0, #12545	; 0x3101
 2001254:	01010103 	tsteq	r1, r3, lsl #2
 2001258:	03010101 	movweq	r0, #4353	; 0x1101
 200125c:	01000101 	tsteq	r0, r1, lsl #2
 2001260:	01010001 	tsteq	r1, r1
 2001264:	01000101 	tsteq	r0, r1, lsl #2
 2001268:	01010001 	tsteq	r1, r1
 200126c:	01010101 	tsteq	r1, r1, lsl #2
 2001270:	01010101 	tsteq	r1, r1, lsl #2
 2001274:	01010001 	tsteq	r1, r1
 2001278:	01000101 	tsteq	r0, r1, lsl #2
 200127c:	00000103 	andeq	r0, r0, r3, lsl #2
 2001280:	03010000 	movweq	r0, #4096	; 0x1000
 2001284:	01010303 	tsteq	r1, r3, lsl #6
 2001288:	03030101 	movweq	r0, #12545	; 0x3101
 200128c:	00000303 	andeq	r0, r0, r3, lsl #6
 2001290:	03030000 	movweq	r0, #12288	; 0x3000
 2001294:	02020003 	andeq	r0, r2, #3
 2001298:	03000101 	movweq	r0, #257	; 0x101
 200129c:	01010200 	mrseq	r0, R9_usr
 20012a0:	00010101 	andeq	r0, r1, r1, lsl #2
 20012a4:	00010100 	andeq	r0, r1, r0, lsl #2
 20012a8:	00010100 	andeq	r0, r1, r0, lsl #2
 20012ac:	03000100 	movweq	r0, #256	; 0x100
 20012b0:	00010003 	andeq	r0, r1, r3
 20012b4:	03010200 	movweq	r0, #4608	; 0x1200
 20012b8:	00020103 	andeq	r0, r2, r3, lsl #2
 20012bc:	01020003 	tsteq	r2, r3
 20012c0:	03000201 	movweq	r0, #513	; 0x201
 20012c4:	00000303 	andeq	r0, r0, r3, lsl #6
 20012c8:	03030000 	movweq	r0, #12288	; 0x3000
 20012cc:	01010303 	tsteq	r1, r3, lsl #6
 20012d0:	03030101 	movweq	r0, #12545	; 0x3101
 20012d4:	01010103 	tsteq	r1, r3, lsl #2
 20012d8:	03010101 	movweq	r0, #4353	; 0x1101
 20012dc:	01030301 	tsteq	r3, r1, lsl #6
 20012e0:	01030301 	tsteq	r3, r1, lsl #6
 20012e4:	01000301 	tsteq	r0, r1, lsl #6
 20012e8:	01030001 	tsteq	r3, r1
 20012ec:	01010101 	tsteq	r1, r1, lsl #2
 20012f0:	01010101 	tsteq	r1, r1, lsl #2
 20012f4:	00010101 	andeq	r0, r1, r1, lsl #2
 20012f8:	01010100 	mrseq	r0, (UNDEF: 17)
 20012fc:	00010103 	andeq	r0, r1, r3, lsl #2
 2001300:	03010100 	movweq	r0, #4352	; 0x1100
 2001304:	01010303 	tsteq	r1, r3, lsl #6
 2001308:	03030101 	movweq	r0, #12545	; 0x3101
 200130c:	00000303 	andeq	r0, r0, r3, lsl #6
 2001310:	03030000 	movweq	r0, #12288	; 0x3000
 2001314:	01010003 	tsteq	r1, r3
 2001318:	03000202 	movweq	r0, #514	; 0x202
 200131c:	01020200 	mrseq	r0, R10_usr
 2001320:	00010202 	andeq	r0, r1, r2, lsl #4
 2001324:	01020200 	mrseq	r0, R10_usr
 2001328:	00010101 	andeq	r0, r1, r1, lsl #2
 200132c:	01010100 	mrseq	r0, (UNDEF: 17)
 2001330:	00020201 	andeq	r0, r2, r1, lsl #4
 2001334:	03000100 	movweq	r0, #256	; 0x100
 2001338:	00020003 	andeq	r0, r2, r3
 200133c:	03030003 	movweq	r0, #12291	; 0x3003
 2001340:	03000303 	movweq	r0, #771	; 0x303
 2001344:	00000303 	andeq	r0, r0, r3, lsl #6
 2001348:	03030000 	movweq	r0, #12288	; 0x3000
 200134c:	03020203 	movweq	r0, #8707	; 0x2203
 2001350:	03030303 	movweq	r0, #13059	; 0x3303
 2001354:	03030202 	movweq	r0, #12802	; 0x3202
 2001358:	03000300 	movweq	r0, #768	; 0x300
 200135c:	03030103 	movweq	r0, #12547	; 0x3103
 2001360:	03000300 	movweq	r0, #768	; 0x300
 2001364:	03030203 	movweq	r0, #12803	; 0x3203
 2001368:	03030303 	movweq	r0, #13059	; 0x3303
 200136c:	03020203 	movweq	r0, #8707	; 0x2203
 2001370:	03030303 	movweq	r0, #13059	; 0x3303
 2001374:	01010202 	tsteq	r1, r2, lsl #4
 2001378:	03010303 	movweq	r0, #4867	; 0x1303
 200137c:	02020102 	andeq	r0, r2, #-2147483648	; 0x80000000
 2001380:	01020202 	tsteq	r2, r2, lsl #4
 2001384:	00000003 	andeq	r0, r0, r3
 2001388:	00000003 	andeq	r0, r0, r3
	...
 200139c:	01010101 	tsteq	r1, r1, lsl #2
 20013a0:	01010101 	tsteq	r1, r1, lsl #2
 20013a4:	01010101 	tsteq	r1, r1, lsl #2
 20013a8:	01010101 	tsteq	r1, r1, lsl #2
 20013ac:	02020202 	andeq	r0, r2, #536870912	; 0x20000000
 20013b0:	02020202 	andeq	r0, r2, #536870912	; 0x20000000
 20013b4:	02020202 	andeq	r0, r2, #536870912	; 0x20000000
 20013b8:	02020202 	andeq	r0, r2, #536870912	; 0x20000000
 20013bc:	03030303 	movweq	r0, #13059	; 0x3303
 20013c0:	03030303 	movweq	r0, #13059	; 0x3303
 20013c4:	03030303 	movweq	r0, #13059	; 0x3303
 20013c8:	03030303 	movweq	r0, #13059	; 0x3303
 20013cc:	03030303 	movweq	r0, #13059	; 0x3303
 20013d0:	03030303 	movweq	r0, #13059	; 0x3303
 20013d4:	03030303 	movweq	r0, #13059	; 0x3303
 20013d8:	03030303 	movweq	r0, #13059	; 0x3303
 20013dc:	03030303 	movweq	r0, #13059	; 0x3303
 20013e0:	03030303 	movweq	r0, #13059	; 0x3303
 20013e4:	03030303 	movweq	r0, #13059	; 0x3303
 20013e8:	03030303 	movweq	r0, #13059	; 0x3303
 20013ec:	03030303 	movweq	r0, #13059	; 0x3303
 20013f0:	03030303 	movweq	r0, #13059	; 0x3303
 20013f4:	03030303 	movweq	r0, #13059	; 0x3303
 20013f8:	03030303 	movweq	r0, #13059	; 0x3303
 20013fc:	03030303 	movweq	r0, #13059	; 0x3303
 2001400:	03030303 	movweq	r0, #13059	; 0x3303
 2001404:	03030303 	movweq	r0, #13059	; 0x3303
 2001408:	03030303 	movweq	r0, #13059	; 0x3303
 200140c:	03030303 	movweq	r0, #13059	; 0x3303
 2001410:	03030303 	movweq	r0, #13059	; 0x3303
 2001414:	03030303 	movweq	r0, #13059	; 0x3303
 2001418:	03030303 	movweq	r0, #13059	; 0x3303
 200141c:	03030303 	movweq	r0, #13059	; 0x3303
 2001420:	03030303 	movweq	r0, #13059	; 0x3303
 2001424:	03030303 	movweq	r0, #13059	; 0x3303
 2001428:	03030303 	movweq	r0, #13059	; 0x3303
 200142c:	03030303 	movweq	r0, #13059	; 0x3303
 2001430:	03030303 	movweq	r0, #13059	; 0x3303
 2001434:	03030303 	movweq	r0, #13059	; 0x3303
 2001438:	03030303 	movweq	r0, #13059	; 0x3303
 200143c:	03030303 	movweq	r0, #13059	; 0x3303
 2001440:	03030303 	movweq	r0, #13059	; 0x3303
 2001444:	03030303 	movweq	r0, #13059	; 0x3303
 2001448:	03030303 	movweq	r0, #13059	; 0x3303
 200144c:	03030303 	movweq	r0, #13059	; 0x3303
 2001450:	03030303 	movweq	r0, #13059	; 0x3303
 2001454:	03030303 	movweq	r0, #13059	; 0x3303
 2001458:	03030303 	movweq	r0, #13059	; 0x3303
 200145c:	03030303 	movweq	r0, #13059	; 0x3303
 2001460:	03030303 	movweq	r0, #13059	; 0x3303
 2001464:	03030303 	movweq	r0, #13059	; 0x3303
 2001468:	03030303 	movweq	r0, #13059	; 0x3303
 200146c:	03030303 	movweq	r0, #13059	; 0x3303
 2001470:	03030303 	movweq	r0, #13059	; 0x3303
 2001474:	03030303 	movweq	r0, #13059	; 0x3303
 2001478:	03030303 	movweq	r0, #13059	; 0x3303
 200147c:	03030303 	movweq	r0, #13059	; 0x3303
 2001480:	03030303 	movweq	r0, #13059	; 0x3303
 2001484:	03030303 	movweq	r0, #13059	; 0x3303
 2001488:	03030303 	movweq	r0, #13059	; 0x3303
 200148c:	03030303 	movweq	r0, #13059	; 0x3303
 2001490:	03030303 	movweq	r0, #13059	; 0x3303
 2001494:	03030303 	movweq	r0, #13059	; 0x3303
 2001498:	03030303 	movweq	r0, #13059	; 0x3303
 200149c:	03030303 	movweq	r0, #13059	; 0x3303
 20014a0:	03030303 	movweq	r0, #13059	; 0x3303
 20014a4:	03030303 	movweq	r0, #13059	; 0x3303
 20014a8:	03030303 	movweq	r0, #13059	; 0x3303
 20014ac:	03030303 	movweq	r0, #13059	; 0x3303
 20014b0:	03030303 	movweq	r0, #13059	; 0x3303
 20014b4:	03030303 	movweq	r0, #13059	; 0x3303
 20014b8:	03030303 	movweq	r0, #13059	; 0x3303
 20014bc:	03030303 	movweq	r0, #13059	; 0x3303
 20014c0:	03030303 	movweq	r0, #13059	; 0x3303
 20014c4:	03030303 	movweq	r0, #13059	; 0x3303
 20014c8:	03030303 	movweq	r0, #13059	; 0x3303
 20014cc:	03030303 	movweq	r0, #13059	; 0x3303
 20014d0:	03030303 	movweq	r0, #13059	; 0x3303
 20014d4:	03030303 	movweq	r0, #13059	; 0x3303
 20014d8:	03030303 	movweq	r0, #13059	; 0x3303
 20014dc:	03030303 	movweq	r0, #13059	; 0x3303
 20014e0:	03030303 	movweq	r0, #13059	; 0x3303
 20014e4:	03030303 	movweq	r0, #13059	; 0x3303
 20014e8:	03030303 	movweq	r0, #13059	; 0x3303
 20014ec:	03030303 	movweq	r0, #13059	; 0x3303
 20014f0:	03030303 	movweq	r0, #13059	; 0x3303
 20014f4:	03030303 	movweq	r0, #13059	; 0x3303
 20014f8:	03030303 	movweq	r0, #13059	; 0x3303
 20014fc:	03030303 	movweq	r0, #13059	; 0x3303
 2001500:	03030303 	movweq	r0, #13059	; 0x3303
 2001504:	03030303 	movweq	r0, #13059	; 0x3303
 2001508:	03030303 	movweq	r0, #13059	; 0x3303
 200150c:	03030303 	movweq	r0, #13059	; 0x3303
 2001510:	03030303 	movweq	r0, #13059	; 0x3303
 2001514:	00030303 	andeq	r0, r3, r3, lsl #6
 2001518:	03030300 	movweq	r0, #13056	; 0x3300
 200151c:	00030303 	andeq	r0, r3, r3, lsl #6
 2001520:	03030300 	movweq	r0, #13056	; 0x3300
 2001524:	00030303 	andeq	r0, r3, r3, lsl #6
 2001528:	03030300 	movweq	r0, #13056	; 0x3300
 200152c:	03030303 	movweq	r0, #13059	; 0x3303
 2001530:	03030303 	movweq	r0, #13059	; 0x3303
 2001534:	00030303 	andeq	r0, r3, r3, lsl #6
 2001538:	03030300 	movweq	r0, #13056	; 0x3300
 200153c:	00030303 	andeq	r0, r3, r3, lsl #6
 2001540:	03030300 	movweq	r0, #13056	; 0x3300
 2001544:	03030303 	movweq	r0, #13059	; 0x3303
 2001548:	03030303 	movweq	r0, #13059	; 0x3303
 200154c:	03030303 	movweq	r0, #13059	; 0x3303
 2001550:	03030303 	movweq	r0, #13059	; 0x3303
 2001554:	03000003 	movweq	r0, #3
 2001558:	03000003 	movweq	r0, #3
 200155c:	03000003 	movweq	r0, #3
 2001560:	03000003 	movweq	r0, #3
 2001564:	03030303 	movweq	r0, #13059	; 0x3303
 2001568:	03030303 	movweq	r0, #13059	; 0x3303
 200156c:	03030303 	movweq	r0, #13059	; 0x3303
 2001570:	03030303 	movweq	r0, #13059	; 0x3303
 2001574:	03030303 	movweq	r0, #13059	; 0x3303
 2001578:	03030303 	movweq	r0, #13059	; 0x3303
 200157c:	03030303 	movweq	r0, #13059	; 0x3303
 2001580:	03030303 	movweq	r0, #13059	; 0x3303
 2001584:	03030303 	movweq	r0, #13059	; 0x3303
 2001588:	03030303 	movweq	r0, #13059	; 0x3303
 200158c:	03030303 	movweq	r0, #13059	; 0x3303
 2001590:	03030303 	movweq	r0, #13059	; 0x3303
 2001594:	03000303 	movweq	r0, #771	; 0x303
 2001598:	03030003 	movweq	r0, #12291	; 0x3003
 200159c:	00000003 	andeq	r0, r0, r3
 20015a0:	03000000 	movweq	r0, #0
 20015a4:	03000303 	movweq	r0, #771	; 0x303
 20015a8:	03030003 	movweq	r0, #12291	; 0x3003
 20015ac:	03000303 	movweq	r0, #771	; 0x303
 20015b0:	03030003 	movweq	r0, #12291	; 0x3003
 20015b4:	00000003 	andeq	r0, r0, r3
 20015b8:	03000000 	movweq	r0, #0
 20015bc:	03000303 	movweq	r0, #771	; 0x303
 20015c0:	03030003 	movweq	r0, #12291	; 0x3003
 20015c4:	03030303 	movweq	r0, #13059	; 0x3303
 20015c8:	03030303 	movweq	r0, #13059	; 0x3303
 20015cc:	00030303 	andeq	r0, r3, r3, lsl #6
 20015d0:	03030003 	movweq	r0, #12291	; 0x3003
 20015d4:	00000303 	andeq	r0, r0, r3, lsl #6
 20015d8:	03000000 	movweq	r0, #0
 20015dc:	00030003 	andeq	r0, r3, r3
 20015e0:	03030003 	movweq	r0, #12291	; 0x3003
 20015e4:	00000303 	andeq	r0, r0, r3, lsl #6
 20015e8:	03030000 	movweq	r0, #12288	; 0x3000
 20015ec:	00030303 	andeq	r0, r3, r3, lsl #6
 20015f0:	03000003 	movweq	r0, #3
 20015f4:	00030303 	andeq	r0, r3, r3, lsl #6
 20015f8:	03000003 	movweq	r0, #3
 20015fc:	00000003 	andeq	r0, r0, r3
 2001600:	03030000 	movweq	r0, #12288	; 0x3000
 2001604:	00030303 	andeq	r0, r3, r3, lsl #6
 2001608:	03030003 	movweq	r0, #12291	; 0x3003
 200160c:	03030303 	movweq	r0, #13059	; 0x3303
 2001610:	03030303 	movweq	r0, #13059	; 0x3303
 2001614:	03000003 	movweq	r0, #3
 2001618:	03000303 	movweq	r0, #771	; 0x303
 200161c:	03000003 	movweq	r0, #3
 2001620:	03030003 	movweq	r0, #12291	; 0x3003
 2001624:	03030303 	movweq	r0, #13059	; 0x3303
 2001628:	03030300 	movweq	r0, #13056	; 0x3300
 200162c:	00030303 	andeq	r0, r3, r3, lsl #6
 2001630:	03030303 	movweq	r0, #13059	; 0x3303
 2001634:	03000303 	movweq	r0, #771	; 0x303
 2001638:	03000003 	movweq	r0, #3
 200163c:	03030003 	movweq	r0, #12291	; 0x3003
 2001640:	03000003 	movweq	r0, #3
 2001644:	03030303 	movweq	r0, #13059	; 0x3303
 2001648:	03030303 	movweq	r0, #13059	; 0x3303
 200164c:	03030303 	movweq	r0, #13059	; 0x3303
 2001650:	03030303 	movweq	r0, #13059	; 0x3303
 2001654:	00030303 	andeq	r0, r3, r3, lsl #6
 2001658:	03030303 	movweq	r0, #13059	; 0x3303
 200165c:	03000303 	movweq	r0, #771	; 0x303
 2001660:	03030300 	movweq	r0, #13056	; 0x3300
 2001664:	00030303 	andeq	r0, r3, r3, lsl #6
 2001668:	03030303 	movweq	r0, #13059	; 0x3303
 200166c:	03000303 	movweq	r0, #771	; 0x303
 2001670:	03000300 	movweq	r0, #768	; 0x300
 2001674:	03000303 	movweq	r0, #771	; 0x303
 2001678:	03030003 	movweq	r0, #12291	; 0x3003
 200167c:	00030303 	andeq	r0, r3, r3, lsl #6
 2001680:	03000300 	movweq	r0, #768	; 0x300
 2001684:	03030303 	movweq	r0, #13059	; 0x3303
 2001688:	03030303 	movweq	r0, #13059	; 0x3303
 200168c:	03030303 	movweq	r0, #13059	; 0x3303
 2001690:	03030303 	movweq	r0, #13059	; 0x3303
 2001694:	00030303 	andeq	r0, r3, r3, lsl #6
 2001698:	03030300 	movweq	r0, #13056	; 0x3300
 200169c:	00030303 	andeq	r0, r3, r3, lsl #6
 20016a0:	03030300 	movweq	r0, #13056	; 0x3300
 20016a4:	03030303 	movweq	r0, #13059	; 0x3303
 20016a8:	03030303 	movweq	r0, #13059	; 0x3303
 20016ac:	03030303 	movweq	r0, #13059	; 0x3303
 20016b0:	03030303 	movweq	r0, #13059	; 0x3303
 20016b4:	03030303 	movweq	r0, #13059	; 0x3303
 20016b8:	03030303 	movweq	r0, #13059	; 0x3303
 20016bc:	03030303 	movweq	r0, #13059	; 0x3303
 20016c0:	03030303 	movweq	r0, #13059	; 0x3303
 20016c4:	03030303 	movweq	r0, #13059	; 0x3303
 20016c8:	03030303 	movweq	r0, #13059	; 0x3303
 20016cc:	03030303 	movweq	r0, #13059	; 0x3303
 20016d0:	03030303 	movweq	r0, #13059	; 0x3303
 20016d4:	00030303 	andeq	r0, r3, r3, lsl #6
 20016d8:	03030000 	movweq	r0, #12288	; 0x3000
 20016dc:	03000303 	movweq	r0, #771	; 0x303
 20016e0:	03030303 	movweq	r0, #13059	; 0x3303
 20016e4:	03000303 	movweq	r0, #771	; 0x303
 20016e8:	03030303 	movweq	r0, #13059	; 0x3303
 20016ec:	03000303 	movweq	r0, #771	; 0x303
 20016f0:	03030303 	movweq	r0, #13059	; 0x3303
 20016f4:	03000303 	movweq	r0, #771	; 0x303
 20016f8:	03030303 	movweq	r0, #13059	; 0x3303
 20016fc:	00030303 	andeq	r0, r3, r3, lsl #6
 2001700:	03030000 	movweq	r0, #12288	; 0x3000
 2001704:	03030303 	movweq	r0, #13059	; 0x3303
 2001708:	03030303 	movweq	r0, #13059	; 0x3303
 200170c:	03030303 	movweq	r0, #13059	; 0x3303
 2001710:	03030303 	movweq	r0, #13059	; 0x3303
 2001714:	00000303 	andeq	r0, r0, r3, lsl #6
 2001718:	03030300 	movweq	r0, #13056	; 0x3300
 200171c:	03030303 	movweq	r0, #13059	; 0x3303
 2001720:	03030003 	movweq	r0, #12291	; 0x3003
 2001724:	03030303 	movweq	r0, #13059	; 0x3303
 2001728:	03030003 	movweq	r0, #12291	; 0x3003
 200172c:	03030303 	movweq	r0, #13059	; 0x3303
 2001730:	03030003 	movweq	r0, #12291	; 0x3003
 2001734:	03030303 	movweq	r0, #13059	; 0x3303
 2001738:	03030003 	movweq	r0, #12291	; 0x3003
 200173c:	00000303 	andeq	r0, r0, r3, lsl #6
 2001740:	03030300 	movweq	r0, #13056	; 0x3300
 2001744:	03030303 	movweq	r0, #13059	; 0x3303
 2001748:	03030303 	movweq	r0, #13059	; 0x3303
 200174c:	03030303 	movweq	r0, #13059	; 0x3303
 2001750:	03030303 	movweq	r0, #13059	; 0x3303
 2001754:	00030303 	andeq	r0, r3, r3, lsl #6
 2001758:	03030300 	movweq	r0, #13056	; 0x3300
 200175c:	00000003 	andeq	r0, r0, r3
 2001760:	03000000 	movweq	r0, #0
 2001764:	00000303 	andeq	r0, r0, r3, lsl #6
 2001768:	03030000 	movweq	r0, #12288	; 0x3000
 200176c:	00000303 	andeq	r0, r0, r3, lsl #6
 2001770:	03030000 	movweq	r0, #12288	; 0x3000
 2001774:	03000003 	movweq	r0, #3
 2001778:	03000003 	movweq	r0, #3
 200177c:	03030003 	movweq	r0, #12291	; 0x3003
 2001780:	03000303 	movweq	r0, #771	; 0x303
 2001784:	03030303 	movweq	r0, #13059	; 0x3303
 2001788:	03030303 	movweq	r0, #13059	; 0x3303
 200178c:	03030303 	movweq	r0, #13059	; 0x3303
 2001790:	03030303 	movweq	r0, #13059	; 0x3303
 2001794:	03030303 	movweq	r0, #13059	; 0x3303
 2001798:	03030303 	movweq	r0, #13059	; 0x3303
 200179c:	00030303 	andeq	r0, r3, r3, lsl #6
 20017a0:	03030303 	movweq	r0, #13059	; 0x3303
 20017a4:	00030303 	andeq	r0, r3, r3, lsl #6
 20017a8:	03030303 	movweq	r0, #13059	; 0x3303
 20017ac:	00000003 	andeq	r0, r0, r3
 20017b0:	03030000 	movweq	r0, #12288	; 0x3000
 20017b4:	00030303 	andeq	r0, r3, r3, lsl #6
 20017b8:	03030303 	movweq	r0, #13059	; 0x3303
 20017bc:	00030303 	andeq	r0, r3, r3, lsl #6
 20017c0:	03030303 	movweq	r0, #13059	; 0x3303
 20017c4:	03030303 	movweq	r0, #13059	; 0x3303
 20017c8:	03030303 	movweq	r0, #13059	; 0x3303
 20017cc:	03030303 	movweq	r0, #13059	; 0x3303
 20017d0:	03030303 	movweq	r0, #13059	; 0x3303
 20017d4:	03030303 	movweq	r0, #13059	; 0x3303
 20017d8:	03030303 	movweq	r0, #13059	; 0x3303
 20017dc:	03030303 	movweq	r0, #13059	; 0x3303
 20017e0:	03030303 	movweq	r0, #13059	; 0x3303
 20017e4:	03030303 	movweq	r0, #13059	; 0x3303
 20017e8:	03030303 	movweq	r0, #13059	; 0x3303
 20017ec:	03030303 	movweq	r0, #13059	; 0x3303
 20017f0:	03030303 	movweq	r0, #13059	; 0x3303
 20017f4:	00030303 	andeq	r0, r3, r3, lsl #6
 20017f8:	03030300 	movweq	r0, #13056	; 0x3300
 20017fc:	00030303 	andeq	r0, r3, r3, lsl #6
 2001800:	03030300 	movweq	r0, #13056	; 0x3300
 2001804:	03030303 	movweq	r0, #13059	; 0x3303
 2001808:	03030300 	movweq	r0, #13056	; 0x3300
 200180c:	03030303 	movweq	r0, #13059	; 0x3303
 2001810:	03030303 	movweq	r0, #13059	; 0x3303
 2001814:	03030303 	movweq	r0, #13059	; 0x3303
 2001818:	03030303 	movweq	r0, #13059	; 0x3303
 200181c:	03030303 	movweq	r0, #13059	; 0x3303
 2001820:	03030303 	movweq	r0, #13059	; 0x3303
 2001824:	03030303 	movweq	r0, #13059	; 0x3303
 2001828:	03030303 	movweq	r0, #13059	; 0x3303
 200182c:	00000003 	andeq	r0, r0, r3
 2001830:	03030000 	movweq	r0, #12288	; 0x3000
 2001834:	03030303 	movweq	r0, #13059	; 0x3303
 2001838:	03030303 	movweq	r0, #13059	; 0x3303
 200183c:	03030303 	movweq	r0, #13059	; 0x3303
 2001840:	03030303 	movweq	r0, #13059	; 0x3303
 2001844:	03030303 	movweq	r0, #13059	; 0x3303
 2001848:	03030303 	movweq	r0, #13059	; 0x3303
 200184c:	03030303 	movweq	r0, #13059	; 0x3303
 2001850:	03030303 	movweq	r0, #13059	; 0x3303
 2001854:	03030303 	movweq	r0, #13059	; 0x3303
 2001858:	03030303 	movweq	r0, #13059	; 0x3303
 200185c:	03030303 	movweq	r0, #13059	; 0x3303
 2001860:	03030303 	movweq	r0, #13059	; 0x3303
 2001864:	03030303 	movweq	r0, #13059	; 0x3303
 2001868:	03030303 	movweq	r0, #13059	; 0x3303
 200186c:	03030303 	movweq	r0, #13059	; 0x3303
 2001870:	03030303 	movweq	r0, #13059	; 0x3303
 2001874:	00030303 	andeq	r0, r3, r3, lsl #6
 2001878:	03030300 	movweq	r0, #13056	; 0x3300
 200187c:	00030303 	andeq	r0, r3, r3, lsl #6
 2001880:	03030300 	movweq	r0, #13056	; 0x3300
 2001884:	03030303 	movweq	r0, #13059	; 0x3303
 2001888:	03030303 	movweq	r0, #13059	; 0x3303
 200188c:	03030303 	movweq	r0, #13059	; 0x3303
 2001890:	03030303 	movweq	r0, #13059	; 0x3303
 2001894:	03030303 	movweq	r0, #13059	; 0x3303
 2001898:	03030300 	movweq	r0, #13056	; 0x3300
 200189c:	03030303 	movweq	r0, #13059	; 0x3303
 20018a0:	03030300 	movweq	r0, #13056	; 0x3300
 20018a4:	00030303 	andeq	r0, r3, r3, lsl #6
 20018a8:	03030303 	movweq	r0, #13059	; 0x3303
 20018ac:	00030303 	andeq	r0, r3, r3, lsl #6
 20018b0:	03030303 	movweq	r0, #13059	; 0x3303
 20018b4:	03000303 	movweq	r0, #771	; 0x303
 20018b8:	03030303 	movweq	r0, #13059	; 0x3303
 20018bc:	03000303 	movweq	r0, #771	; 0x303
 20018c0:	03030303 	movweq	r0, #13059	; 0x3303
 20018c4:	03030303 	movweq	r0, #13059	; 0x3303
 20018c8:	03030303 	movweq	r0, #13059	; 0x3303
 20018cc:	03030303 	movweq	r0, #13059	; 0x3303
 20018d0:	03030303 	movweq	r0, #13059	; 0x3303
 20018d4:	00030303 	andeq	r0, r3, r3, lsl #6
 20018d8:	03030300 	movweq	r0, #13056	; 0x3300
 20018dc:	03000303 	movweq	r0, #771	; 0x303
 20018e0:	03030003 	movweq	r0, #12291	; 0x3003
 20018e4:	03000303 	movweq	r0, #771	; 0x303
 20018e8:	03030000 	movweq	r0, #12288	; 0x3000
 20018ec:	00000303 	andeq	r0, r0, r3, lsl #6
 20018f0:	03030003 	movweq	r0, #12291	; 0x3003
 20018f4:	03000303 	movweq	r0, #771	; 0x303
 20018f8:	03030003 	movweq	r0, #12291	; 0x3003
 20018fc:	00030303 	andeq	r0, r3, r3, lsl #6
 2001900:	03030300 	movweq	r0, #13056	; 0x3300
 2001904:	03030303 	movweq	r0, #13059	; 0x3303
 2001908:	03030303 	movweq	r0, #13059	; 0x3303
 200190c:	03030303 	movweq	r0, #13059	; 0x3303
 2001910:	03030303 	movweq	r0, #13059	; 0x3303
 2001914:	00030303 	andeq	r0, r3, r3, lsl #6
 2001918:	03030303 	movweq	r0, #13059	; 0x3303
 200191c:	00000303 	andeq	r0, r0, r3, lsl #6
 2001920:	03030303 	movweq	r0, #13059	; 0x3303
 2001924:	00030303 	andeq	r0, r3, r3, lsl #6
 2001928:	03030303 	movweq	r0, #13059	; 0x3303
 200192c:	00030303 	andeq	r0, r3, r3, lsl #6
 2001930:	03030303 	movweq	r0, #13059	; 0x3303
 2001934:	00030303 	andeq	r0, r3, r3, lsl #6
 2001938:	03030303 	movweq	r0, #13059	; 0x3303
 200193c:	00000303 	andeq	r0, r0, r3, lsl #6
 2001940:	03030300 	movweq	r0, #13056	; 0x3300
 2001944:	03030303 	movweq	r0, #13059	; 0x3303
 2001948:	03030303 	movweq	r0, #13059	; 0x3303
 200194c:	03030303 	movweq	r0, #13059	; 0x3303
 2001950:	03030303 	movweq	r0, #13059	; 0x3303
 2001954:	00000303 	andeq	r0, r0, r3, lsl #6
 2001958:	03030300 	movweq	r0, #13056	; 0x3300
 200195c:	03030003 	movweq	r0, #12291	; 0x3003
 2001960:	03030003 	movweq	r0, #12291	; 0x3003
 2001964:	03030303 	movweq	r0, #13059	; 0x3303
 2001968:	03030003 	movweq	r0, #12291	; 0x3003
 200196c:	00000303 	andeq	r0, r0, r3, lsl #6
 2001970:	03030300 	movweq	r0, #13056	; 0x3300
 2001974:	03030003 	movweq	r0, #12291	; 0x3003
 2001978:	03030303 	movweq	r0, #13059	; 0x3303
 200197c:	00000003 	andeq	r0, r0, r3
 2001980:	03030000 	movweq	r0, #12288	; 0x3000
 2001984:	03030303 	movweq	r0, #13059	; 0x3303
 2001988:	03030303 	movweq	r0, #13059	; 0x3303
 200198c:	03030303 	movweq	r0, #13059	; 0x3303
 2001990:	03030303 	movweq	r0, #13059	; 0x3303
 2001994:	00000303 	andeq	r0, r0, r3, lsl #6
 2001998:	03030000 	movweq	r0, #12288	; 0x3000
 200199c:	03030003 	movweq	r0, #12291	; 0x3003
 20019a0:	03000303 	movweq	r0, #771	; 0x303
 20019a4:	00030303 	andeq	r0, r3, r3, lsl #6
 20019a8:	03030000 	movweq	r0, #12288	; 0x3000
 20019ac:	03030303 	movweq	r0, #13059	; 0x3303
 20019b0:	03000303 	movweq	r0, #771	; 0x303
 20019b4:	03030003 	movweq	r0, #12291	; 0x3003
 20019b8:	03000303 	movweq	r0, #771	; 0x303
 20019bc:	00000303 	andeq	r0, r0, r3, lsl #6
 20019c0:	03030000 	movweq	r0, #12288	; 0x3000
 20019c4:	03030303 	movweq	r0, #13059	; 0x3303
 20019c8:	03030303 	movweq	r0, #13059	; 0x3303
 20019cc:	03030303 	movweq	r0, #13059	; 0x3303
 20019d0:	03030303 	movweq	r0, #13059	; 0x3303
 20019d4:	03030303 	movweq	r0, #13059	; 0x3303
 20019d8:	03030003 	movweq	r0, #12291	; 0x3003
 20019dc:	03030303 	movweq	r0, #13059	; 0x3303
 20019e0:	03030000 	movweq	r0, #12288	; 0x3000
 20019e4:	00030303 	andeq	r0, r3, r3, lsl #6
 20019e8:	03030003 	movweq	r0, #12291	; 0x3003
 20019ec:	03000303 	movweq	r0, #771	; 0x303
 20019f0:	03030003 	movweq	r0, #12291	; 0x3003
 20019f4:	00000003 	andeq	r0, r0, r3
 20019f8:	03000000 	movweq	r0, #0
 20019fc:	03030303 	movweq	r0, #13059	; 0x3303
 2001a00:	03030003 	movweq	r0, #12291	; 0x3003
 2001a04:	03030303 	movweq	r0, #13059	; 0x3303
 2001a08:	03030303 	movweq	r0, #13059	; 0x3303
 2001a0c:	03030303 	movweq	r0, #13059	; 0x3303
 2001a10:	03030303 	movweq	r0, #13059	; 0x3303
 2001a14:	00000003 	andeq	r0, r0, r3
 2001a18:	03000000 	movweq	r0, #0
 2001a1c:	03030003 	movweq	r0, #12291	; 0x3003
 2001a20:	03030303 	movweq	r0, #13059	; 0x3303
 2001a24:	00000003 	andeq	r0, r0, r3
 2001a28:	03030000 	movweq	r0, #12288	; 0x3000
 2001a2c:	03030303 	movweq	r0, #13059	; 0x3303
 2001a30:	03000303 	movweq	r0, #771	; 0x303
 2001a34:	03030003 	movweq	r0, #12291	; 0x3003
 2001a38:	03000303 	movweq	r0, #771	; 0x303
 2001a3c:	00000303 	andeq	r0, r0, r3, lsl #6
 2001a40:	03030000 	movweq	r0, #12288	; 0x3000
 2001a44:	03030303 	movweq	r0, #13059	; 0x3303
 2001a48:	03030303 	movweq	r0, #13059	; 0x3303
 2001a4c:	03030303 	movweq	r0, #13059	; 0x3303
 2001a50:	03030303 	movweq	r0, #13059	; 0x3303
 2001a54:	00000303 	andeq	r0, r0, r3, lsl #6
 2001a58:	03030000 	movweq	r0, #12288	; 0x3000
 2001a5c:	03000303 	movweq	r0, #771	; 0x303
 2001a60:	03030303 	movweq	r0, #13059	; 0x3303
 2001a64:	00000303 	andeq	r0, r0, r3, lsl #6
 2001a68:	03030000 	movweq	r0, #12288	; 0x3000
 2001a6c:	03000303 	movweq	r0, #771	; 0x303
 2001a70:	03030003 	movweq	r0, #12291	; 0x3003
 2001a74:	03000303 	movweq	r0, #771	; 0x303
 2001a78:	03030003 	movweq	r0, #12291	; 0x3003
 2001a7c:	00000303 	andeq	r0, r0, r3, lsl #6
 2001a80:	03030000 	movweq	r0, #12288	; 0x3000
 2001a84:	03030303 	movweq	r0, #13059	; 0x3303
 2001a88:	03030303 	movweq	r0, #13059	; 0x3303
 2001a8c:	03030303 	movweq	r0, #13059	; 0x3303
 2001a90:	03030303 	movweq	r0, #13059	; 0x3303
 2001a94:	00000003 	andeq	r0, r0, r3
 2001a98:	03000000 	movweq	r0, #0
 2001a9c:	03030303 	movweq	r0, #13059	; 0x3303
 2001aa0:	03000303 	movweq	r0, #771	; 0x303
 2001aa4:	03030303 	movweq	r0, #13059	; 0x3303
 2001aa8:	03030003 	movweq	r0, #12291	; 0x3003
 2001aac:	03030303 	movweq	r0, #13059	; 0x3303
 2001ab0:	03030300 	movweq	r0, #13056	; 0x3300
 2001ab4:	00030303 	andeq	r0, r3, r3, lsl #6
 2001ab8:	03030303 	movweq	r0, #13059	; 0x3303
 2001abc:	00030303 	andeq	r0, r3, r3, lsl #6
 2001ac0:	03030303 	movweq	r0, #13059	; 0x3303
 2001ac4:	03030303 	movweq	r0, #13059	; 0x3303
 2001ac8:	03030303 	movweq	r0, #13059	; 0x3303
 2001acc:	03030303 	movweq	r0, #13059	; 0x3303
 2001ad0:	03030303 	movweq	r0, #13059	; 0x3303
 2001ad4:	00000303 	andeq	r0, r0, r3, lsl #6
 2001ad8:	03030000 	movweq	r0, #12288	; 0x3000
 2001adc:	03030003 	movweq	r0, #12291	; 0x3003
 2001ae0:	03000303 	movweq	r0, #771	; 0x303
 2001ae4:	00000303 	andeq	r0, r0, r3, lsl #6
 2001ae8:	03030000 	movweq	r0, #12288	; 0x3000
 2001aec:	03030003 	movweq	r0, #12291	; 0x3003
 2001af0:	03000303 	movweq	r0, #771	; 0x303
 2001af4:	03030003 	movweq	r0, #12291	; 0x3003
 2001af8:	03000303 	movweq	r0, #771	; 0x303
 2001afc:	00000303 	andeq	r0, r0, r3, lsl #6
 2001b00:	03030000 	movweq	r0, #12288	; 0x3000
 2001b04:	03030303 	movweq	r0, #13059	; 0x3303
 2001b08:	03030303 	movweq	r0, #13059	; 0x3303
 2001b0c:	03030303 	movweq	r0, #13059	; 0x3303
 2001b10:	03030303 	movweq	r0, #13059	; 0x3303
 2001b14:	00000303 	andeq	r0, r0, r3, lsl #6
 2001b18:	03030000 	movweq	r0, #12288	; 0x3000
 2001b1c:	03030003 	movweq	r0, #12291	; 0x3003
 2001b20:	03000303 	movweq	r0, #771	; 0x303
 2001b24:	03030003 	movweq	r0, #12291	; 0x3003
 2001b28:	03000303 	movweq	r0, #771	; 0x303
 2001b2c:	00000303 	andeq	r0, r0, r3, lsl #6
 2001b30:	03000000 	movweq	r0, #0
 2001b34:	03030303 	movweq	r0, #13059	; 0x3303
 2001b38:	03000303 	movweq	r0, #771	; 0x303
 2001b3c:	00000303 	andeq	r0, r0, r3, lsl #6
 2001b40:	03030000 	movweq	r0, #12288	; 0x3000
 2001b44:	03030303 	movweq	r0, #13059	; 0x3303
 2001b48:	03030303 	movweq	r0, #13059	; 0x3303
 2001b4c:	03030303 	movweq	r0, #13059	; 0x3303
 2001b50:	03030303 	movweq	r0, #13059	; 0x3303
 2001b54:	03030303 	movweq	r0, #13059	; 0x3303
 2001b58:	03030303 	movweq	r0, #13059	; 0x3303
 2001b5c:	00030303 	andeq	r0, r3, r3, lsl #6
 2001b60:	03030300 	movweq	r0, #13056	; 0x3300
 2001b64:	00030303 	andeq	r0, r3, r3, lsl #6
 2001b68:	03030300 	movweq	r0, #13056	; 0x3300
 2001b6c:	03030303 	movweq	r0, #13059	; 0x3303
 2001b70:	03030303 	movweq	r0, #13059	; 0x3303
 2001b74:	00030303 	andeq	r0, r3, r3, lsl #6
 2001b78:	03030300 	movweq	r0, #13056	; 0x3300
 2001b7c:	00030303 	andeq	r0, r3, r3, lsl #6
 2001b80:	03030300 	movweq	r0, #13056	; 0x3300
 2001b84:	03030303 	movweq	r0, #13059	; 0x3303
 2001b88:	03030303 	movweq	r0, #13059	; 0x3303
 2001b8c:	03030303 	movweq	r0, #13059	; 0x3303
 2001b90:	03030303 	movweq	r0, #13059	; 0x3303
 2001b94:	00030303 	andeq	r0, r3, r3, lsl #6
 2001b98:	03030300 	movweq	r0, #13056	; 0x3300
 2001b9c:	00030303 	andeq	r0, r3, r3, lsl #6
 2001ba0:	03030300 	movweq	r0, #13056	; 0x3300
 2001ba4:	03030303 	movweq	r0, #13059	; 0x3303
 2001ba8:	03030303 	movweq	r0, #13059	; 0x3303
 2001bac:	03030303 	movweq	r0, #13059	; 0x3303
 2001bb0:	03030303 	movweq	r0, #13059	; 0x3303
 2001bb4:	00030303 	andeq	r0, r3, r3, lsl #6
 2001bb8:	03030300 	movweq	r0, #13056	; 0x3300
 2001bbc:	00030303 	andeq	r0, r3, r3, lsl #6
 2001bc0:	03030300 	movweq	r0, #13056	; 0x3300
 2001bc4:	03030303 	movweq	r0, #13059	; 0x3303
 2001bc8:	03030300 	movweq	r0, #13056	; 0x3300
 2001bcc:	03030303 	movweq	r0, #13059	; 0x3303
 2001bd0:	03030303 	movweq	r0, #13059	; 0x3303
 2001bd4:	03030303 	movweq	r0, #13059	; 0x3303
 2001bd8:	03030303 	movweq	r0, #13059	; 0x3303
 2001bdc:	03030303 	movweq	r0, #13059	; 0x3303
 2001be0:	03030000 	movweq	r0, #12288	; 0x3000
 2001be4:	00000303 	andeq	r0, r0, r3, lsl #6
 2001be8:	03030303 	movweq	r0, #13059	; 0x3303
 2001bec:	03030003 	movweq	r0, #12291	; 0x3003
 2001bf0:	03030303 	movweq	r0, #13059	; 0x3303
 2001bf4:	00000303 	andeq	r0, r0, r3, lsl #6
 2001bf8:	03030303 	movweq	r0, #13059	; 0x3303
 2001bfc:	03030303 	movweq	r0, #13059	; 0x3303
 2001c00:	03030000 	movweq	r0, #12288	; 0x3000
 2001c04:	03030303 	movweq	r0, #13059	; 0x3303
 2001c08:	03030303 	movweq	r0, #13059	; 0x3303
 2001c0c:	03030303 	movweq	r0, #13059	; 0x3303
 2001c10:	03030303 	movweq	r0, #13059	; 0x3303
 2001c14:	03030303 	movweq	r0, #13059	; 0x3303
 2001c18:	03030303 	movweq	r0, #13059	; 0x3303
 2001c1c:	03030303 	movweq	r0, #13059	; 0x3303
 2001c20:	03030303 	movweq	r0, #13059	; 0x3303
 2001c24:	00000003 	andeq	r0, r0, r3
 2001c28:	03030000 	movweq	r0, #12288	; 0x3000
 2001c2c:	03030303 	movweq	r0, #13059	; 0x3303
 2001c30:	03030303 	movweq	r0, #13059	; 0x3303
 2001c34:	03030303 	movweq	r0, #13059	; 0x3303
 2001c38:	03030303 	movweq	r0, #13059	; 0x3303
 2001c3c:	00000003 	andeq	r0, r0, r3
 2001c40:	03030000 	movweq	r0, #12288	; 0x3000
 2001c44:	03030303 	movweq	r0, #13059	; 0x3303
 2001c48:	03030303 	movweq	r0, #13059	; 0x3303
 2001c4c:	03030303 	movweq	r0, #13059	; 0x3303
 2001c50:	03030303 	movweq	r0, #13059	; 0x3303
 2001c54:	03030303 	movweq	r0, #13059	; 0x3303
 2001c58:	03030303 	movweq	r0, #13059	; 0x3303
 2001c5c:	03000003 	movweq	r0, #3
 2001c60:	03030303 	movweq	r0, #13059	; 0x3303
 2001c64:	00030303 	andeq	r0, r3, r3, lsl #6
 2001c68:	03030300 	movweq	r0, #13056	; 0x3300
 2001c6c:	03030303 	movweq	r0, #13059	; 0x3303
 2001c70:	03030003 	movweq	r0, #12291	; 0x3003
 2001c74:	00030303 	andeq	r0, r3, r3, lsl #6
 2001c78:	03030300 	movweq	r0, #13056	; 0x3300
 2001c7c:	03000003 	movweq	r0, #3
 2001c80:	03030303 	movweq	r0, #13059	; 0x3303
 2001c84:	03030303 	movweq	r0, #13059	; 0x3303
 2001c88:	03030303 	movweq	r0, #13059	; 0x3303
 2001c8c:	03030303 	movweq	r0, #13059	; 0x3303
 2001c90:	03030303 	movweq	r0, #13059	; 0x3303
 2001c94:	00000303 	andeq	r0, r0, r3, lsl #6
 2001c98:	03030300 	movweq	r0, #13056	; 0x3300
 2001c9c:	03030003 	movweq	r0, #12291	; 0x3003
 2001ca0:	03030003 	movweq	r0, #12291	; 0x3003
 2001ca4:	03030303 	movweq	r0, #13059	; 0x3303
 2001ca8:	03030300 	movweq	r0, #13056	; 0x3300
 2001cac:	00030303 	andeq	r0, r3, r3, lsl #6
 2001cb0:	03030303 	movweq	r0, #13059	; 0x3303
 2001cb4:	03030303 	movweq	r0, #13059	; 0x3303
 2001cb8:	03030303 	movweq	r0, #13059	; 0x3303
 2001cbc:	00030303 	andeq	r0, r3, r3, lsl #6
 2001cc0:	03030303 	movweq	r0, #13059	; 0x3303
 2001cc4:	03030303 	movweq	r0, #13059	; 0x3303
 2001cc8:	03030303 	movweq	r0, #13059	; 0x3303
 2001ccc:	03030303 	movweq	r0, #13059	; 0x3303
 2001cd0:	03030303 	movweq	r0, #13059	; 0x3303
 2001cd4:	00000303 	andeq	r0, r0, r3, lsl #6
 2001cd8:	03030000 	movweq	r0, #12288	; 0x3000
 2001cdc:	03030003 	movweq	r0, #12291	; 0x3003
 2001ce0:	03000303 	movweq	r0, #771	; 0x303
 2001ce4:	00030003 	andeq	r0, r3, r3
 2001ce8:	03000300 	movweq	r0, #768	; 0x300
 2001cec:	00030003 	andeq	r0, r3, r3
 2001cf0:	03030000 	movweq	r0, #12288	; 0x3000
 2001cf4:	03030003 	movweq	r0, #12291	; 0x3003
 2001cf8:	03030303 	movweq	r0, #13059	; 0x3303
 2001cfc:	00000303 	andeq	r0, r0, r3, lsl #6
 2001d00:	03000000 	movweq	r0, #0
 2001d04:	03030303 	movweq	r0, #13059	; 0x3303
 2001d08:	03030303 	movweq	r0, #13059	; 0x3303
 2001d0c:	03030303 	movweq	r0, #13059	; 0x3303
 2001d10:	03030303 	movweq	r0, #13059	; 0x3303
 2001d14:	00000303 	andeq	r0, r0, r3, lsl #6
 2001d18:	03030000 	movweq	r0, #12288	; 0x3000
 2001d1c:	03030003 	movweq	r0, #12291	; 0x3003
 2001d20:	03000303 	movweq	r0, #771	; 0x303
 2001d24:	03030003 	movweq	r0, #12291	; 0x3003
 2001d28:	03000303 	movweq	r0, #771	; 0x303
 2001d2c:	00000003 	andeq	r0, r0, r3
 2001d30:	03000000 	movweq	r0, #0
 2001d34:	03030003 	movweq	r0, #12291	; 0x3003
 2001d38:	03000303 	movweq	r0, #771	; 0x303
 2001d3c:	03030003 	movweq	r0, #12291	; 0x3003
 2001d40:	03000303 	movweq	r0, #771	; 0x303
 2001d44:	03030303 	movweq	r0, #13059	; 0x3303
 2001d48:	03030303 	movweq	r0, #13059	; 0x3303
 2001d4c:	03030303 	movweq	r0, #13059	; 0x3303
 2001d50:	03030303 	movweq	r0, #13059	; 0x3303
 2001d54:	00000003 	andeq	r0, r0, r3
 2001d58:	03030300 	movweq	r0, #13056	; 0x3300
 2001d5c:	03030003 	movweq	r0, #12291	; 0x3003
 2001d60:	03030003 	movweq	r0, #12291	; 0x3003
 2001d64:	00000003 	andeq	r0, r0, r3
 2001d68:	03030000 	movweq	r0, #12288	; 0x3000
 2001d6c:	03030003 	movweq	r0, #12291	; 0x3003
 2001d70:	03000303 	movweq	r0, #771	; 0x303
 2001d74:	03030003 	movweq	r0, #12291	; 0x3003
 2001d78:	03000303 	movweq	r0, #771	; 0x303
 2001d7c:	00000003 	andeq	r0, r0, r3
 2001d80:	03030000 	movweq	r0, #12288	; 0x3000
 2001d84:	03030303 	movweq	r0, #13059	; 0x3303
 2001d88:	03030303 	movweq	r0, #13059	; 0x3303
 2001d8c:	03030303 	movweq	r0, #13059	; 0x3303
 2001d90:	03030303 	movweq	r0, #13059	; 0x3303
 2001d94:	00000303 	andeq	r0, r0, r3, lsl #6
 2001d98:	03030300 	movweq	r0, #13056	; 0x3300
 2001d9c:	03030003 	movweq	r0, #12291	; 0x3003
 2001da0:	03030003 	movweq	r0, #12291	; 0x3003
 2001da4:	03030003 	movweq	r0, #12291	; 0x3003
 2001da8:	03030303 	movweq	r0, #13059	; 0x3303
 2001dac:	03030003 	movweq	r0, #12291	; 0x3003
 2001db0:	03030303 	movweq	r0, #13059	; 0x3303
 2001db4:	03030003 	movweq	r0, #12291	; 0x3003
 2001db8:	03030003 	movweq	r0, #12291	; 0x3003
 2001dbc:	00000303 	andeq	r0, r0, r3, lsl #6
 2001dc0:	03030300 	movweq	r0, #13056	; 0x3300
 2001dc4:	03030303 	movweq	r0, #13059	; 0x3303
 2001dc8:	03030303 	movweq	r0, #13059	; 0x3303
 2001dcc:	03030303 	movweq	r0, #13059	; 0x3303
 2001dd0:	03030303 	movweq	r0, #13059	; 0x3303
 2001dd4:	00000003 	andeq	r0, r0, r3
 2001dd8:	03030300 	movweq	r0, #13056	; 0x3300
 2001ddc:	03030003 	movweq	r0, #12291	; 0x3003
 2001de0:	03030003 	movweq	r0, #12291	; 0x3003
 2001de4:	03030003 	movweq	r0, #12291	; 0x3003
 2001de8:	03000303 	movweq	r0, #771	; 0x303
 2001dec:	03030003 	movweq	r0, #12291	; 0x3003
 2001df0:	03000303 	movweq	r0, #771	; 0x303
 2001df4:	03030003 	movweq	r0, #12291	; 0x3003
 2001df8:	03000303 	movweq	r0, #771	; 0x303
 2001dfc:	00000003 	andeq	r0, r0, r3
 2001e00:	03030000 	movweq	r0, #12288	; 0x3000
 2001e04:	03030303 	movweq	r0, #13059	; 0x3303
 2001e08:	03030303 	movweq	r0, #13059	; 0x3303
 2001e0c:	03030303 	movweq	r0, #13059	; 0x3303
 2001e10:	03030303 	movweq	r0, #13059	; 0x3303
 2001e14:	00000003 	andeq	r0, r0, r3
 2001e18:	03030000 	movweq	r0, #12288	; 0x3000
 2001e1c:	03030003 	movweq	r0, #12291	; 0x3003
 2001e20:	03030303 	movweq	r0, #13059	; 0x3303
 2001e24:	00000003 	andeq	r0, r0, r3
 2001e28:	03030300 	movweq	r0, #13056	; 0x3300
 2001e2c:	03030003 	movweq	r0, #12291	; 0x3003
 2001e30:	03030303 	movweq	r0, #13059	; 0x3303
 2001e34:	03030003 	movweq	r0, #12291	; 0x3003
 2001e38:	03030303 	movweq	r0, #13059	; 0x3303
 2001e3c:	00000003 	andeq	r0, r0, r3
 2001e40:	03030000 	movweq	r0, #12288	; 0x3000
 2001e44:	03030303 	movweq	r0, #13059	; 0x3303
 2001e48:	03030303 	movweq	r0, #13059	; 0x3303
 2001e4c:	03030303 	movweq	r0, #13059	; 0x3303
 2001e50:	03030303 	movweq	r0, #13059	; 0x3303
 2001e54:	00000003 	andeq	r0, r0, r3
 2001e58:	03000000 	movweq	r0, #0
 2001e5c:	03030003 	movweq	r0, #12291	; 0x3003
 2001e60:	03030303 	movweq	r0, #13059	; 0x3303
 2001e64:	00000003 	andeq	r0, r0, r3
 2001e68:	03030300 	movweq	r0, #13056	; 0x3300
 2001e6c:	03030003 	movweq	r0, #12291	; 0x3003
 2001e70:	03030303 	movweq	r0, #13059	; 0x3303
 2001e74:	03030003 	movweq	r0, #12291	; 0x3003
 2001e78:	03030303 	movweq	r0, #13059	; 0x3303
 2001e7c:	03030003 	movweq	r0, #12291	; 0x3003
 2001e80:	03030303 	movweq	r0, #13059	; 0x3303
 2001e84:	03030303 	movweq	r0, #13059	; 0x3303
 2001e88:	03030303 	movweq	r0, #13059	; 0x3303
 2001e8c:	03030303 	movweq	r0, #13059	; 0x3303
 2001e90:	03030303 	movweq	r0, #13059	; 0x3303
 2001e94:	00000303 	andeq	r0, r0, r3, lsl #6
 2001e98:	03030000 	movweq	r0, #12288	; 0x3000
 2001e9c:	03030003 	movweq	r0, #12291	; 0x3003
 2001ea0:	03030303 	movweq	r0, #13059	; 0x3303
 2001ea4:	03030003 	movweq	r0, #12291	; 0x3003
 2001ea8:	03030303 	movweq	r0, #13059	; 0x3303
 2001eac:	03030003 	movweq	r0, #12291	; 0x3003
 2001eb0:	03000003 	movweq	r0, #3
 2001eb4:	03030003 	movweq	r0, #12291	; 0x3003
 2001eb8:	03000303 	movweq	r0, #771	; 0x303
 2001ebc:	00000303 	andeq	r0, r0, r3, lsl #6
 2001ec0:	03030000 	movweq	r0, #12288	; 0x3000
 2001ec4:	03030303 	movweq	r0, #13059	; 0x3303
 2001ec8:	03030303 	movweq	r0, #13059	; 0x3303
 2001ecc:	03030303 	movweq	r0, #13059	; 0x3303
 2001ed0:	03030303 	movweq	r0, #13059	; 0x3303
 2001ed4:	03030003 	movweq	r0, #12291	; 0x3003
 2001ed8:	03000303 	movweq	r0, #771	; 0x303
 2001edc:	03030003 	movweq	r0, #12291	; 0x3003
 2001ee0:	03000303 	movweq	r0, #771	; 0x303
 2001ee4:	03030003 	movweq	r0, #12291	; 0x3003
 2001ee8:	03000303 	movweq	r0, #771	; 0x303
 2001eec:	00000003 	andeq	r0, r0, r3
 2001ef0:	03000000 	movweq	r0, #0
 2001ef4:	03030003 	movweq	r0, #12291	; 0x3003
 2001ef8:	03000303 	movweq	r0, #771	; 0x303
 2001efc:	03030003 	movweq	r0, #12291	; 0x3003
 2001f00:	03000303 	movweq	r0, #771	; 0x303
 2001f04:	03030303 	movweq	r0, #13059	; 0x3303
 2001f08:	03030303 	movweq	r0, #13059	; 0x3303
 2001f0c:	03030303 	movweq	r0, #13059	; 0x3303
 2001f10:	03030303 	movweq	r0, #13059	; 0x3303
 2001f14:	00000303 	andeq	r0, r0, r3, lsl #6
 2001f18:	03030300 	movweq	r0, #13056	; 0x3300
 2001f1c:	00030303 	andeq	r0, r3, r3, lsl #6
 2001f20:	03030303 	movweq	r0, #13059	; 0x3303
 2001f24:	00030303 	andeq	r0, r3, r3, lsl #6
 2001f28:	03030303 	movweq	r0, #13059	; 0x3303
 2001f2c:	00030303 	andeq	r0, r3, r3, lsl #6
 2001f30:	03030303 	movweq	r0, #13059	; 0x3303
 2001f34:	00030303 	andeq	r0, r3, r3, lsl #6
 2001f38:	03030303 	movweq	r0, #13059	; 0x3303
 2001f3c:	00000303 	andeq	r0, r0, r3, lsl #6
 2001f40:	03030300 	movweq	r0, #13056	; 0x3300
 2001f44:	03030303 	movweq	r0, #13059	; 0x3303
 2001f48:	03030303 	movweq	r0, #13059	; 0x3303
 2001f4c:	03030303 	movweq	r0, #13059	; 0x3303
 2001f50:	03030303 	movweq	r0, #13059	; 0x3303
 2001f54:	03030303 	movweq	r0, #13059	; 0x3303
 2001f58:	03000000 	movweq	r0, #0
 2001f5c:	03030303 	movweq	r0, #13059	; 0x3303
 2001f60:	03030003 	movweq	r0, #12291	; 0x3003
 2001f64:	03030303 	movweq	r0, #13059	; 0x3303
 2001f68:	03030003 	movweq	r0, #12291	; 0x3003
 2001f6c:	03030003 	movweq	r0, #12291	; 0x3003
 2001f70:	03030003 	movweq	r0, #12291	; 0x3003
 2001f74:	03030003 	movweq	r0, #12291	; 0x3003
 2001f78:	03030003 	movweq	r0, #12291	; 0x3003
 2001f7c:	00000303 	andeq	r0, r0, r3, lsl #6
 2001f80:	03030300 	movweq	r0, #13056	; 0x3300
 2001f84:	03030303 	movweq	r0, #13059	; 0x3303
 2001f88:	03030303 	movweq	r0, #13059	; 0x3303
 2001f8c:	03030303 	movweq	r0, #13059	; 0x3303
 2001f90:	03030303 	movweq	r0, #13059	; 0x3303
 2001f94:	03030003 	movweq	r0, #12291	; 0x3003
 2001f98:	03030003 	movweq	r0, #12291	; 0x3003
 2001f9c:	03030003 	movweq	r0, #12291	; 0x3003
 2001fa0:	03030300 	movweq	r0, #13056	; 0x3300
 2001fa4:	00000003 	andeq	r0, r0, r3
 2001fa8:	03030303 	movweq	r0, #13059	; 0x3303
 2001fac:	00000003 	andeq	r0, r0, r3
 2001fb0:	03030300 	movweq	r0, #13056	; 0x3300
 2001fb4:	03030003 	movweq	r0, #12291	; 0x3003
 2001fb8:	03030003 	movweq	r0, #12291	; 0x3003
 2001fbc:	03030003 	movweq	r0, #12291	; 0x3003
 2001fc0:	03000303 	movweq	r0, #771	; 0x303
 2001fc4:	03030303 	movweq	r0, #13059	; 0x3303
 2001fc8:	03030303 	movweq	r0, #13059	; 0x3303
 2001fcc:	03030303 	movweq	r0, #13059	; 0x3303
 2001fd0:	03030303 	movweq	r0, #13059	; 0x3303
 2001fd4:	03000303 	movweq	r0, #771	; 0x303
 2001fd8:	03030303 	movweq	r0, #13059	; 0x3303
 2001fdc:	03000303 	movweq	r0, #771	; 0x303
 2001fe0:	03030303 	movweq	r0, #13059	; 0x3303
 2001fe4:	03000303 	movweq	r0, #771	; 0x303
 2001fe8:	03030303 	movweq	r0, #13059	; 0x3303
 2001fec:	03000303 	movweq	r0, #771	; 0x303
 2001ff0:	03030303 	movweq	r0, #13059	; 0x3303
 2001ff4:	03000303 	movweq	r0, #771	; 0x303
 2001ff8:	03030303 	movweq	r0, #13059	; 0x3303
 2001ffc:	00000303 	andeq	r0, r0, r3, lsl #6
 2002000:	03030000 	movweq	r0, #12288	; 0x3000
 2002004:	03030303 	movweq	r0, #13059	; 0x3303
 2002008:	03030303 	movweq	r0, #13059	; 0x3303
 200200c:	03030303 	movweq	r0, #13059	; 0x3303
 2002010:	03030303 	movweq	r0, #13059	; 0x3303
 2002014:	03030003 	movweq	r0, #12291	; 0x3003
 2002018:	03000303 	movweq	r0, #771	; 0x303
 200201c:	03000003 	movweq	r0, #3
 2002020:	03000003 	movweq	r0, #3
 2002024:	00030003 	andeq	r0, r3, r3
 2002028:	03000300 	movweq	r0, #768	; 0x300
 200202c:	03030003 	movweq	r0, #12291	; 0x3003
 2002030:	03000303 	movweq	r0, #771	; 0x303
 2002034:	03030003 	movweq	r0, #12291	; 0x3003
 2002038:	03000303 	movweq	r0, #771	; 0x303
 200203c:	03030003 	movweq	r0, #12291	; 0x3003
 2002040:	03000303 	movweq	r0, #771	; 0x303
 2002044:	03030303 	movweq	r0, #13059	; 0x3303
 2002048:	03030303 	movweq	r0, #13059	; 0x3303
 200204c:	03030303 	movweq	r0, #13059	; 0x3303
 2002050:	03030303 	movweq	r0, #13059	; 0x3303
 2002054:	03030003 	movweq	r0, #12291	; 0x3003
 2002058:	03000303 	movweq	r0, #771	; 0x303
 200205c:	03000003 	movweq	r0, #3
 2002060:	03000303 	movweq	r0, #771	; 0x303
 2002064:	00030003 	andeq	r0, r3, r3
 2002068:	03000303 	movweq	r0, #771	; 0x303
 200206c:	03030003 	movweq	r0, #12291	; 0x3003
 2002070:	03000300 	movweq	r0, #768	; 0x300
 2002074:	03030003 	movweq	r0, #12291	; 0x3003
 2002078:	03000003 	movweq	r0, #3
 200207c:	03030003 	movweq	r0, #12291	; 0x3003
 2002080:	03000303 	movweq	r0, #771	; 0x303
 2002084:	03030303 	movweq	r0, #13059	; 0x3303
 2002088:	03030303 	movweq	r0, #13059	; 0x3303
 200208c:	03030303 	movweq	r0, #13059	; 0x3303
 2002090:	03030303 	movweq	r0, #13059	; 0x3303
 2002094:	00000303 	andeq	r0, r0, r3, lsl #6
 2002098:	03030000 	movweq	r0, #12288	; 0x3000
 200209c:	03030003 	movweq	r0, #12291	; 0x3003
 20020a0:	03000303 	movweq	r0, #771	; 0x303
 20020a4:	03030003 	movweq	r0, #12291	; 0x3003
 20020a8:	03000303 	movweq	r0, #771	; 0x303
 20020ac:	03030003 	movweq	r0, #12291	; 0x3003
 20020b0:	03000303 	movweq	r0, #771	; 0x303
 20020b4:	03030003 	movweq	r0, #12291	; 0x3003
 20020b8:	03000303 	movweq	r0, #771	; 0x303
 20020bc:	00000303 	andeq	r0, r0, r3, lsl #6
 20020c0:	03030000 	movweq	r0, #12288	; 0x3000
 20020c4:	03030303 	movweq	r0, #13059	; 0x3303
 20020c8:	03030303 	movweq	r0, #13059	; 0x3303
 20020cc:	03030303 	movweq	r0, #13059	; 0x3303
 20020d0:	03030303 	movweq	r0, #13059	; 0x3303
 20020d4:	00000003 	andeq	r0, r0, r3
 20020d8:	03030000 	movweq	r0, #12288	; 0x3000
 20020dc:	03030003 	movweq	r0, #12291	; 0x3003
 20020e0:	03000303 	movweq	r0, #771	; 0x303
 20020e4:	03030003 	movweq	r0, #12291	; 0x3003
 20020e8:	03000303 	movweq	r0, #771	; 0x303
 20020ec:	00000003 	andeq	r0, r0, r3
 20020f0:	03030000 	movweq	r0, #12288	; 0x3000
 20020f4:	03030003 	movweq	r0, #12291	; 0x3003
 20020f8:	03030303 	movweq	r0, #13059	; 0x3303
 20020fc:	03030003 	movweq	r0, #12291	; 0x3003
 2002100:	03030303 	movweq	r0, #13059	; 0x3303
 2002104:	03030303 	movweq	r0, #13059	; 0x3303
 2002108:	03030303 	movweq	r0, #13059	; 0x3303
 200210c:	03030303 	movweq	r0, #13059	; 0x3303
 2002110:	03030303 	movweq	r0, #13059	; 0x3303
 2002114:	00000303 	andeq	r0, r0, r3, lsl #6
 2002118:	03030000 	movweq	r0, #12288	; 0x3000
 200211c:	03030003 	movweq	r0, #12291	; 0x3003
 2002120:	03000303 	movweq	r0, #771	; 0x303
 2002124:	03030003 	movweq	r0, #12291	; 0x3003
 2002128:	03000303 	movweq	r0, #771	; 0x303
 200212c:	03030003 	movweq	r0, #12291	; 0x3003
 2002130:	03000300 	movweq	r0, #768	; 0x300
 2002134:	03030003 	movweq	r0, #12291	; 0x3003
 2002138:	03000003 	movweq	r0, #3
 200213c:	00000303 	andeq	r0, r0, r3, lsl #6
 2002140:	03000000 	movweq	r0, #0
 2002144:	03030303 	movweq	r0, #13059	; 0x3303
 2002148:	03030303 	movweq	r0, #13059	; 0x3303
 200214c:	03030303 	movweq	r0, #13059	; 0x3303
 2002150:	03030303 	movweq	r0, #13059	; 0x3303
 2002154:	00000003 	andeq	r0, r0, r3
 2002158:	03030000 	movweq	r0, #12288	; 0x3000
 200215c:	03030003 	movweq	r0, #12291	; 0x3003
 2002160:	03000303 	movweq	r0, #771	; 0x303
 2002164:	03030003 	movweq	r0, #12291	; 0x3003
 2002168:	03000303 	movweq	r0, #771	; 0x303
 200216c:	00000003 	andeq	r0, r0, r3
 2002170:	03030000 	movweq	r0, #12288	; 0x3000
 2002174:	03030003 	movweq	r0, #12291	; 0x3003
 2002178:	03000303 	movweq	r0, #771	; 0x303
 200217c:	03030003 	movweq	r0, #12291	; 0x3003
 2002180:	03000303 	movweq	r0, #771	; 0x303
 2002184:	03030303 	movweq	r0, #13059	; 0x3303
 2002188:	03030303 	movweq	r0, #13059	; 0x3303
 200218c:	03030303 	movweq	r0, #13059	; 0x3303
 2002190:	03030303 	movweq	r0, #13059	; 0x3303
 2002194:	00000303 	andeq	r0, r0, r3, lsl #6
 2002198:	03000000 	movweq	r0, #0
 200219c:	03030003 	movweq	r0, #12291	; 0x3003
 20021a0:	03030303 	movweq	r0, #13059	; 0x3303
 20021a4:	00000303 	andeq	r0, r0, r3, lsl #6
 20021a8:	03030000 	movweq	r0, #12288	; 0x3000
 20021ac:	03030303 	movweq	r0, #13059	; 0x3303
 20021b0:	03000303 	movweq	r0, #771	; 0x303
 20021b4:	03030303 	movweq	r0, #13059	; 0x3303
 20021b8:	03000303 	movweq	r0, #771	; 0x303
 20021bc:	00000003 	andeq	r0, r0, r3
 20021c0:	03030000 	movweq	r0, #12288	; 0x3000
 20021c4:	03030303 	movweq	r0, #13059	; 0x3303
 20021c8:	03030303 	movweq	r0, #13059	; 0x3303
 20021cc:	03030303 	movweq	r0, #13059	; 0x3303
 20021d0:	03030303 	movweq	r0, #13059	; 0x3303
 20021d4:	00000003 	andeq	r0, r0, r3
 20021d8:	03030000 	movweq	r0, #12288	; 0x3000
 20021dc:	00030303 	andeq	r0, r3, r3, lsl #6
 20021e0:	03030303 	movweq	r0, #13059	; 0x3303
 20021e4:	00030303 	andeq	r0, r3, r3, lsl #6
 20021e8:	03030303 	movweq	r0, #13059	; 0x3303
 20021ec:	00030303 	andeq	r0, r3, r3, lsl #6
 20021f0:	03030303 	movweq	r0, #13059	; 0x3303
 20021f4:	00030303 	andeq	r0, r3, r3, lsl #6
 20021f8:	03030303 	movweq	r0, #13059	; 0x3303
 20021fc:	00030303 	andeq	r0, r3, r3, lsl #6
 2002200:	03030303 	movweq	r0, #13059	; 0x3303
 2002204:	03030303 	movweq	r0, #13059	; 0x3303
 2002208:	03030303 	movweq	r0, #13059	; 0x3303
 200220c:	03030303 	movweq	r0, #13059	; 0x3303
 2002210:	03030303 	movweq	r0, #13059	; 0x3303
 2002214:	03030003 	movweq	r0, #12291	; 0x3003
 2002218:	03000303 	movweq	r0, #771	; 0x303
 200221c:	03030003 	movweq	r0, #12291	; 0x3003
 2002220:	03000303 	movweq	r0, #771	; 0x303
 2002224:	03030003 	movweq	r0, #12291	; 0x3003
 2002228:	03000303 	movweq	r0, #771	; 0x303
 200222c:	03030003 	movweq	r0, #12291	; 0x3003
 2002230:	03000303 	movweq	r0, #771	; 0x303
 2002234:	03030003 	movweq	r0, #12291	; 0x3003
 2002238:	03000303 	movweq	r0, #771	; 0x303
 200223c:	00000303 	andeq	r0, r0, r3, lsl #6
 2002240:	03030000 	movweq	r0, #12288	; 0x3000
 2002244:	03030303 	movweq	r0, #13059	; 0x3303
 2002248:	03030303 	movweq	r0, #13059	; 0x3303
 200224c:	03030303 	movweq	r0, #13059	; 0x3303
 2002250:	03030303 	movweq	r0, #13059	; 0x3303
 2002254:	03030003 	movweq	r0, #12291	; 0x3003
 2002258:	03030003 	movweq	r0, #12291	; 0x3003
 200225c:	03030003 	movweq	r0, #12291	; 0x3003
 2002260:	03030003 	movweq	r0, #12291	; 0x3003
 2002264:	03030003 	movweq	r0, #12291	; 0x3003
 2002268:	03030003 	movweq	r0, #12291	; 0x3003
 200226c:	03030003 	movweq	r0, #12291	; 0x3003
 2002270:	03030003 	movweq	r0, #12291	; 0x3003
 2002274:	03000303 	movweq	r0, #771	; 0x303
 2002278:	03030300 	movweq	r0, #13056	; 0x3300
 200227c:	00030303 	andeq	r0, r3, r3, lsl #6
 2002280:	03030303 	movweq	r0, #13059	; 0x3303
 2002284:	03030303 	movweq	r0, #13059	; 0x3303
 2002288:	03030303 	movweq	r0, #13059	; 0x3303
 200228c:	03030303 	movweq	r0, #13059	; 0x3303
 2002290:	03030303 	movweq	r0, #13059	; 0x3303
 2002294:	03030003 	movweq	r0, #12291	; 0x3003
 2002298:	03000303 	movweq	r0, #771	; 0x303
 200229c:	03030003 	movweq	r0, #12291	; 0x3003
 20022a0:	03000303 	movweq	r0, #771	; 0x303
 20022a4:	03030003 	movweq	r0, #12291	; 0x3003
 20022a8:	03000303 	movweq	r0, #771	; 0x303
 20022ac:	00030003 	andeq	r0, r3, r3
 20022b0:	03000300 	movweq	r0, #768	; 0x300
 20022b4:	03000003 	movweq	r0, #3
 20022b8:	03000003 	movweq	r0, #3
 20022bc:	03030003 	movweq	r0, #12291	; 0x3003
 20022c0:	03000303 	movweq	r0, #771	; 0x303
 20022c4:	03030303 	movweq	r0, #13059	; 0x3303
 20022c8:	03030303 	movweq	r0, #13059	; 0x3303
 20022cc:	03030303 	movweq	r0, #13059	; 0x3303
 20022d0:	03030303 	movweq	r0, #13059	; 0x3303
 20022d4:	03030003 	movweq	r0, #12291	; 0x3003
 20022d8:	03000303 	movweq	r0, #771	; 0x303
 20022dc:	03000303 	movweq	r0, #771	; 0x303
 20022e0:	03030003 	movweq	r0, #12291	; 0x3003
 20022e4:	00030303 	andeq	r0, r3, r3, lsl #6
 20022e8:	03030300 	movweq	r0, #13056	; 0x3300
 20022ec:	00030303 	andeq	r0, r3, r3, lsl #6
 20022f0:	03030300 	movweq	r0, #13056	; 0x3300
 20022f4:	03000303 	movweq	r0, #771	; 0x303
 20022f8:	03030003 	movweq	r0, #12291	; 0x3003
 20022fc:	03030003 	movweq	r0, #12291	; 0x3003
 2002300:	03000303 	movweq	r0, #771	; 0x303
 2002304:	03030303 	movweq	r0, #13059	; 0x3303
 2002308:	03030303 	movweq	r0, #13059	; 0x3303
 200230c:	03030303 	movweq	r0, #13059	; 0x3303
 2002310:	03030303 	movweq	r0, #13059	; 0x3303
 2002314:	03030003 	movweq	r0, #12291	; 0x3003
 2002318:	03030003 	movweq	r0, #12291	; 0x3003
 200231c:	03000303 	movweq	r0, #771	; 0x303
 2002320:	03030300 	movweq	r0, #13056	; 0x3300
 2002324:	00030303 	andeq	r0, r3, r3, lsl #6
 2002328:	03030303 	movweq	r0, #13059	; 0x3303
 200232c:	00030303 	andeq	r0, r3, r3, lsl #6
 2002330:	03030303 	movweq	r0, #13059	; 0x3303
 2002334:	00030303 	andeq	r0, r3, r3, lsl #6
 2002338:	03030303 	movweq	r0, #13059	; 0x3303
 200233c:	00030303 	andeq	r0, r3, r3, lsl #6
 2002340:	03030303 	movweq	r0, #13059	; 0x3303
 2002344:	03030303 	movweq	r0, #13059	; 0x3303
 2002348:	03030303 	movweq	r0, #13059	; 0x3303
 200234c:	03030303 	movweq	r0, #13059	; 0x3303
 2002350:	03030303 	movweq	r0, #13059	; 0x3303
 2002354:	00000003 	andeq	r0, r0, r3
 2002358:	03000000 	movweq	r0, #0
 200235c:	03030303 	movweq	r0, #13059	; 0x3303
 2002360:	03030003 	movweq	r0, #12291	; 0x3003
 2002364:	03030303 	movweq	r0, #13059	; 0x3303
 2002368:	03030300 	movweq	r0, #13056	; 0x3300
 200236c:	00030303 	andeq	r0, r3, r3, lsl #6
 2002370:	03030303 	movweq	r0, #13059	; 0x3303
 2002374:	03000303 	movweq	r0, #771	; 0x303
 2002378:	03030303 	movweq	r0, #13059	; 0x3303
 200237c:	00000003 	andeq	r0, r0, r3
 2002380:	03000000 	movweq	r0, #0
 2002384:	03030303 	movweq	r0, #13059	; 0x3303
 2002388:	03030303 	movweq	r0, #13059	; 0x3303
 200238c:	03030303 	movweq	r0, #13059	; 0x3303
 2002390:	03030303 	movweq	r0, #13059	; 0x3303
 2002394:	00000303 	andeq	r0, r0, r3, lsl #6
 2002398:	03030300 	movweq	r0, #13056	; 0x3300
 200239c:	03000303 	movweq	r0, #771	; 0x303
 20023a0:	03030303 	movweq	r0, #13059	; 0x3303
 20023a4:	03000303 	movweq	r0, #771	; 0x303
 20023a8:	03030303 	movweq	r0, #13059	; 0x3303
 20023ac:	03000303 	movweq	r0, #771	; 0x303
 20023b0:	03030303 	movweq	r0, #13059	; 0x3303
 20023b4:	03000303 	movweq	r0, #771	; 0x303
 20023b8:	03030303 	movweq	r0, #13059	; 0x3303
 20023bc:	00000303 	andeq	r0, r0, r3, lsl #6
 20023c0:	03030300 	movweq	r0, #13056	; 0x3300
 20023c4:	03030303 	movweq	r0, #13059	; 0x3303
 20023c8:	03030303 	movweq	r0, #13059	; 0x3303
 20023cc:	03030303 	movweq	r0, #13059	; 0x3303
 20023d0:	03030303 	movweq	r0, #13059	; 0x3303
 20023d4:	03000303 	movweq	r0, #771	; 0x303
 20023d8:	03030303 	movweq	r0, #13059	; 0x3303
 20023dc:	03000303 	movweq	r0, #771	; 0x303
 20023e0:	03030303 	movweq	r0, #13059	; 0x3303
 20023e4:	00030303 	andeq	r0, r3, r3, lsl #6
 20023e8:	03030303 	movweq	r0, #13059	; 0x3303
 20023ec:	00030303 	andeq	r0, r3, r3, lsl #6
 20023f0:	03030303 	movweq	r0, #13059	; 0x3303
 20023f4:	03030303 	movweq	r0, #13059	; 0x3303
 20023f8:	03030300 	movweq	r0, #13056	; 0x3300
 20023fc:	03030303 	movweq	r0, #13059	; 0x3303
 2002400:	03030300 	movweq	r0, #13056	; 0x3300
 2002404:	03030303 	movweq	r0, #13059	; 0x3303
 2002408:	03030303 	movweq	r0, #13059	; 0x3303
 200240c:	03030303 	movweq	r0, #13059	; 0x3303
 2002410:	03030303 	movweq	r0, #13059	; 0x3303
 2002414:	00000303 	andeq	r0, r0, r3, lsl #6
 2002418:	03030300 	movweq	r0, #13056	; 0x3300
 200241c:	03030303 	movweq	r0, #13059	; 0x3303
 2002420:	03030300 	movweq	r0, #13056	; 0x3300
 2002424:	03030303 	movweq	r0, #13059	; 0x3303
 2002428:	03030300 	movweq	r0, #13056	; 0x3300
 200242c:	03030303 	movweq	r0, #13059	; 0x3303
 2002430:	03030300 	movweq	r0, #13056	; 0x3300
 2002434:	03030303 	movweq	r0, #13059	; 0x3303
 2002438:	03030300 	movweq	r0, #13056	; 0x3300
 200243c:	00000303 	andeq	r0, r0, r3, lsl #6
 2002440:	03030300 	movweq	r0, #13056	; 0x3300
 2002444:	03030303 	movweq	r0, #13059	; 0x3303
 2002448:	03030303 	movweq	r0, #13059	; 0x3303
 200244c:	03030303 	movweq	r0, #13059	; 0x3303
 2002450:	03030303 	movweq	r0, #13059	; 0x3303
 2002454:	00030303 	andeq	r0, r3, r3, lsl #6
 2002458:	03030303 	movweq	r0, #13059	; 0x3303
 200245c:	03000303 	movweq	r0, #771	; 0x303
 2002460:	03030300 	movweq	r0, #13056	; 0x3300
 2002464:	03030003 	movweq	r0, #12291	; 0x3003
 2002468:	03030003 	movweq	r0, #12291	; 0x3003
 200246c:	03030303 	movweq	r0, #13059	; 0x3303
 2002470:	03030303 	movweq	r0, #13059	; 0x3303
 2002474:	03030303 	movweq	r0, #13059	; 0x3303
 2002478:	03030303 	movweq	r0, #13059	; 0x3303
 200247c:	03030303 	movweq	r0, #13059	; 0x3303
 2002480:	03030303 	movweq	r0, #13059	; 0x3303
 2002484:	03030303 	movweq	r0, #13059	; 0x3303
 2002488:	03030303 	movweq	r0, #13059	; 0x3303
 200248c:	03030303 	movweq	r0, #13059	; 0x3303
 2002490:	03030303 	movweq	r0, #13059	; 0x3303
 2002494:	03030303 	movweq	r0, #13059	; 0x3303
 2002498:	03030303 	movweq	r0, #13059	; 0x3303
 200249c:	03030303 	movweq	r0, #13059	; 0x3303
 20024a0:	03030303 	movweq	r0, #13059	; 0x3303
 20024a4:	03030303 	movweq	r0, #13059	; 0x3303
 20024a8:	03030303 	movweq	r0, #13059	; 0x3303
 20024ac:	03030303 	movweq	r0, #13059	; 0x3303
 20024b0:	03030303 	movweq	r0, #13059	; 0x3303
 20024b4:	03030303 	movweq	r0, #13059	; 0x3303
 20024b8:	03030303 	movweq	r0, #13059	; 0x3303
 20024bc:	00000003 	andeq	r0, r0, r3
 20024c0:	03000000 	movweq	r0, #0
 20024c4:	03030303 	movweq	r0, #13059	; 0x3303
 20024c8:	03030303 	movweq	r0, #13059	; 0x3303
 20024cc:	03030303 	movweq	r0, #13059	; 0x3303
 20024d0:	03030303 	movweq	r0, #13059	; 0x3303
 20024d4:	00030303 	andeq	r0, r3, r3, lsl #6
 20024d8:	03030303 	movweq	r0, #13059	; 0x3303
 20024dc:	00030303 	andeq	r0, r3, r3, lsl #6
 20024e0:	03030300 	movweq	r0, #13056	; 0x3300
 20024e4:	00030303 	andeq	r0, r3, r3, lsl #6
 20024e8:	03030300 	movweq	r0, #13056	; 0x3300
 20024ec:	03030303 	movweq	r0, #13059	; 0x3303
 20024f0:	03030303 	movweq	r0, #13059	; 0x3303
 20024f4:	03030303 	movweq	r0, #13059	; 0x3303
 20024f8:	03030303 	movweq	r0, #13059	; 0x3303
 20024fc:	03030303 	movweq	r0, #13059	; 0x3303
 2002500:	03030303 	movweq	r0, #13059	; 0x3303
 2002504:	03030303 	movweq	r0, #13059	; 0x3303
 2002508:	03030303 	movweq	r0, #13059	; 0x3303
 200250c:	03030303 	movweq	r0, #13059	; 0x3303
 2002510:	03030303 	movweq	r0, #13059	; 0x3303
 2002514:	03030303 	movweq	r0, #13059	; 0x3303
 2002518:	03030303 	movweq	r0, #13059	; 0x3303
 200251c:	00030303 	andeq	r0, r3, r3, lsl #6
 2002520:	03030300 	movweq	r0, #13056	; 0x3300
 2002524:	03030303 	movweq	r0, #13059	; 0x3303
 2002528:	03030003 	movweq	r0, #12291	; 0x3003
 200252c:	00030303 	andeq	r0, r3, r3, lsl #6
 2002530:	03030000 	movweq	r0, #12288	; 0x3000
 2002534:	03000303 	movweq	r0, #771	; 0x303
 2002538:	03030003 	movweq	r0, #12291	; 0x3003
 200253c:	00030303 	andeq	r0, r3, r3, lsl #6
 2002540:	03000300 	movweq	r0, #768	; 0x300
 2002544:	03030303 	movweq	r0, #13059	; 0x3303
 2002548:	03030303 	movweq	r0, #13059	; 0x3303
 200254c:	03030303 	movweq	r0, #13059	; 0x3303
 2002550:	03030303 	movweq	r0, #13059	; 0x3303
 2002554:	03000303 	movweq	r0, #771	; 0x303
 2002558:	03030303 	movweq	r0, #13059	; 0x3303
 200255c:	03000303 	movweq	r0, #771	; 0x303
 2002560:	03030303 	movweq	r0, #13059	; 0x3303
 2002564:	00000303 	andeq	r0, r0, r3, lsl #6
 2002568:	03030300 	movweq	r0, #13056	; 0x3300
 200256c:	03000303 	movweq	r0, #771	; 0x303
 2002570:	03030003 	movweq	r0, #12291	; 0x3003
 2002574:	03000303 	movweq	r0, #771	; 0x303
 2002578:	03030003 	movweq	r0, #12291	; 0x3003
 200257c:	00000303 	andeq	r0, r0, r3, lsl #6
 2002580:	03030300 	movweq	r0, #13056	; 0x3300
 2002584:	03030303 	movweq	r0, #13059	; 0x3303
 2002588:	03030303 	movweq	r0, #13059	; 0x3303
 200258c:	03030303 	movweq	r0, #13059	; 0x3303
 2002590:	03030303 	movweq	r0, #13059	; 0x3303
 2002594:	03030303 	movweq	r0, #13059	; 0x3303
 2002598:	03030303 	movweq	r0, #13059	; 0x3303
 200259c:	00030303 	andeq	r0, r3, r3, lsl #6
 20025a0:	03030300 	movweq	r0, #13056	; 0x3300
 20025a4:	03000303 	movweq	r0, #771	; 0x303
 20025a8:	03030003 	movweq	r0, #12291	; 0x3003
 20025ac:	03000303 	movweq	r0, #771	; 0x303
 20025b0:	03030303 	movweq	r0, #13059	; 0x3303
 20025b4:	03000303 	movweq	r0, #771	; 0x303
 20025b8:	03030003 	movweq	r0, #12291	; 0x3003
 20025bc:	00030303 	andeq	r0, r3, r3, lsl #6
 20025c0:	03030300 	movweq	r0, #13056	; 0x3300
 20025c4:	03030303 	movweq	r0, #13059	; 0x3303
 20025c8:	03030303 	movweq	r0, #13059	; 0x3303
 20025cc:	03030303 	movweq	r0, #13059	; 0x3303
 20025d0:	03030303 	movweq	r0, #13059	; 0x3303
 20025d4:	03030303 	movweq	r0, #13059	; 0x3303
 20025d8:	03030003 	movweq	r0, #12291	; 0x3003
 20025dc:	03030303 	movweq	r0, #13059	; 0x3303
 20025e0:	03030003 	movweq	r0, #12291	; 0x3003
 20025e4:	00030303 	andeq	r0, r3, r3, lsl #6
 20025e8:	03030000 	movweq	r0, #12288	; 0x3000
 20025ec:	03000303 	movweq	r0, #771	; 0x303
 20025f0:	03030003 	movweq	r0, #12291	; 0x3003
 20025f4:	03000303 	movweq	r0, #771	; 0x303
 20025f8:	03030003 	movweq	r0, #12291	; 0x3003
 20025fc:	00030303 	andeq	r0, r3, r3, lsl #6
 2002600:	03030000 	movweq	r0, #12288	; 0x3000
 2002604:	03030303 	movweq	r0, #13059	; 0x3303
 2002608:	03030303 	movweq	r0, #13059	; 0x3303
 200260c:	03030303 	movweq	r0, #13059	; 0x3303
 2002610:	03030303 	movweq	r0, #13059	; 0x3303
 2002614:	03030303 	movweq	r0, #13059	; 0x3303
 2002618:	03030303 	movweq	r0, #13059	; 0x3303
 200261c:	00030303 	andeq	r0, r3, r3, lsl #6
 2002620:	03030300 	movweq	r0, #13056	; 0x3300
 2002624:	03000303 	movweq	r0, #771	; 0x303
 2002628:	03030003 	movweq	r0, #12291	; 0x3003
 200262c:	00000303 	andeq	r0, r0, r3, lsl #6
 2002630:	03030300 	movweq	r0, #13056	; 0x3300
 2002634:	03000303 	movweq	r0, #771	; 0x303
 2002638:	03030303 	movweq	r0, #13059	; 0x3303
 200263c:	00030303 	andeq	r0, r3, r3, lsl #6
 2002640:	03030000 	movweq	r0, #12288	; 0x3000
 2002644:	03030303 	movweq	r0, #13059	; 0x3303
 2002648:	03030303 	movweq	r0, #13059	; 0x3303
 200264c:	03030303 	movweq	r0, #13059	; 0x3303
 2002650:	03030303 	movweq	r0, #13059	; 0x3303
 2002654:	03030303 	movweq	r0, #13059	; 0x3303
 2002658:	03030300 	movweq	r0, #13056	; 0x3300
 200265c:	00030303 	andeq	r0, r3, r3, lsl #6
 2002660:	03030303 	movweq	r0, #13059	; 0x3303
 2002664:	00000303 	andeq	r0, r0, r3, lsl #6
 2002668:	03030300 	movweq	r0, #13056	; 0x3300
 200266c:	00030303 	andeq	r0, r3, r3, lsl #6
 2002670:	03030303 	movweq	r0, #13059	; 0x3303
 2002674:	00030303 	andeq	r0, r3, r3, lsl #6
 2002678:	03030303 	movweq	r0, #13059	; 0x3303
 200267c:	00030303 	andeq	r0, r3, r3, lsl #6
 2002680:	03030303 	movweq	r0, #13059	; 0x3303
 2002684:	03030303 	movweq	r0, #13059	; 0x3303
 2002688:	03030303 	movweq	r0, #13059	; 0x3303
 200268c:	03030303 	movweq	r0, #13059	; 0x3303
 2002690:	03030303 	movweq	r0, #13059	; 0x3303
 2002694:	00030303 	andeq	r0, r3, r3, lsl #6
 2002698:	03030300 	movweq	r0, #13056	; 0x3300
 200269c:	03000303 	movweq	r0, #771	; 0x303
 20026a0:	03030003 	movweq	r0, #12291	; 0x3003
 20026a4:	03000303 	movweq	r0, #771	; 0x303
 20026a8:	03030003 	movweq	r0, #12291	; 0x3003
 20026ac:	00030303 	andeq	r0, r3, r3, lsl #6
 20026b0:	03030300 	movweq	r0, #13056	; 0x3300
 20026b4:	03030303 	movweq	r0, #13059	; 0x3303
 20026b8:	03030003 	movweq	r0, #12291	; 0x3003
 20026bc:	00000303 	andeq	r0, r0, r3, lsl #6
 20026c0:	03030300 	movweq	r0, #13056	; 0x3300
 20026c4:	03030303 	movweq	r0, #13059	; 0x3303
 20026c8:	03030303 	movweq	r0, #13059	; 0x3303
 20026cc:	03030303 	movweq	r0, #13059	; 0x3303
 20026d0:	03030303 	movweq	r0, #13059	; 0x3303
 20026d4:	03030303 	movweq	r0, #13059	; 0x3303
 20026d8:	03030303 	movweq	r0, #13059	; 0x3303
 20026dc:	03000303 	movweq	r0, #771	; 0x303
 20026e0:	03030303 	movweq	r0, #13059	; 0x3303
 20026e4:	03000303 	movweq	r0, #771	; 0x303
 20026e8:	03030303 	movweq	r0, #13059	; 0x3303
 20026ec:	00000303 	andeq	r0, r0, r3, lsl #6
 20026f0:	03030300 	movweq	r0, #13056	; 0x3300
 20026f4:	03000303 	movweq	r0, #771	; 0x303
 20026f8:	03030003 	movweq	r0, #12291	; 0x3003
 20026fc:	03000303 	movweq	r0, #771	; 0x303
 2002700:	03030003 	movweq	r0, #12291	; 0x3003
 2002704:	03030303 	movweq	r0, #13059	; 0x3303
 2002708:	03030303 	movweq	r0, #13059	; 0x3303
 200270c:	03030303 	movweq	r0, #13059	; 0x3303
 2002710:	03030303 	movweq	r0, #13059	; 0x3303
 2002714:	03030303 	movweq	r0, #13059	; 0x3303
 2002718:	03030303 	movweq	r0, #13059	; 0x3303
 200271c:	00030303 	andeq	r0, r3, r3, lsl #6
 2002720:	03030303 	movweq	r0, #13059	; 0x3303
 2002724:	03030303 	movweq	r0, #13059	; 0x3303
 2002728:	03030303 	movweq	r0, #13059	; 0x3303
 200272c:	00030303 	andeq	r0, r3, r3, lsl #6
 2002730:	03030303 	movweq	r0, #13059	; 0x3303
 2002734:	00030303 	andeq	r0, r3, r3, lsl #6
 2002738:	03030303 	movweq	r0, #13059	; 0x3303
 200273c:	00030303 	andeq	r0, r3, r3, lsl #6
 2002740:	03030303 	movweq	r0, #13059	; 0x3303
 2002744:	03030303 	movweq	r0, #13059	; 0x3303
 2002748:	03030303 	movweq	r0, #13059	; 0x3303
 200274c:	03030303 	movweq	r0, #13059	; 0x3303
 2002750:	03030303 	movweq	r0, #13059	; 0x3303
 2002754:	03030303 	movweq	r0, #13059	; 0x3303
 2002758:	03030303 	movweq	r0, #13059	; 0x3303
 200275c:	00030303 	andeq	r0, r3, r3, lsl #6
 2002760:	03030303 	movweq	r0, #13059	; 0x3303
 2002764:	03030303 	movweq	r0, #13059	; 0x3303
 2002768:	03030303 	movweq	r0, #13059	; 0x3303
 200276c:	00030303 	andeq	r0, r3, r3, lsl #6
 2002770:	03030303 	movweq	r0, #13059	; 0x3303
 2002774:	00030303 	andeq	r0, r3, r3, lsl #6
 2002778:	03030303 	movweq	r0, #13059	; 0x3303
 200277c:	00000303 	andeq	r0, r0, r3, lsl #6
 2002780:	03030303 	movweq	r0, #13059	; 0x3303
 2002784:	03030303 	movweq	r0, #13059	; 0x3303
 2002788:	03030303 	movweq	r0, #13059	; 0x3303
 200278c:	03030303 	movweq	r0, #13059	; 0x3303
 2002790:	03030303 	movweq	r0, #13059	; 0x3303
 2002794:	03000303 	movweq	r0, #771	; 0x303
 2002798:	03030303 	movweq	r0, #13059	; 0x3303
 200279c:	03000303 	movweq	r0, #771	; 0x303
 20027a0:	03030300 	movweq	r0, #13056	; 0x3300
 20027a4:	00000303 	andeq	r0, r0, r3, lsl #6
 20027a8:	03030303 	movweq	r0, #13059	; 0x3303
 20027ac:	03000303 	movweq	r0, #771	; 0x303
 20027b0:	03030303 	movweq	r0, #13059	; 0x3303
 20027b4:	00000303 	andeq	r0, r0, r3, lsl #6
 20027b8:	03030303 	movweq	r0, #13059	; 0x3303
 20027bc:	03000303 	movweq	r0, #771	; 0x303
 20027c0:	03030300 	movweq	r0, #13056	; 0x3300
 20027c4:	03030303 	movweq	r0, #13059	; 0x3303
 20027c8:	03030303 	movweq	r0, #13059	; 0x3303
 20027cc:	03030303 	movweq	r0, #13059	; 0x3303
 20027d0:	03030303 	movweq	r0, #13059	; 0x3303
 20027d4:	03030303 	movweq	r0, #13059	; 0x3303
 20027d8:	03030303 	movweq	r0, #13059	; 0x3303
 20027dc:	00030303 	andeq	r0, r3, r3, lsl #6
 20027e0:	03030303 	movweq	r0, #13059	; 0x3303
 20027e4:	00030303 	andeq	r0, r3, r3, lsl #6
 20027e8:	03030303 	movweq	r0, #13059	; 0x3303
 20027ec:	00030303 	andeq	r0, r3, r3, lsl #6
 20027f0:	03030303 	movweq	r0, #13059	; 0x3303
 20027f4:	00030303 	andeq	r0, r3, r3, lsl #6
 20027f8:	03030303 	movweq	r0, #13059	; 0x3303
 20027fc:	00030303 	andeq	r0, r3, r3, lsl #6
 2002800:	03030303 	movweq	r0, #13059	; 0x3303
 2002804:	03030303 	movweq	r0, #13059	; 0x3303
 2002808:	03030303 	movweq	r0, #13059	; 0x3303
 200280c:	03030303 	movweq	r0, #13059	; 0x3303
 2002810:	03030303 	movweq	r0, #13059	; 0x3303
 2002814:	03030303 	movweq	r0, #13059	; 0x3303
 2002818:	03030303 	movweq	r0, #13059	; 0x3303
 200281c:	03000303 	movweq	r0, #771	; 0x303
 2002820:	03030300 	movweq	r0, #13056	; 0x3300
 2002824:	00030003 	andeq	r0, r3, r3
 2002828:	03030003 	movweq	r0, #12291	; 0x3003
 200282c:	00030003 	andeq	r0, r3, r3
 2002830:	03030003 	movweq	r0, #12291	; 0x3003
 2002834:	00030003 	andeq	r0, r3, r3
 2002838:	03030003 	movweq	r0, #12291	; 0x3003
 200283c:	00030003 	andeq	r0, r3, r3
 2002840:	03030003 	movweq	r0, #12291	; 0x3003
 2002844:	03030303 	movweq	r0, #13059	; 0x3303
 2002848:	03030303 	movweq	r0, #13059	; 0x3303
 200284c:	03030303 	movweq	r0, #13059	; 0x3303
 2002850:	03030303 	movweq	r0, #13059	; 0x3303
 2002854:	03030303 	movweq	r0, #13059	; 0x3303
 2002858:	03030303 	movweq	r0, #13059	; 0x3303
 200285c:	00000303 	andeq	r0, r0, r3, lsl #6
 2002860:	03030300 	movweq	r0, #13056	; 0x3300
 2002864:	03000303 	movweq	r0, #771	; 0x303
 2002868:	03030003 	movweq	r0, #12291	; 0x3003
 200286c:	03000303 	movweq	r0, #771	; 0x303
 2002870:	03030003 	movweq	r0, #12291	; 0x3003
 2002874:	03000303 	movweq	r0, #771	; 0x303
 2002878:	03030003 	movweq	r0, #12291	; 0x3003
 200287c:	03000303 	movweq	r0, #771	; 0x303
 2002880:	03030003 	movweq	r0, #12291	; 0x3003
 2002884:	03030303 	movweq	r0, #13059	; 0x3303
 2002888:	03030303 	movweq	r0, #13059	; 0x3303
 200288c:	03030303 	movweq	r0, #13059	; 0x3303
 2002890:	03030303 	movweq	r0, #13059	; 0x3303
 2002894:	03030303 	movweq	r0, #13059	; 0x3303
 2002898:	03030303 	movweq	r0, #13059	; 0x3303
 200289c:	00030303 	andeq	r0, r3, r3, lsl #6
 20028a0:	03030300 	movweq	r0, #13056	; 0x3300
 20028a4:	03000303 	movweq	r0, #771	; 0x303
 20028a8:	03030003 	movweq	r0, #12291	; 0x3003
 20028ac:	03000303 	movweq	r0, #771	; 0x303
 20028b0:	03030003 	movweq	r0, #12291	; 0x3003
 20028b4:	03000303 	movweq	r0, #771	; 0x303
 20028b8:	03030003 	movweq	r0, #12291	; 0x3003
 20028bc:	00030303 	andeq	r0, r3, r3, lsl #6
 20028c0:	03030300 	movweq	r0, #13056	; 0x3300
 20028c4:	03030303 	movweq	r0, #13059	; 0x3303
 20028c8:	03030303 	movweq	r0, #13059	; 0x3303
 20028cc:	03030303 	movweq	r0, #13059	; 0x3303
 20028d0:	03030303 	movweq	r0, #13059	; 0x3303
 20028d4:	00000303 	andeq	r0, r0, r3, lsl #6
 20028d8:	03030300 	movweq	r0, #13056	; 0x3300
 20028dc:	03000303 	movweq	r0, #771	; 0x303
 20028e0:	03030003 	movweq	r0, #12291	; 0x3003
 20028e4:	03000303 	movweq	r0, #771	; 0x303
 20028e8:	03030003 	movweq	r0, #12291	; 0x3003
 20028ec:	00000303 	andeq	r0, r0, r3, lsl #6
 20028f0:	03030300 	movweq	r0, #13056	; 0x3300
 20028f4:	03000303 	movweq	r0, #771	; 0x303
 20028f8:	03030303 	movweq	r0, #13059	; 0x3303
 20028fc:	03000303 	movweq	r0, #771	; 0x303
 2002900:	03030303 	movweq	r0, #13059	; 0x3303
 2002904:	03030303 	movweq	r0, #13059	; 0x3303
 2002908:	03030303 	movweq	r0, #13059	; 0x3303
 200290c:	03030303 	movweq	r0, #13059	; 0x3303
 2002910:	03030303 	movweq	r0, #13059	; 0x3303
 2002914:	00030303 	andeq	r0, r3, r3, lsl #6
 2002918:	03030000 	movweq	r0, #12288	; 0x3000
 200291c:	03000303 	movweq	r0, #771	; 0x303
 2002920:	03030003 	movweq	r0, #12291	; 0x3003
 2002924:	03000303 	movweq	r0, #771	; 0x303
 2002928:	03030003 	movweq	r0, #12291	; 0x3003
 200292c:	00030303 	andeq	r0, r3, r3, lsl #6
 2002930:	03030000 	movweq	r0, #12288	; 0x3000
 2002934:	03030303 	movweq	r0, #13059	; 0x3303
 2002938:	03030003 	movweq	r0, #12291	; 0x3003
 200293c:	03030303 	movweq	r0, #13059	; 0x3303
 2002940:	03030003 	movweq	r0, #12291	; 0x3003
 2002944:	03030303 	movweq	r0, #13059	; 0x3303
 2002948:	03030303 	movweq	r0, #13059	; 0x3303
 200294c:	03030303 	movweq	r0, #13059	; 0x3303
 2002950:	03030303 	movweq	r0, #13059	; 0x3303
 2002954:	03030303 	movweq	r0, #13059	; 0x3303
 2002958:	03030303 	movweq	r0, #13059	; 0x3303
 200295c:	00030303 	andeq	r0, r3, r3, lsl #6
 2002960:	03030003 	movweq	r0, #12291	; 0x3003
 2002964:	00030303 	andeq	r0, r3, r3, lsl #6
 2002968:	03030300 	movweq	r0, #13056	; 0x3300
 200296c:	00030303 	andeq	r0, r3, r3, lsl #6
 2002970:	03030303 	movweq	r0, #13059	; 0x3303
 2002974:	00030303 	andeq	r0, r3, r3, lsl #6
 2002978:	03030303 	movweq	r0, #13059	; 0x3303
 200297c:	00030303 	andeq	r0, r3, r3, lsl #6
 2002980:	03030303 	movweq	r0, #13059	; 0x3303
 2002984:	03030303 	movweq	r0, #13059	; 0x3303
 2002988:	03030303 	movweq	r0, #13059	; 0x3303
 200298c:	03030303 	movweq	r0, #13059	; 0x3303
 2002990:	03030303 	movweq	r0, #13059	; 0x3303
 2002994:	03030303 	movweq	r0, #13059	; 0x3303
 2002998:	03030303 	movweq	r0, #13059	; 0x3303
 200299c:	00030303 	andeq	r0, r3, r3, lsl #6
 20029a0:	03030000 	movweq	r0, #12288	; 0x3000
 20029a4:	03000303 	movweq	r0, #771	; 0x303
 20029a8:	03030303 	movweq	r0, #13059	; 0x3303
 20029ac:	00000303 	andeq	r0, r0, r3, lsl #6
 20029b0:	03030000 	movweq	r0, #12288	; 0x3000
 20029b4:	03030303 	movweq	r0, #13059	; 0x3303
 20029b8:	03030003 	movweq	r0, #12291	; 0x3003
 20029bc:	00000303 	andeq	r0, r0, r3, lsl #6
 20029c0:	03030300 	movweq	r0, #13056	; 0x3300
 20029c4:	03030303 	movweq	r0, #13059	; 0x3303
 20029c8:	03030303 	movweq	r0, #13059	; 0x3303
 20029cc:	03030303 	movweq	r0, #13059	; 0x3303
 20029d0:	03030303 	movweq	r0, #13059	; 0x3303
 20029d4:	03030303 	movweq	r0, #13059	; 0x3303
 20029d8:	03030303 	movweq	r0, #13059	; 0x3303
 20029dc:	00030303 	andeq	r0, r3, r3, lsl #6
 20029e0:	03030303 	movweq	r0, #13059	; 0x3303
 20029e4:	00000303 	andeq	r0, r0, r3, lsl #6
 20029e8:	03030300 	movweq	r0, #13056	; 0x3300
 20029ec:	00030303 	andeq	r0, r3, r3, lsl #6
 20029f0:	03030303 	movweq	r0, #13059	; 0x3303
 20029f4:	00030303 	andeq	r0, r3, r3, lsl #6
 20029f8:	03030303 	movweq	r0, #13059	; 0x3303
 20029fc:	03030303 	movweq	r0, #13059	; 0x3303
 2002a00:	03030300 	movweq	r0, #13056	; 0x3300
 2002a04:	03030303 	movweq	r0, #13059	; 0x3303
 2002a08:	03030303 	movweq	r0, #13059	; 0x3303
 2002a0c:	03030303 	movweq	r0, #13059	; 0x3303
 2002a10:	03030303 	movweq	r0, #13059	; 0x3303
 2002a14:	03030303 	movweq	r0, #13059	; 0x3303
 2002a18:	03030303 	movweq	r0, #13059	; 0x3303
 2002a1c:	03030303 	movweq	r0, #13059	; 0x3303
 2002a20:	03030303 	movweq	r0, #13059	; 0x3303
 2002a24:	03000303 	movweq	r0, #771	; 0x303
 2002a28:	03030003 	movweq	r0, #12291	; 0x3003
 2002a2c:	03000303 	movweq	r0, #771	; 0x303
 2002a30:	03030003 	movweq	r0, #12291	; 0x3003
 2002a34:	03000303 	movweq	r0, #771	; 0x303
 2002a38:	03030003 	movweq	r0, #12291	; 0x3003
 2002a3c:	00030303 	andeq	r0, r3, r3, lsl #6
 2002a40:	03030300 	movweq	r0, #13056	; 0x3300
 2002a44:	03030303 	movweq	r0, #13059	; 0x3303
 2002a48:	03030303 	movweq	r0, #13059	; 0x3303
 2002a4c:	03030303 	movweq	r0, #13059	; 0x3303
 2002a50:	03030303 	movweq	r0, #13059	; 0x3303
 2002a54:	03030303 	movweq	r0, #13059	; 0x3303
 2002a58:	03030303 	movweq	r0, #13059	; 0x3303
 2002a5c:	03030303 	movweq	r0, #13059	; 0x3303
 2002a60:	03030303 	movweq	r0, #13059	; 0x3303
 2002a64:	03030003 	movweq	r0, #12291	; 0x3003
 2002a68:	03030003 	movweq	r0, #12291	; 0x3003
 2002a6c:	03030003 	movweq	r0, #12291	; 0x3003
 2002a70:	03030003 	movweq	r0, #12291	; 0x3003
 2002a74:	03000303 	movweq	r0, #771	; 0x303
 2002a78:	03030300 	movweq	r0, #13056	; 0x3300
 2002a7c:	00030303 	andeq	r0, r3, r3, lsl #6
 2002a80:	03030303 	movweq	r0, #13059	; 0x3303
 2002a84:	03030303 	movweq	r0, #13059	; 0x3303
 2002a88:	03030303 	movweq	r0, #13059	; 0x3303
 2002a8c:	03030303 	movweq	r0, #13059	; 0x3303
 2002a90:	03030303 	movweq	r0, #13059	; 0x3303
 2002a94:	03030303 	movweq	r0, #13059	; 0x3303
 2002a98:	03030303 	movweq	r0, #13059	; 0x3303
 2002a9c:	03030303 	movweq	r0, #13059	; 0x3303
 2002aa0:	03030303 	movweq	r0, #13059	; 0x3303
 2002aa4:	00030003 	andeq	r0, r3, r3
 2002aa8:	03030003 	movweq	r0, #12291	; 0x3003
 2002aac:	00030003 	andeq	r0, r3, r3
 2002ab0:	03030003 	movweq	r0, #12291	; 0x3003
 2002ab4:	00030003 	andeq	r0, r3, r3
 2002ab8:	03030003 	movweq	r0, #12291	; 0x3003
 2002abc:	03000303 	movweq	r0, #771	; 0x303
 2002ac0:	03030300 	movweq	r0, #13056	; 0x3300
 2002ac4:	03030303 	movweq	r0, #13059	; 0x3303
 2002ac8:	03030303 	movweq	r0, #13059	; 0x3303
 2002acc:	03030303 	movweq	r0, #13059	; 0x3303
 2002ad0:	03030303 	movweq	r0, #13059	; 0x3303
 2002ad4:	03030303 	movweq	r0, #13059	; 0x3303
 2002ad8:	03030303 	movweq	r0, #13059	; 0x3303
 2002adc:	03030003 	movweq	r0, #12291	; 0x3003
 2002ae0:	03030003 	movweq	r0, #12291	; 0x3003
 2002ae4:	03000303 	movweq	r0, #771	; 0x303
 2002ae8:	03030300 	movweq	r0, #13056	; 0x3300
 2002aec:	00030303 	andeq	r0, r3, r3, lsl #6
 2002af0:	03030303 	movweq	r0, #13059	; 0x3303
 2002af4:	03000303 	movweq	r0, #771	; 0x303
 2002af8:	03030300 	movweq	r0, #13056	; 0x3300
 2002afc:	03030003 	movweq	r0, #12291	; 0x3003
 2002b00:	03030003 	movweq	r0, #12291	; 0x3003
 2002b04:	03030303 	movweq	r0, #13059	; 0x3303
 2002b08:	03030303 	movweq	r0, #13059	; 0x3303
 2002b0c:	03030303 	movweq	r0, #13059	; 0x3303
 2002b10:	03030303 	movweq	r0, #13059	; 0x3303
 2002b14:	03030303 	movweq	r0, #13059	; 0x3303
 2002b18:	03030303 	movweq	r0, #13059	; 0x3303
 2002b1c:	03030003 	movweq	r0, #12291	; 0x3003
 2002b20:	03030003 	movweq	r0, #12291	; 0x3003
 2002b24:	03000303 	movweq	r0, #771	; 0x303
 2002b28:	03030300 	movweq	r0, #13056	; 0x3300
 2002b2c:	00030303 	andeq	r0, r3, r3, lsl #6
 2002b30:	03030303 	movweq	r0, #13059	; 0x3303
 2002b34:	00030303 	andeq	r0, r3, r3, lsl #6
 2002b38:	03030303 	movweq	r0, #13059	; 0x3303
 2002b3c:	00030303 	andeq	r0, r3, r3, lsl #6
 2002b40:	03030303 	movweq	r0, #13059	; 0x3303
 2002b44:	03030303 	movweq	r0, #13059	; 0x3303
 2002b48:	03030303 	movweq	r0, #13059	; 0x3303
 2002b4c:	03030303 	movweq	r0, #13059	; 0x3303
 2002b50:	03030303 	movweq	r0, #13059	; 0x3303
 2002b54:	03030303 	movweq	r0, #13059	; 0x3303
 2002b58:	03030303 	movweq	r0, #13059	; 0x3303
 2002b5c:	00000303 	andeq	r0, r0, r3, lsl #6
 2002b60:	03030300 	movweq	r0, #13056	; 0x3300
 2002b64:	03030303 	movweq	r0, #13059	; 0x3303
 2002b68:	03030300 	movweq	r0, #13056	; 0x3300
 2002b6c:	00030303 	andeq	r0, r3, r3, lsl #6
 2002b70:	03030303 	movweq	r0, #13059	; 0x3303
 2002b74:	03000303 	movweq	r0, #771	; 0x303
 2002b78:	03030303 	movweq	r0, #13059	; 0x3303
 2002b7c:	00000303 	andeq	r0, r0, r3, lsl #6
 2002b80:	03030300 	movweq	r0, #13056	; 0x3300
 2002b84:	03030303 	movweq	r0, #13059	; 0x3303
 2002b88:	03030303 	movweq	r0, #13059	; 0x3303
 2002b8c:	03030303 	movweq	r0, #13059	; 0x3303
 2002b90:	03030303 	movweq	r0, #13059	; 0x3303
 2002b94:	03030303 	movweq	r0, #13059	; 0x3303
 2002b98:	03030300 	movweq	r0, #13056	; 0x3300
 2002b9c:	00030303 	andeq	r0, r3, r3, lsl #6
 2002ba0:	03030303 	movweq	r0, #13059	; 0x3303
 2002ba4:	00030303 	andeq	r0, r3, r3, lsl #6
 2002ba8:	03030303 	movweq	r0, #13059	; 0x3303
 2002bac:	03000303 	movweq	r0, #771	; 0x303
 2002bb0:	03030303 	movweq	r0, #13059	; 0x3303
 2002bb4:	00030303 	andeq	r0, r3, r3, lsl #6
 2002bb8:	03030303 	movweq	r0, #13059	; 0x3303
 2002bbc:	00030303 	andeq	r0, r3, r3, lsl #6
 2002bc0:	03030303 	movweq	r0, #13059	; 0x3303
 2002bc4:	03030303 	movweq	r0, #13059	; 0x3303
 2002bc8:	03030300 	movweq	r0, #13056	; 0x3300
 2002bcc:	03030303 	movweq	r0, #13059	; 0x3303
 2002bd0:	03030303 	movweq	r0, #13059	; 0x3303
 2002bd4:	00030303 	andeq	r0, r3, r3, lsl #6
 2002bd8:	03030303 	movweq	r0, #13059	; 0x3303
 2002bdc:	00030303 	andeq	r0, r3, r3, lsl #6
 2002be0:	03030303 	movweq	r0, #13059	; 0x3303
 2002be4:	00030303 	andeq	r0, r3, r3, lsl #6
 2002be8:	03030303 	movweq	r0, #13059	; 0x3303
 2002bec:	00030303 	andeq	r0, r3, r3, lsl #6
 2002bf0:	03030303 	movweq	r0, #13059	; 0x3303
 2002bf4:	00030303 	andeq	r0, r3, r3, lsl #6
 2002bf8:	03030303 	movweq	r0, #13059	; 0x3303
 2002bfc:	00030303 	andeq	r0, r3, r3, lsl #6
 2002c00:	03030303 	movweq	r0, #13059	; 0x3303
 2002c04:	03030303 	movweq	r0, #13059	; 0x3303
 2002c08:	03030303 	movweq	r0, #13059	; 0x3303
 2002c0c:	03030303 	movweq	r0, #13059	; 0x3303
 2002c10:	03030303 	movweq	r0, #13059	; 0x3303
 2002c14:	03000303 	movweq	r0, #771	; 0x303
 2002c18:	03030303 	movweq	r0, #13059	; 0x3303
 2002c1c:	00030303 	andeq	r0, r3, r3, lsl #6
 2002c20:	03030303 	movweq	r0, #13059	; 0x3303
 2002c24:	00030303 	andeq	r0, r3, r3, lsl #6
 2002c28:	03030303 	movweq	r0, #13059	; 0x3303
 2002c2c:	03030303 	movweq	r0, #13059	; 0x3303
 2002c30:	03030300 	movweq	r0, #13056	; 0x3300
 2002c34:	00030303 	andeq	r0, r3, r3, lsl #6
 2002c38:	03030303 	movweq	r0, #13059	; 0x3303
 2002c3c:	00030303 	andeq	r0, r3, r3, lsl #6
 2002c40:	03030303 	movweq	r0, #13059	; 0x3303
 2002c44:	03000303 	movweq	r0, #771	; 0x303
 2002c48:	03030303 	movweq	r0, #13059	; 0x3303
 2002c4c:	03030303 	movweq	r0, #13059	; 0x3303
 2002c50:	03030303 	movweq	r0, #13059	; 0x3303
 2002c54:	03030303 	movweq	r0, #13059	; 0x3303
 2002c58:	03030303 	movweq	r0, #13059	; 0x3303
 2002c5c:	00000303 	andeq	r0, r0, r3, lsl #6
 2002c60:	03030303 	movweq	r0, #13059	; 0x3303
 2002c64:	03030003 	movweq	r0, #12291	; 0x3003
 2002c68:	00030300 	andeq	r0, r3, r0, lsl #6
 2002c6c:	03030303 	movweq	r0, #13059	; 0x3303
 2002c70:	03000003 	movweq	r0, #3
 2002c74:	03030303 	movweq	r0, #13059	; 0x3303
 2002c78:	03030303 	movweq	r0, #13059	; 0x3303
 2002c7c:	03030303 	movweq	r0, #13059	; 0x3303
 2002c80:	03030303 	movweq	r0, #13059	; 0x3303
 2002c84:	03030303 	movweq	r0, #13059	; 0x3303
 2002c88:	03030303 	movweq	r0, #13059	; 0x3303
 2002c8c:	03030303 	movweq	r0, #13059	; 0x3303
 2002c90:	03030303 	movweq	r0, #13059	; 0x3303
 2002c94:	03030303 	movweq	r0, #13059	; 0x3303
 2002c98:	03030303 	movweq	r0, #13059	; 0x3303
 2002c9c:	03030303 	movweq	r0, #13059	; 0x3303
 2002ca0:	03030303 	movweq	r0, #13059	; 0x3303
 2002ca4:	03030303 	movweq	r0, #13059	; 0x3303
 2002ca8:	03030303 	movweq	r0, #13059	; 0x3303
 2002cac:	03030303 	movweq	r0, #13059	; 0x3303
 2002cb0:	03030303 	movweq	r0, #13059	; 0x3303
 2002cb4:	03030303 	movweq	r0, #13059	; 0x3303
 2002cb8:	03030303 	movweq	r0, #13059	; 0x3303
 2002cbc:	03030303 	movweq	r0, #13059	; 0x3303
 2002cc0:	03030303 	movweq	r0, #13059	; 0x3303
 2002cc4:	03030303 	movweq	r0, #13059	; 0x3303
 2002cc8:	03030303 	movweq	r0, #13059	; 0x3303

02002ccc <test_cpu_state>:
 2002ccc:	e3a04730 	mov	r4, #48, 14	; 0xc00000
 2002cd0:	e3a07001 	mov	r7, #1
 2002cd4:	e12fff1e 	bx	r14

02002cd8 <test_cpu_state_thumb>:
 2002cd8:	e3a07002 	mov	r7, #2
 2002cdc:	e12fff1e 	bx	r14

02002ce0 <val_CPSR>:
 2002ce0:	00000000 	andeq	r0, r0, r0

02002ce4 <val_cp15>:
 2002ce4:	00000000 	andeq	r0, r0, r0

02002ce8 <val_cp15_200>:
 2002ce8:	00000000 	andeq	r0, r0, r0

02002cec <val_cp15_201>:
 2002cec:	00000000 	andeq	r0, r0, r0

02002cf0 <val_cp15_300>:
 2002cf0:	00000000 	andeq	r0, r0, r0

02002cf4 <val_cp15_500>:
 2002cf4:	00000000 	andeq	r0, r0, r0

02002cf8 <val_cp15_501>:
 2002cf8:	00000000 	andeq	r0, r0, r0

02002cfc <val_cp15_502>:
 2002cfc:	00000000 	andeq	r0, r0, r0

02002d00 <val_cp15_503>:
 2002d00:	00000000 	andeq	r0, r0, r0

02002d04 <val_cp15_600>:
 2002d04:	00000000 	andeq	r0, r0, r0

02002d08 <val_cp15_610>:
 2002d08:	00000000 	andeq	r0, r0, r0

02002d0c <val_cp15_620>:
 2002d0c:	00000000 	andeq	r0, r0, r0

02002d10 <val_cp15_630>:
 2002d10:	00000000 	andeq	r0, r0, r0

02002d14 <val_cp15_640>:
 2002d14:	00000000 	andeq	r0, r0, r0

02002d18 <val_cp15_650>:
 2002d18:	00000000 	andeq	r0, r0, r0

02002d1c <val_cp15_660>:
 2002d1c:	00000000 	andeq	r0, r0, r0

02002d20 <val_cp15_670>:
 2002d20:	00000000 	andeq	r0, r0, r0

02002d24 <val_cp15_910>:
 2002d24:	00000000 	andeq	r0, r0, r0

02002d28 <val_cp15_911>:
 2002d28:	00000000 	andeq	r0, r0, r0

02002d2c <arm9_main>:
 2002d2c:	e10f0000 	mrs	r0, CPSR
 2002d30:	e50f0058 	str	r0, [pc, #-88]	; 2002ce0 <val_CPSR>
 2002d34:	ee110f10 	mrc	15, 0, r0, cr1, cr0, {0}
 2002d38:	e50f005c 	str	r0, [pc, #-92]	; 2002ce4 <val_cp15>
 2002d3c:	ee120f10 	mrc	15, 0, r0, cr2, cr0, {0}
 2002d40:	e50f0060 	str	r0, [pc, #-96]	; 2002ce8 <val_cp15_200>
 2002d44:	ee120f30 	mrc	15, 0, r0, cr2, cr0, {1}
 2002d48:	e50f0064 	str	r0, [pc, #-100]	; 2002cec <val_cp15_201>
 2002d4c:	ee130f10 	mrc	15, 0, r0, cr3, cr0, {0}
 2002d50:	e50f0068 	str	r0, [pc, #-104]	; 2002cf0 <val_cp15_300>
 2002d54:	ee150f10 	mrc	15, 0, r0, cr5, cr0, {0}
 2002d58:	e50f006c 	str	r0, [pc, #-108]	; 2002cf4 <val_cp15_500>
 2002d5c:	ee150f30 	mrc	15, 0, r0, cr5, cr0, {1}
 2002d60:	e50f0070 	str	r0, [pc, #-112]	; 2002cf8 <val_cp15_501>
 2002d64:	ee150f50 	mrc	15, 0, r0, cr5, cr0, {2}
 2002d68:	e50f0074 	str	r0, [pc, #-116]	; 2002cfc <val_cp15_502>
 2002d6c:	ee150f70 	mrc	15, 0, r0, cr5, cr0, {3}
 2002d70:	e50f0078 	str	r0, [pc, #-120]	; 2002d00 <val_cp15_503>
 2002d74:	ee160f10 	mrc	15, 0, r0, cr6, cr0, {0}
 2002d78:	e50f007c 	str	r0, [pc, #-124]	; 2002d04 <val_cp15_600>
 2002d7c:	ee160f11 	mrc	15, 0, r0, cr6, cr1, {0}
 2002d80:	e50f0080 	str	r0, [pc, #-128]	; 2002d08 <val_cp15_610>
 2002d84:	ee160f12 	mrc	15, 0, r0, cr6, cr2, {0}
 2002d88:	e50f0084 	str	r0, [pc, #-132]	; 2002d0c <val_cp15_620>
 2002d8c:	ee160f13 	mrc	15, 0, r0, cr6, cr3, {0}
 2002d90:	e50f0088 	str	r0, [pc, #-136]	; 2002d10 <val_cp15_630>
 2002d94:	ee160f14 	mrc	15, 0, r0, cr6, cr4, {0}
 2002d98:	e50f008c 	str	r0, [pc, #-140]	; 2002d14 <val_cp15_640>
 2002d9c:	ee160f15 	mrc	15, 0, r0, cr6, cr5, {0}
 2002da0:	e50f0090 	str	r0, [pc, #-144]	; 2002d18 <val_cp15_650>
 2002da4:	ee160f16 	mrc	15, 0, r0, cr6, cr6, {0}
 2002da8:	e50f0094 	str	r0, [pc, #-148]	; 2002d1c <val_cp15_660>
 2002dac:	ee160f17 	mrc	15, 0, r0, cr6, cr7, {0}
 2002db0:	e50f0098 	str	r0, [pc, #-152]	; 2002d20 <val_cp15_670>
 2002db4:	ee190f11 	mrc	15, 0, r0, cr9, cr1, {0}
 2002db8:	e50f009c 	str	r0, [pc, #-156]	; 2002d24 <val_cp15_910>
 2002dbc:	ee190f31 	mrc	15, 0, r0, cr9, cr1, {1}
 2002dc0:	e50f00a0 	str	r0, [pc, #-160]	; 2002d28 <val_cp15_911>
 2002dc4:	eb000005 	bl	2002de0 <init_stackpointers>
 2002dc8:	eb000891 	bl	2005014 <test_initialstate>
 2002dcc:	ebfff4dd 	bl	2000148 <init_iostate>
 2002dd0:	ebfff4fb 	bl	20001c4 <l_resetIPCSYNC>

02002dd4 <main_post_init>:
 2002dd4:	eb000001 	bl	2002de0 <init_stackpointers>
 2002dd8:	ebfff53f 	bl	20002dc <cpp_menu>

02002ddc <forever>:
 2002ddc:	eafffffe 	b	2002ddc <forever>

02002de0 <init_stackpointers>:
 2002de0:	e10f3000 	mrs	r3, CPSR
 2002de4:	e1a04003 	mov	r4, r3
 2002de8:	e3c3301f 	bic	r3, r3, #31
 2002dec:	e3833012 	orr	r3, r3, #18
 2002df0:	e121f003 	msr	CPSR_c, r3
 2002df4:	e59fd008 	ldr	r13, [pc, #8]	; 2002e04 <init_stackpointers+0x24>
 2002df8:	e121f004 	msr	CPSR_c, r4
 2002dfc:	e59fd004 	ldr	r13, [pc, #4]	; 2002e08 <init_stackpointers+0x28>
 2002e00:	e12fff1e 	bx	r14
 2002e04:	02004e0c 	andeq	r4, r0, #12, 28	; 0xc0
 2002e08:	02003e0c 	andeq	r3, r0, #12, 28	; 0xc0

02002e0c <stack_normal>:
	...

02003e0c <stack_irq>:
	...

02004e0c <wait_b_released>:
 2004e0c:	e59f0084 	ldr	r0, [pc, #132]	; 2004e98 <txt_timeout_rw+0xd>
 2004e10:	e1d010b0 	ldrh	r1, [r0]
 2004e14:	e3110002 	tst	r1, #2
 2004e18:	1afffffb 	bne	2004e0c <wait_b_released>

02004e1c <wait_b_released2>:
 2004e1c:	e1d010b0 	ldrh	r1, [r0]
 2004e20:	e3110002 	tst	r1, #2
 2004e24:	0afffffc 	beq	2004e1c <wait_b_released2>
 2004e28:	eafff7e9 	b	2002dd4 <main_post_init>

02004e2c <fail_test>:
 2004e2c:	e52d0004 	push	{r0}		; (str r0, [r13, #-4]!)
 2004e30:	eb000bab 	bl	2007ce4 <disable_trace>
 2004e34:	e59f0060 	ldr	r0, [pc, #96]	; 2004e9c <txt_timeout_rw+0x11>
 2004e38:	e3a01005 	mov	r1, #5
 2004e3c:	e49d2004 	pop	{r2}		; (ldr r2, [r13], #4)
 2004e40:	ebffeeaa 	bl	20008f0 <cpp_fail_test>
 2004e44:	eafffff0 	b	2004e0c <wait_b_released>

02004e48 <timeout_test>:
 2004e48:	e52d0004 	push	{r0}		; (str r0, [r13, #-4]!)
 2004e4c:	eb000ba4 	bl	2007ce4 <disable_trace>
 2004e50:	e59f0048 	ldr	r0, [pc, #72]	; 2004ea0 <txt_timeout_rw+0x15>
 2004e54:	e3a01008 	mov	r1, #8
 2004e58:	e49d2004 	pop	{r2}		; (ldr r2, [r13], #4)
 2004e5c:	ebffeea3 	bl	20008f0 <cpp_fail_test>
 2004e60:	eaffffe9 	b	2004e0c <wait_b_released>

02004e64 <timeout_rw>:
 2004e64:	eb000b9e 	bl	2007ce4 <disable_trace>
 2004e68:	e59f0034 	ldr	r0, [pc, #52]	; 2004ea4 <txt_timeout_rw+0x19>
 2004e6c:	e3a0100c 	mov	r1, #12
 2004e70:	e3e02000 	mvn	r2, #0
 2004e74:	ebffee9d 	bl	20008f0 <cpp_fail_test>
 2004e78:	eaffffe3 	b	2004e0c <wait_b_released>

02004e7c <txt_fail>:
 2004e7c:	4c494146 	stfmie	f4, [r9], {70}	; 0x46
 2004e80:	 	ldmdbmi	r4, {r5}^

02004e82 <txt_timeout>:
 2004e82:	454d4954 	strbmi	r4, [r13, #-2388]	; 0xfffff6ac
 2004e86:	2054554f 	subscs	r5, r4, r15, asr #10
	...

02004e8b <txt_timeout_rw>:
 2004e8b:	454d4954 	strbmi	r4, [r13, #-2388]	; 0xfffff6ac
 2004e8f:	2054554f 	subscs	r5, r4, r15, asr #10
 2004e93:	20572f52 	subscs	r2, r7, r2, asr r15
 2004e97:	00013000 	andeq	r3, r1, r0
 2004e9b:	004e7c04 	subeq	r7, r14, r4, lsl #24
 2004e9f:	004e8202 	subeq	r8, r14, r2, lsl #4
 2004ea3:	004e8b02 	subeq	r8, r14, r2, lsl #22
 2004ea7:	 	ldmdbmi	r5, {r1, r9, r14}^

02004ea8 <txt_buildtime>:
 2004ea8:	4c495542 	cfstr64mi	mvdx5, [r9], {66}	; 0x42
 2004eac:	32302054 	eorscc	r2, r0, #84	; 0x54
 2004eb0:	2f34302f 	svccs	0x0034302f
 2004eb4:	33323032 	teqcc	r2, #50	; 0x32
 2004eb8:	3a323220 	bcc	2c91740 <_ZL12sqrt64_tests+0xc88ad4>
 2004ebc:	303a3530 	eorscc	r3, r10, r0, lsr r5
 2004ec0:	00000030 	andeq	r0, r0, r0, lsr r0

02004ec4 <_Z9check_divPK7DIVtesti>:
 2004ec4:	e92d47f0 	push	{r4, r5, r6, r7, r8, r9, r10, r14}
 2004ec8:	e2517000 	subs	r7, r1, #0
 2004ecc:	d8bd87f0 	pople	{r4, r5, r6, r7, r8, r9, r10, r15}
 2004ed0:	e59f50d8 	ldr	r5, [pc, #216]	; 2004fb0 <_Z9check_divPK7DIVtesti+0xec>
 2004ed4:	e1a06000 	mov	r6, r0
 2004ed8:	e3a09000 	mov	r9, #0
 2004edc:	e3a08301 	mov	r8, #67108864	; 0x4000000
 2004ee0:	e5963000 	ldr	r3, [r6]
 2004ee4:	e5883290 	str	r3, [r8, #656]	; 0x290
 2004ee8:	e5963004 	ldr	r3, [r6, #4]
 2004eec:	e5883294 	str	r3, [r8, #660]	; 0x294
 2004ef0:	e5963008 	ldr	r3, [r6, #8]
 2004ef4:	e5883298 	str	r3, [r8, #664]	; 0x298
 2004ef8:	e596300c 	ldr	r3, [r6, #12]
 2004efc:	e3a04901 	mov	r4, #16384	; 0x4000
 2004f00:	e588329c 	str	r3, [r8, #668]	; 0x29c
 2004f04:	ea000001 	b	2004f10 <_Z9check_divPK7DIVtesti+0x4c>
 2004f08:	e2544001 	subs	r4, r4, #1
 2004f0c:	0a000021 	beq	2004f98 <_Z9check_divPK7DIVtesti+0xd4>
 2004f10:	e1d538b0 	ldrh	r3, [r5, #128]	; 0x80
 2004f14:	e1b037a3 	lsrs	r3, r3, #15
 2004f18:	1afffffa 	bne	2004f08 <_Z9check_divPK7DIVtesti+0x44>
 2004f1c:	e59812a0 	ldr	r1, [r8, #672]	; 0x2a0
 2004f20:	e5963014 	ldr	r3, [r6, #20]
 2004f24:	e598a2a4 	ldr	r10, [r8, #676]	; 0x2a4
 2004f28:	e596e018 	ldr	r14, [r6, #24]
 2004f2c:	e59842a8 	ldr	r4, [r8, #680]	; 0x2a8
 2004f30:	e053300a 	subs	r3, r3, r10
 2004f34:	e59802ac 	ldr	r0, [r8, #684]	; 0x2ac
 2004f38:	e596c01c 	ldr	r12, [r6, #28]
 2004f3c:	13a03001 	movne	r3, #1
 2004f40:	e5962010 	ldr	r2, [r6, #16]
 2004f44:	e05ee004 	subs	r14, r14, r4
 2004f48:	13a0e001 	movne	r14, #1
 2004f4c:	e05cc000 	subs	r12, r12, r0
 2004f50:	13a0c001 	movne	r12, #1
 2004f54:	e1d508b0 	ldrh	r0, [r5, #128]	; 0x80
 2004f58:	e0522001 	subs	r2, r2, r1
 2004f5c:	13a02001 	movne	r2, #1
 2004f60:	e5d61020 	ldrb	r1, [r6, #32]
 2004f64:	e1a03083 	lsl	r3, r3, #1
 2004f68:	e182218c 	orr	r2, r2, r12, lsl #3
 2004f6c:	e183310e 	orr	r3, r3, r14, lsl #2
 2004f70:	e1a00880 	lsl	r0, r0, #17
 2004f74:	e1833002 	orr	r3, r3, r2
 2004f78:	e0212fa0 	eor	r2, r1, r0, lsr #31
 2004f7c:	e1933202 	orrs	r3, r3, r2, lsl #4
 2004f80:	1a000007 	bne	2004fa4 <_Z9check_divPK7DIVtesti+0xe0>
 2004f84:	e2899001 	add	r9, r9, #1
 2004f88:	e1570009 	cmp	r7, r9
 2004f8c:	e2866024 	add	r6, r6, #36	; 0x24
 2004f90:	1affffd2 	bne	2004ee0 <_Z9check_divPK7DIVtesti+0x1c>
 2004f94:	e8bd87f0 	pop	{r4, r5, r6, r7, r8, r9, r10, r15}
 2004f98:	e1a00009 	mov	r0, r9
 2004f9c:	ebffffa9 	bl	2004e48 <timeout_test>
 2004fa0:	eaffffda 	b	2004f10 <_Z9check_divPK7DIVtesti+0x4c>
 2004fa4:	e1a00009 	mov	r0, r9
 2004fa8:	ebffff9f 	bl	2004e2c <fail_test>
 2004fac:	eafffff4 	b	2004f84 <_Z9check_divPK7DIVtesti+0xc0>
 2004fb0:	04000200 	streq	r0, [r0], #-512	; 0xfffffe00

02004fb4 <_Z28run_tests_ds_maths_div_32_32v>:
 2004fb4:	e59f3010 	ldr	r3, [pc, #16]	; 2004fcc <_Z28run_tests_ds_maths_div_32_32v+0x18>
 2004fb8:	e3a02000 	mov	r2, #0
 2004fbc:	e59f000c 	ldr	r0, [pc, #12]	; 2004fd0 <_Z28run_tests_ds_maths_div_32_32v+0x1c>
 2004fc0:	e3a0101b 	mov	r1, #27
 2004fc4:	e1c328b0 	strh	r2, [r3, #128]	; 0x80
 2004fc8:	eaffffbd 	b	2004ec4 <_Z9check_divPK7DIVtesti>
 2004fcc:	04000200 	streq	r0, [r0], #-512	; 0xfffffe00
 2004fd0:	020081b0 	andeq	r8, r0, #176, 2	; 0x2c

02004fd4 <_Z28run_tests_ds_maths_div_64_32v>:
 2004fd4:	e59f3010 	ldr	r3, [pc, #16]	; 2004fec <_Z28run_tests_ds_maths_div_64_32v+0x18>
 2004fd8:	e3a02001 	mov	r2, #1
 2004fdc:	e59f000c 	ldr	r0, [pc, #12]	; 2004ff0 <_Z28run_tests_ds_maths_div_64_32v+0x1c>
 2004fe0:	e3a01017 	mov	r1, #23
 2004fe4:	e1c328b0 	strh	r2, [r3, #128]	; 0x80
 2004fe8:	eaffffb5 	b	2004ec4 <_Z9check_divPK7DIVtesti>
 2004fec:	04000200 	streq	r0, [r0], #-512	; 0xfffffe00
 2004ff0:	0200857c 	andeq	r8, r0, #124, 10	; 0x1f000000

02004ff4 <_Z28run_tests_ds_maths_div_64_64v>:
 2004ff4:	e59f3010 	ldr	r3, [pc, #16]	; 200500c <_Z28run_tests_ds_maths_div_64_64v+0x18>
 2004ff8:	e3a02002 	mov	r2, #2
 2004ffc:	e59f000c 	ldr	r0, [pc, #12]	; 2005010 <_Z28run_tests_ds_maths_div_64_64v+0x1c>
 2005000:	e3a01014 	mov	r1, #20
 2005004:	e1c328b0 	strh	r2, [r3, #128]	; 0x80
 2005008:	eaffffad 	b	2004ec4 <_Z9check_divPK7DIVtesti>
 200500c:	04000200 	streq	r0, [r0], #-512	; 0xfffffe00
 2005010:	020088b8 	andeq	r8, r0, #184, 16	; 0xb80000

02005014 <test_initialstate>:
 2005014:	e52de004 	push	{r14}		; (str r14, [r13, #-4]!)
 2005018:	e24dd00c 	sub	r13, r13, #12
 200501c:	eb000b3d 	bl	2007d18 <l_DIC>
 2005020:	e59f009c 	ldr	r0, [pc, #156]	; 20050c4 <test_initialstate+0xb0>
 2005024:	e59f209c 	ldr	r2, [pc, #156]	; 20050c8 <test_initialstate+0xb4>
 2005028:	e1d038b0 	ldrh	r3, [r0, #128]	; 0x80
 200502c:	e1c230b0 	strh	r3, [r2]
 2005030:	e3a01903 	mov	r1, #49152	; 0xc000
 2005034:	e1d0c8b4 	ldrh	r12, [r0, #132]	; 0x84
 2005038:	e3a03000 	mov	r3, #0
 200503c:	e1c2c0b2 	strh	r12, [r2, #2]
 2005040:	e1c018b4 	strh	r1, [r0, #132]	; 0x84
 2005044:	e3a0c641 	mov	r12, #68157440	; 0x4100000
 2005048:	e1c230b4 	strh	r3, [r2, #4]
 200504c:	ea000008 	b	2005074 <test_initialstate+0x60>
 2005050:	e1d230b4 	ldrh	r3, [r2, #4]
 2005054:	e59c1000 	ldr	r1, [r12]
 2005058:	e2833001 	add	r3, r3, #1
 200505c:	e1a03803 	lsl	r3, r3, #16
 2005060:	e1a03823 	lsr	r3, r3, #16
 2005064:	e3530014 	cmp	r3, #20
 2005068:	e58d1004 	str	r1, [r13, #4]
 200506c:	e1c230b4 	strh	r3, [r2, #4]
 2005070:	8a000010 	bhi	20050b8 <test_initialstate+0xa4>
 2005074:	e1d038b4 	ldrh	r3, [r0, #132]	; 0x84
 2005078:	e3130c01 	tst	r3, #256	; 0x100
 200507c:	0afffff3 	beq	2005050 <test_initialstate+0x3c>
 2005080:	e3a03301 	mov	r3, #67108864	; 0x4000000
 2005084:	e5930208 	ldr	r0, [r3, #520]	; 0x208
 2005088:	e3a01000 	mov	r1, #0
 200508c:	e593c210 	ldr	r12, [r3, #528]	; 0x210
 2005090:	e5820008 	str	r0, [r2, #8]
 2005094:	e5930214 	ldr	r0, [r3, #532]	; 0x214
 2005098:	e582c00c 	str	r12, [r2, #12]
 200509c:	e5831208 	str	r1, [r3, #520]	; 0x208
 20050a0:	e5820010 	str	r0, [r2, #16]
 20050a4:	e3e02000 	mvn	r2, #0
 20050a8:	e5831210 	str	r1, [r3, #528]	; 0x210
 20050ac:	e5832214 	str	r2, [r3, #532]	; 0x214
 20050b0:	e28dd00c 	add	r13, r13, #12
 20050b4:	e49df004 	pop	{r15}		; (ldr r15, [r13], #4)
 20050b8:	e3e03000 	mvn	r3, #0
 20050bc:	e1c230b4 	strh	r3, [r2, #4]
 20050c0:	eaffffee 	b	2005080 <test_initialstate+0x6c>
 20050c4:	04000100 	streq	r0, [r0], #-256	; 0xffffff00
 20050c8:	02007f6c 	andeq	r7, r0, #108, 30	; 0x1b0

020050cc <_Z35run_tests_initialstate_ipc_irq_cpsrv>:
 20050cc:	e92d41f0 	push	{r4, r5, r6, r7, r8, r14}
 20050d0:	e59f22fc 	ldr	r2, [pc, #764]	; 20053d4 <_Z35run_tests_initialstate_ipc_irq_cpsrv+0x308>
 20050d4:	e3a01001 	mov	r1, #1
 20050d8:	e3a0000f 	mov	r0, #15
 20050dc:	ebffec70 	bl	20002a4 <_Z11draw_stringiiPKc>
 20050e0:	e59f22f0 	ldr	r2, [pc, #752]	; 20053d8 <_Z35run_tests_initialstate_ipc_irq_cpsrv+0x30c>
 20050e4:	e3a01001 	mov	r1, #1
 20050e8:	e3a00018 	mov	r0, #24
 20050ec:	ebffec6c 	bl	20002a4 <_Z11draw_stringiiPKc>
 20050f0:	e59f22e4 	ldr	r2, [pc, #740]	; 20053dc <_Z35run_tests_initialstate_ipc_irq_cpsrv+0x310>
 20050f4:	e3a01003 	mov	r1, #3
 20050f8:	e3a00002 	mov	r0, #2
 20050fc:	ebffec68 	bl	20002a4 <_Z11draw_stringiiPKc>
 2005100:	e3a03402 	mov	r3, #33554432	; 0x2000000
 2005104:	e5935004 	ldr	r5, [r3, #4]
 2005108:	e3a04003 	mov	r4, #3
 200510c:	e1a02104 	lsl	r2, r4, #2
 2005110:	e1a02235 	lsr	r2, r5, r2
 2005114:	e2640014 	rsb	r0, r4, #20
 2005118:	e202200f 	and	r2, r2, #15
 200511c:	e3a01003 	mov	r1, #3
 2005120:	e2444001 	sub	r4, r4, #1
 2005124:	ebffec45 	bl	2000240 <_Z9draw_tileiii>
 2005128:	e3740001 	cmn	r4, #1
 200512c:	1afffff6 	bne	200510c <_Z35run_tests_initialstate_ipc_irq_cpsrv+0x40>
 2005130:	e59f62a8 	ldr	r6, [pc, #680]	; 20053e0 <_Z35run_tests_initialstate_ipc_irq_cpsrv+0x314>
 2005134:	e3a04003 	mov	r4, #3
 2005138:	e1d650b0 	ldrh	r5, [r6]
 200513c:	e1a02104 	lsl	r2, r4, #2
 2005140:	e1a02235 	lsr	r2, r5, r2
 2005144:	e264001d 	rsb	r0, r4, #29
 2005148:	e202200f 	and	r2, r2, #15
 200514c:	e3a01003 	mov	r1, #3
 2005150:	e2444001 	sub	r4, r4, #1
 2005154:	ebffec39 	bl	2000240 <_Z9draw_tileiii>
 2005158:	e3740001 	cmn	r4, #1
 200515c:	1afffff6 	bne	200513c <_Z35run_tests_initialstate_ipc_irq_cpsrv+0x70>
 2005160:	e59f227c 	ldr	r2, [pc, #636]	; 20053e4 <_Z35run_tests_initialstate_ipc_irq_cpsrv+0x318>
 2005164:	e3a01004 	mov	r1, #4
 2005168:	e3a00002 	mov	r0, #2
 200516c:	ebffec4c 	bl	20002a4 <_Z11draw_stringiiPKc>
 2005170:	e3a03402 	mov	r3, #33554432	; 0x2000000
 2005174:	e5935008 	ldr	r5, [r3, #8]
 2005178:	e3a04003 	mov	r4, #3
 200517c:	e1a02104 	lsl	r2, r4, #2
 2005180:	e1a02235 	lsr	r2, r5, r2
 2005184:	e2640014 	rsb	r0, r4, #20
 2005188:	e202200f 	and	r2, r2, #15
 200518c:	e3a01004 	mov	r1, #4
 2005190:	e2444001 	sub	r4, r4, #1
 2005194:	ebffec29 	bl	2000240 <_Z9draw_tileiii>
 2005198:	e3740001 	cmn	r4, #1
 200519c:	1afffff6 	bne	200517c <_Z35run_tests_initialstate_ipc_irq_cpsrv+0xb0>
 20051a0:	e1d650b2 	ldrh	r5, [r6, #2]
 20051a4:	e3a04003 	mov	r4, #3
 20051a8:	e1a02104 	lsl	r2, r4, #2
 20051ac:	e1a02235 	lsr	r2, r5, r2
 20051b0:	e264001d 	rsb	r0, r4, #29
 20051b4:	e202200f 	and	r2, r2, #15
 20051b8:	e3a01004 	mov	r1, #4
 20051bc:	e2444001 	sub	r4, r4, #1
 20051c0:	ebffec1e 	bl	2000240 <_Z9draw_tileiii>
 20051c4:	e3740001 	cmn	r4, #1
 20051c8:	1afffff6 	bne	20051a8 <_Z35run_tests_initialstate_ipc_irq_cpsrv+0xdc>
 20051cc:	e59f2214 	ldr	r2, [pc, #532]	; 20053e8 <_Z35run_tests_initialstate_ipc_irq_cpsrv+0x31c>
 20051d0:	e3a01005 	mov	r1, #5
 20051d4:	e3a00002 	mov	r0, #2
 20051d8:	ebffec31 	bl	20002a4 <_Z11draw_stringiiPKc>
 20051dc:	e3a03402 	mov	r3, #33554432	; 0x2000000
 20051e0:	e593500c 	ldr	r5, [r3, #12]
 20051e4:	e3a04003 	mov	r4, #3
 20051e8:	e1a02104 	lsl	r2, r4, #2
 20051ec:	e1a02235 	lsr	r2, r5, r2
 20051f0:	e2640014 	rsb	r0, r4, #20
 20051f4:	e202200f 	and	r2, r2, #15
 20051f8:	e3a01005 	mov	r1, #5
 20051fc:	e2444001 	sub	r4, r4, #1
 2005200:	ebffec0e 	bl	2000240 <_Z9draw_tileiii>
 2005204:	e3740001 	cmn	r4, #1
 2005208:	1afffff6 	bne	20051e8 <_Z35run_tests_initialstate_ipc_irq_cpsrv+0x11c>
 200520c:	e1d650b4 	ldrh	r5, [r6, #4]
 2005210:	e3a04003 	mov	r4, #3
 2005214:	e1a02104 	lsl	r2, r4, #2
 2005218:	e1a02235 	lsr	r2, r5, r2
 200521c:	e264001d 	rsb	r0, r4, #29
 2005220:	e202200f 	and	r2, r2, #15
 2005224:	e3a01005 	mov	r1, #5
 2005228:	e2444001 	sub	r4, r4, #1
 200522c:	ebffec03 	bl	2000240 <_Z9draw_tileiii>
 2005230:	e3740001 	cmn	r4, #1
 2005234:	1afffff6 	bne	2005214 <_Z35run_tests_initialstate_ipc_irq_cpsrv+0x148>
 2005238:	e3a04402 	mov	r4, #33554432	; 0x2000000
 200523c:	e59f21a8 	ldr	r2, [pc, #424]	; 20053ec <_Z35run_tests_initialstate_ipc_irq_cpsrv+0x320>
 2005240:	e3a01007 	mov	r1, #7
 2005244:	e3a00002 	mov	r0, #2
 2005248:	ebffec15 	bl	20002a4 <_Z11draw_stringiiPKc>
 200524c:	e5942010 	ldr	r2, [r4, #16]
 2005250:	e3a01007 	mov	r1, #7
 2005254:	e202200f 	and	r2, r2, #15
 2005258:	e3a00014 	mov	r0, #20
 200525c:	ebffebf7 	bl	2000240 <_Z9draw_tileiii>
 2005260:	e5962008 	ldr	r2, [r6, #8]
 2005264:	e3a01007 	mov	r1, #7
 2005268:	e202200f 	and	r2, r2, #15
 200526c:	e3a0001d 	mov	r0, #29
 2005270:	ebffebf2 	bl	2000240 <_Z9draw_tileiii>
 2005274:	e59f2174 	ldr	r2, [pc, #372]	; 20053f0 <_Z35run_tests_initialstate_ipc_irq_cpsrv+0x324>
 2005278:	e3a01008 	mov	r1, #8
 200527c:	e3a00002 	mov	r0, #2
 2005280:	ebffec07 	bl	20002a4 <_Z11draw_stringiiPKc>
 2005284:	e3a0500d 	mov	r5, #13
 2005288:	e5947014 	ldr	r7, [r4, #20]
 200528c:	e3a0401c 	mov	r4, #28
 2005290:	e1a02437 	lsr	r2, r7, r4
 2005294:	e1a00005 	mov	r0, r5
 2005298:	e202200f 	and	r2, r2, #15
 200529c:	e3a01008 	mov	r1, #8
 20052a0:	e2444004 	sub	r4, r4, #4
 20052a4:	ebffebe5 	bl	2000240 <_Z9draw_tileiii>
 20052a8:	e3740004 	cmn	r4, #4
 20052ac:	e2855001 	add	r5, r5, #1
 20052b0:	1afffff6 	bne	2005290 <_Z35run_tests_initialstate_ipc_irq_cpsrv+0x1c4>
 20052b4:	e596700c 	ldr	r7, [r6, #12]
 20052b8:	e3a05016 	mov	r5, #22
 20052bc:	e3a0401c 	mov	r4, #28
 20052c0:	e1a02437 	lsr	r2, r7, r4
 20052c4:	e1a00005 	mov	r0, r5
 20052c8:	e202200f 	and	r2, r2, #15
 20052cc:	e3a01008 	mov	r1, #8
 20052d0:	e2444004 	sub	r4, r4, #4
 20052d4:	ebffebd9 	bl	2000240 <_Z9draw_tileiii>
 20052d8:	e3740004 	cmn	r4, #4
 20052dc:	e2855001 	add	r5, r5, #1
 20052e0:	1afffff6 	bne	20052c0 <_Z35run_tests_initialstate_ipc_irq_cpsrv+0x1f4>
 20052e4:	e59f2108 	ldr	r2, [pc, #264]	; 20053f4 <_Z35run_tests_initialstate_ipc_irq_cpsrv+0x328>
 20052e8:	e3a01009 	mov	r1, #9
 20052ec:	e3a00002 	mov	r0, #2
 20052f0:	ebffebeb 	bl	20002a4 <_Z11draw_stringiiPKc>
 20052f4:	e3a03402 	mov	r3, #33554432	; 0x2000000
 20052f8:	e5937018 	ldr	r7, [r3, #24]
 20052fc:	e3a0500d 	mov	r5, #13
 2005300:	e3a0401c 	mov	r4, #28
 2005304:	e1a02437 	lsr	r2, r7, r4
 2005308:	e1a00005 	mov	r0, r5
 200530c:	e202200f 	and	r2, r2, #15
 2005310:	e3a01009 	mov	r1, #9
 2005314:	e2444004 	sub	r4, r4, #4
 2005318:	ebffebc8 	bl	2000240 <_Z9draw_tileiii>
 200531c:	e3740004 	cmn	r4, #4
 2005320:	e2855001 	add	r5, r5, #1
 2005324:	1afffff6 	bne	2005304 <_Z35run_tests_initialstate_ipc_irq_cpsrv+0x238>
 2005328:	e5966010 	ldr	r6, [r6, #16]
 200532c:	e3a05016 	mov	r5, #22
 2005330:	e3a0401c 	mov	r4, #28
 2005334:	e1a02436 	lsr	r2, r6, r4
 2005338:	e1a00005 	mov	r0, r5
 200533c:	e202200f 	and	r2, r2, #15
 2005340:	e3a01009 	mov	r1, #9
 2005344:	e2444004 	sub	r4, r4, #4
 2005348:	ebffebbc 	bl	2000240 <_Z9draw_tileiii>
 200534c:	e3740004 	cmn	r4, #4
 2005350:	e2855001 	add	r5, r5, #1
 2005354:	1afffff6 	bne	2005334 <_Z35run_tests_initialstate_ipc_irq_cpsrv+0x268>
 2005358:	e59f2098 	ldr	r2, [pc, #152]	; 20053f8 <_Z35run_tests_initialstate_ipc_irq_cpsrv+0x32c>
 200535c:	e3a0100b 	mov	r1, #11
 2005360:	e3a00002 	mov	r0, #2
 2005364:	ebffebce 	bl	20002a4 <_Z11draw_stringiiPKc>
 2005368:	e3a03402 	mov	r3, #33554432	; 0x2000000
 200536c:	e593601c 	ldr	r6, [r3, #28]
 2005370:	e3a0500d 	mov	r5, #13
 2005374:	e3a0401c 	mov	r4, #28
 2005378:	e1a02436 	lsr	r2, r6, r4
 200537c:	e1a00005 	mov	r0, r5
 2005380:	e202200f 	and	r2, r2, #15
 2005384:	e3a0100b 	mov	r1, #11
 2005388:	e2444004 	sub	r4, r4, #4
 200538c:	ebffebab 	bl	2000240 <_Z9draw_tileiii>
 2005390:	e3740004 	cmn	r4, #4
 2005394:	e2855001 	add	r5, r5, #1
 2005398:	1afffff6 	bne	2005378 <_Z35run_tests_initialstate_ipc_irq_cpsrv+0x2ac>
 200539c:	e59f3058 	ldr	r3, [pc, #88]	; 20053fc <_Z35run_tests_initialstate_ipc_irq_cpsrv+0x330>
 20053a0:	e3a05016 	mov	r5, #22
 20053a4:	e5936000 	ldr	r6, [r3]
 20053a8:	e3a0401c 	mov	r4, #28
 20053ac:	e1a02436 	lsr	r2, r6, r4
 20053b0:	e1a00005 	mov	r0, r5
 20053b4:	e202200f 	and	r2, r2, #15
 20053b8:	e3a0100b 	mov	r1, #11
 20053bc:	e2444004 	sub	r4, r4, #4
 20053c0:	ebffeb9e 	bl	2000240 <_Z9draw_tileiii>
 20053c4:	e3740004 	cmn	r4, #4
 20053c8:	e2855001 	add	r5, r5, #1
 20053cc:	1afffff6 	bne	20053ac <_Z35run_tests_initialstate_ipc_irq_cpsrv+0x2e0>
 20053d0:	e8bd81f0 	pop	{r4, r5, r6, r7, r8, r15}
 20053d4:	02008db0 	andeq	r8, r0, #176, 26	; 0x2c00
 20053d8:	02008f24 	andeq	r8, r0, #36, 30	; 0x90
 20053dc:	02008e74 	andeq	r8, r0, #116, 28	; 0x740
 20053e0:	02007f6c 	andeq	r7, r0, #108, 30	; 0x1b0
 20053e4:	02008f2c 	andeq	r8, r0, #44, 30	; 0xb0
 20053e8:	02008f38 	andeq	r8, r0, #56, 30	; 0xe0
 20053ec:	02008f44 	andeq	r8, r0, #68, 30	; 0x110
 20053f0:	02008f48 	andeq	r8, r0, #72, 30	; 0x120
 20053f4:	02008f4c 	andeq	r8, r0, #76, 30	; 0x130
 20053f8:	02008e14 	andeq	r8, r0, #20, 28	; 0x140
 20053fc:	02002ce0 	andeq	r2, r0, #224, 24	; 0xe000

02005400 <_Z27run_tests_initialstate_cp15v>:
 2005400:	e92d4ff0 	push	{r4, r5, r6, r7, r8, r9, r10, r11, r14}
 2005404:	e24dd04c 	sub	r13, r13, #76	; 0x4c
 2005408:	e59f1084 	ldr	r1, [pc, #132]	; 2005494 <_Z27run_tests_initialstate_cp15v+0x94>
 200540c:	e3a02048 	mov	r2, #72	; 0x48
 2005410:	e1a0000d 	mov	r0, r13
 2005414:	eb000a44 	bl	2007d2c <memcpy>
 2005418:	e59f9078 	ldr	r9, [pc, #120]	; 2005498 <_Z27run_tests_initialstate_cp15v+0x98>
 200541c:	e24d8004 	sub	r8, r13, #4
 2005420:	e28da044 	add	r10, r13, #68	; 0x44
 2005424:	e3a07000 	mov	r7, #0
 2005428:	e3a0b001 	mov	r11, #1
 200542c:	e5b82004 	ldr	r2, [r8, #4]!
 2005430:	e1a0100b 	mov	r1, r11
 2005434:	e3a00002 	mov	r0, #2
 2005438:	ebffeb99 	bl	20002a4 <_Z11draw_stringiiPKc>
 200543c:	e5b96004 	ldr	r6, [r9, #4]!
 2005440:	e3a0500a 	mov	r5, #10
 2005444:	e3a0401c 	mov	r4, #28
 2005448:	e1a02436 	lsr	r2, r6, r4
 200544c:	e1a00005 	mov	r0, r5
 2005450:	e202200f 	and	r2, r2, #15
 2005454:	e1a0100b 	mov	r1, r11
 2005458:	e2444004 	sub	r4, r4, #4
 200545c:	ebffeb77 	bl	2000240 <_Z9draw_tileiii>
 2005460:	e3740004 	cmn	r4, #4
 2005464:	e2855001 	add	r5, r5, #1
 2005468:	1afffff6 	bne	2005448 <_Z27run_tests_initialstate_cp15v+0x48>
 200546c:	e3c73004 	bic	r3, r7, #4
 2005470:	e357000f 	cmp	r7, #15
 2005474:	13530003 	cmpne	r3, #3
 2005478:	128bb001 	addne	r11, r11, #1
 200547c:	028bb002 	addeq	r11, r11, #2
 2005480:	e158000a 	cmp	r8, r10
 2005484:	e2877001 	add	r7, r7, #1
 2005488:	1affffe7 	bne	200542c <_Z27run_tests_initialstate_cp15v+0x2c>
 200548c:	e28dd04c 	add	r13, r13, #76	; 0x4c
 2005490:	e8bd8ff0 	pop	{r4, r5, r6, r7, r8, r9, r10, r11, r15}
 2005494:	02008b88 	andeq	r8, r0, #136, 22	; 0x22000
 2005498:	02002ce0 	andeq	r2, r0, #224, 24	; 0xe000

0200549c <_Z17run_tests_ipcfifov>:
 200549c:	e59f3334 	ldr	r3, [pc, #820]	; 20057d8 <_Z17run_tests_ipcfifov+0x33c>
 20054a0:	e3a01902 	mov	r1, #32768	; 0x8000
 20054a4:	e3a02b03 	mov	r2, #3072	; 0xc00
 20054a8:	e92d4070 	push	{r4, r5, r6, r14}
 20054ac:	e3a00000 	mov	r0, #0
 20054b0:	e1c318b4 	strh	r1, [r3, #132]	; 0x84
 20054b4:	e1c328b0 	strh	r2, [r3, #128]	; 0x80
 20054b8:	ebffeb11 	bl	2000104 <_Z17read_from_IPCFIFOi>
 20054bc:	e59f3318 	ldr	r3, [pc, #792]	; 20057dc <_Z17run_tests_ipcfifov+0x340>
 20054c0:	e1500003 	cmp	r0, r3
 20054c4:	0a000001 	beq	20054d0 <_Z17run_tests_ipcfifov+0x34>
 20054c8:	e3a00001 	mov	r0, #1
 20054cc:	ebfffe56 	bl	2004e2c <fail_test>
 20054d0:	e59f3300 	ldr	r3, [pc, #768]	; 20057d8 <_Z17run_tests_ipcfifov+0x33c>
 20054d4:	e3a02000 	mov	r2, #0
 20054d8:	e1c328b0 	strh	r2, [r3, #128]	; 0x80
 20054dc:	e1d338b4 	ldrh	r3, [r3, #132]	; 0x84
 20054e0:	e3130001 	tst	r3, #1
 20054e4:	0a0000b8 	beq	20057cc <_Z17run_tests_ipcfifov+0x330>
 20054e8:	e59f32e8 	ldr	r3, [pc, #744]	; 20057d8 <_Z17run_tests_ipcfifov+0x33c>
 20054ec:	e1d338b4 	ldrh	r3, [r3, #132]	; 0x84
 20054f0:	e3130002 	tst	r3, #2
 20054f4:	1a0000b1 	bne	20057c0 <_Z17run_tests_ipcfifov+0x324>
 20054f8:	e59f32d8 	ldr	r3, [pc, #728]	; 20057d8 <_Z17run_tests_ipcfifov+0x33c>
 20054fc:	e1d338b4 	ldrh	r3, [r3, #132]	; 0x84
 2005500:	e3130c01 	tst	r3, #256	; 0x100
 2005504:	0a0000aa 	beq	20057b4 <_Z17run_tests_ipcfifov+0x318>
 2005508:	e59f32c8 	ldr	r3, [pc, #712]	; 20057d8 <_Z17run_tests_ipcfifov+0x33c>
 200550c:	e1d338b4 	ldrh	r3, [r3, #132]	; 0x84
 2005510:	e3130c02 	tst	r3, #512	; 0x200
 2005514:	1a0000a3 	bne	20057a8 <_Z17run_tests_ipcfifov+0x30c>
 2005518:	e59f32b8 	ldr	r3, [pc, #696]	; 20057d8 <_Z17run_tests_ipcfifov+0x33c>
 200551c:	e1d338b4 	ldrh	r3, [r3, #132]	; 0x84
 2005520:	e3130901 	tst	r3, #16384	; 0x4000
 2005524:	1a00009c 	bne	200579c <_Z17run_tests_ipcfifov+0x300>
 2005528:	e3a03301 	mov	r3, #67108864	; 0x4000000
 200552c:	e59f02ac 	ldr	r0, [pc, #684]	; 20057e0 <_Z17run_tests_ipcfifov+0x344>
 2005530:	e59f12ac 	ldr	r1, [pc, #684]	; 20057e4 <_Z17run_tests_ipcfifov+0x348>
 2005534:	e59f22ac 	ldr	r2, [pc, #684]	; 20057e8 <_Z17run_tests_ipcfifov+0x34c>
 2005538:	e5830188 	str	r0, [r3, #392]	; 0x188
 200553c:	e59f5294 	ldr	r5, [pc, #660]	; 20057d8 <_Z17run_tests_ipcfifov+0x33c>
 2005540:	e5831188 	str	r1, [r3, #392]	; 0x188
 2005544:	e3a04901 	mov	r4, #16384	; 0x4000
 2005548:	e5832188 	str	r2, [r3, #392]	; 0x188
 200554c:	ea000001 	b	2005558 <_Z17run_tests_ipcfifov+0xbc>
 2005550:	e2544001 	subs	r4, r4, #1
 2005554:	0a00005d 	beq	20056d0 <_Z17run_tests_ipcfifov+0x234>
 2005558:	e1d538b4 	ldrh	r3, [r5, #132]	; 0x84
 200555c:	e3130c02 	tst	r3, #512	; 0x200
 2005560:	0afffffa 	beq	2005550 <_Z17run_tests_ipcfifov+0xb4>
 2005564:	e1d538b4 	ldrh	r3, [r5, #132]	; 0x84
 2005568:	e3130001 	tst	r3, #1
 200556c:	0a000087 	beq	2005790 <_Z17run_tests_ipcfifov+0x2f4>
 2005570:	e59f3260 	ldr	r3, [pc, #608]	; 20057d8 <_Z17run_tests_ipcfifov+0x33c>
 2005574:	e1d338b4 	ldrh	r3, [r3, #132]	; 0x84
 2005578:	e3130002 	tst	r3, #2
 200557c:	1a000080 	bne	2005784 <_Z17run_tests_ipcfifov+0x2e8>
 2005580:	e59f3250 	ldr	r3, [pc, #592]	; 20057d8 <_Z17run_tests_ipcfifov+0x33c>
 2005584:	e1d338b4 	ldrh	r3, [r3, #132]	; 0x84
 2005588:	e3130c01 	tst	r3, #256	; 0x100
 200558c:	1a000079 	bne	2005778 <_Z17run_tests_ipcfifov+0x2dc>
 2005590:	e59f3240 	ldr	r3, [pc, #576]	; 20057d8 <_Z17run_tests_ipcfifov+0x33c>
 2005594:	e1d338b4 	ldrh	r3, [r3, #132]	; 0x84
 2005598:	e3130901 	tst	r3, #16384	; 0x4000
 200559c:	1a000072 	bne	200576c <_Z17run_tests_ipcfifov+0x2d0>
 20055a0:	e59f6244 	ldr	r6, [pc, #580]	; 20057ec <_Z17run_tests_ipcfifov+0x350>
 20055a4:	e3a04411 	mov	r4, #285212672	; 0x11000000
 20055a8:	e3a05641 	mov	r5, #68157440	; 0x4100000
 20055ac:	e5953000 	ldr	r3, [r5]
 20055b0:	e28404ef 	add	r0, r4, #-285212672	; 0xef000000
 20055b4:	e1530004 	cmp	r3, r4
 20055b8:	e2800010 	add	r0, r0, #16
 20055bc:	e2844001 	add	r4, r4, #1
 20055c0:	0a000000 	beq	20055c8 <_Z17run_tests_ipcfifov+0x12c>
 20055c4:	ebfffe18 	bl	2004e2c <fail_test>
 20055c8:	e1540006 	cmp	r4, r6
 20055cc:	1afffff6 	bne	20055ac <_Z17run_tests_ipcfifov+0x110>
 20055d0:	e59f3200 	ldr	r3, [pc, #512]	; 20057d8 <_Z17run_tests_ipcfifov+0x33c>
 20055d4:	e1d338b4 	ldrh	r3, [r3, #132]	; 0x84
 20055d8:	e3130001 	tst	r3, #1
 20055dc:	0a00005f 	beq	2005760 <_Z17run_tests_ipcfifov+0x2c4>
 20055e0:	e59f31f0 	ldr	r3, [pc, #496]	; 20057d8 <_Z17run_tests_ipcfifov+0x33c>
 20055e4:	e1d338b4 	ldrh	r3, [r3, #132]	; 0x84
 20055e8:	e3130002 	tst	r3, #2
 20055ec:	1a000058 	bne	2005754 <_Z17run_tests_ipcfifov+0x2b8>
 20055f0:	e59f31e0 	ldr	r3, [pc, #480]	; 20057d8 <_Z17run_tests_ipcfifov+0x33c>
 20055f4:	e1d338b4 	ldrh	r3, [r3, #132]	; 0x84
 20055f8:	e3130c01 	tst	r3, #256	; 0x100
 20055fc:	0a000051 	beq	2005748 <_Z17run_tests_ipcfifov+0x2ac>
 2005600:	e59f31d0 	ldr	r3, [pc, #464]	; 20057d8 <_Z17run_tests_ipcfifov+0x33c>
 2005604:	e1d338b4 	ldrh	r3, [r3, #132]	; 0x84
 2005608:	e3130c02 	tst	r3, #512	; 0x200
 200560c:	1a000035 	bne	20056e8 <_Z17run_tests_ipcfifov+0x24c>
 2005610:	e59f31c0 	ldr	r3, [pc, #448]	; 20057d8 <_Z17run_tests_ipcfifov+0x33c>
 2005614:	e1d338b4 	ldrh	r3, [r3, #132]	; 0x84
 2005618:	e3130901 	tst	r3, #16384	; 0x4000
 200561c:	1a00002e 	bne	20056dc <_Z17run_tests_ipcfifov+0x240>
 2005620:	e3a03641 	mov	r3, #68157440	; 0x4100000
 2005624:	e5932000 	ldr	r2, [r3]
 2005628:	e59f31c0 	ldr	r3, [pc, #448]	; 20057f0 <_Z17run_tests_ipcfifov+0x354>
 200562c:	e1520003 	cmp	r2, r3
 2005630:	0a000001 	beq	200563c <_Z17run_tests_ipcfifov+0x1a0>
 2005634:	e3a00025 	mov	r0, #37	; 0x25
 2005638:	ebfffdfb 	bl	2004e2c <fail_test>
 200563c:	e59f3194 	ldr	r3, [pc, #404]	; 20057d8 <_Z17run_tests_ipcfifov+0x33c>
 2005640:	e1d338b4 	ldrh	r3, [r3, #132]	; 0x84
 2005644:	e3130001 	tst	r3, #1
 2005648:	0a00003b 	beq	200573c <_Z17run_tests_ipcfifov+0x2a0>
 200564c:	e59f3184 	ldr	r3, [pc, #388]	; 20057d8 <_Z17run_tests_ipcfifov+0x33c>
 2005650:	e1d338b4 	ldrh	r3, [r3, #132]	; 0x84
 2005654:	e3130002 	tst	r3, #2
 2005658:	1a000034 	bne	2005730 <_Z17run_tests_ipcfifov+0x294>
 200565c:	e59f3174 	ldr	r3, [pc, #372]	; 20057d8 <_Z17run_tests_ipcfifov+0x33c>
 2005660:	e1d338b4 	ldrh	r3, [r3, #132]	; 0x84
 2005664:	e3130c01 	tst	r3, #256	; 0x100
 2005668:	0a00002d 	beq	2005724 <_Z17run_tests_ipcfifov+0x288>
 200566c:	e59f3164 	ldr	r3, [pc, #356]	; 20057d8 <_Z17run_tests_ipcfifov+0x33c>
 2005670:	e1d338b4 	ldrh	r3, [r3, #132]	; 0x84
 2005674:	e3130c02 	tst	r3, #512	; 0x200
 2005678:	1a000026 	bne	2005718 <_Z17run_tests_ipcfifov+0x27c>
 200567c:	e59f3154 	ldr	r3, [pc, #340]	; 20057d8 <_Z17run_tests_ipcfifov+0x33c>
 2005680:	e1d338b4 	ldrh	r3, [r3, #132]	; 0x84
 2005684:	e3130901 	tst	r3, #16384	; 0x4000
 2005688:	0a00001f 	beq	200570c <_Z17run_tests_ipcfifov+0x270>
 200568c:	e59f2144 	ldr	r2, [pc, #324]	; 20057d8 <_Z17run_tests_ipcfifov+0x33c>
 2005690:	e1d238b4 	ldrh	r3, [r2, #132]	; 0x84
 2005694:	e3c33901 	bic	r3, r3, #16384	; 0x4000
 2005698:	e1c238b4 	strh	r3, [r2, #132]	; 0x84
 200569c:	e1d238b4 	ldrh	r3, [r2, #132]	; 0x84
 20056a0:	e3130901 	tst	r3, #16384	; 0x4000
 20056a4:	0a000015 	beq	2005700 <_Z17run_tests_ipcfifov+0x264>
 20056a8:	e59f3128 	ldr	r3, [pc, #296]	; 20057d8 <_Z17run_tests_ipcfifov+0x33c>
 20056ac:	e1d328b4 	ldrh	r2, [r3, #132]	; 0x84
 20056b0:	e1c328b4 	strh	r2, [r3, #132]	; 0x84
 20056b4:	e1d338b4 	ldrh	r3, [r3, #132]	; 0x84
 20056b8:	e3130901 	tst	r3, #16384	; 0x4000
 20056bc:	1a00000c 	bne	20056f4 <_Z17run_tests_ipcfifov+0x258>
 20056c0:	e59f3110 	ldr	r3, [pc, #272]	; 20057d8 <_Z17run_tests_ipcfifov+0x33c>
 20056c4:	e3a02000 	mov	r2, #0
 20056c8:	e1c328b0 	strh	r2, [r3, #128]	; 0x80
 20056cc:	e8bd8070 	pop	{r4, r5, r6, r15}
 20056d0:	e3a00007 	mov	r0, #7
 20056d4:	ebfffddb 	bl	2004e48 <timeout_test>
 20056d8:	eaffff9e 	b	2005558 <_Z17run_tests_ipcfifov+0xbc>
 20056dc:	e3a00024 	mov	r0, #36	; 0x24
 20056e0:	ebfffdd1 	bl	2004e2c <fail_test>
 20056e4:	eaffffcd 	b	2005620 <_Z17run_tests_ipcfifov+0x184>
 20056e8:	e3a00023 	mov	r0, #35	; 0x23
 20056ec:	ebfffdce 	bl	2004e2c <fail_test>
 20056f0:	eaffffc6 	b	2005610 <_Z17run_tests_ipcfifov+0x174>
 20056f4:	e3a0002c 	mov	r0, #44	; 0x2c
 20056f8:	ebfffdcb 	bl	2004e2c <fail_test>
 20056fc:	eaffffef 	b	20056c0 <_Z17run_tests_ipcfifov+0x224>
 2005700:	e3a0002b 	mov	r0, #43	; 0x2b
 2005704:	ebfffdc8 	bl	2004e2c <fail_test>
 2005708:	eaffffe6 	b	20056a8 <_Z17run_tests_ipcfifov+0x20c>
 200570c:	e3a0002a 	mov	r0, #42	; 0x2a
 2005710:	ebfffdc5 	bl	2004e2c <fail_test>
 2005714:	eaffffdc 	b	200568c <_Z17run_tests_ipcfifov+0x1f0>
 2005718:	e3a00029 	mov	r0, #41	; 0x29
 200571c:	ebfffdc2 	bl	2004e2c <fail_test>
 2005720:	eaffffd5 	b	200567c <_Z17run_tests_ipcfifov+0x1e0>
 2005724:	e3a00028 	mov	r0, #40	; 0x28
 2005728:	ebfffdbf 	bl	2004e2c <fail_test>
 200572c:	eaffffce 	b	200566c <_Z17run_tests_ipcfifov+0x1d0>
 2005730:	e3a00027 	mov	r0, #39	; 0x27
 2005734:	ebfffdbc 	bl	2004e2c <fail_test>
 2005738:	eaffffc7 	b	200565c <_Z17run_tests_ipcfifov+0x1c0>
 200573c:	e3a00026 	mov	r0, #38	; 0x26
 2005740:	ebfffdb9 	bl	2004e2c <fail_test>
 2005744:	eaffffc0 	b	200564c <_Z17run_tests_ipcfifov+0x1b0>
 2005748:	e3a00022 	mov	r0, #34	; 0x22
 200574c:	ebfffdb6 	bl	2004e2c <fail_test>
 2005750:	eaffffaa 	b	2005600 <_Z17run_tests_ipcfifov+0x164>
 2005754:	e3a00021 	mov	r0, #33	; 0x21
 2005758:	ebfffdb3 	bl	2004e2c <fail_test>
 200575c:	eaffffa3 	b	20055f0 <_Z17run_tests_ipcfifov+0x154>
 2005760:	e3a00020 	mov	r0, #32
 2005764:	ebfffdb0 	bl	2004e2c <fail_test>
 2005768:	eaffff9c 	b	20055e0 <_Z17run_tests_ipcfifov+0x144>
 200576c:	e3a0000b 	mov	r0, #11
 2005770:	ebfffdad 	bl	2004e2c <fail_test>
 2005774:	eaffff89 	b	20055a0 <_Z17run_tests_ipcfifov+0x104>
 2005778:	e3a0000a 	mov	r0, #10
 200577c:	ebfffdaa 	bl	2004e2c <fail_test>
 2005780:	eaffff82 	b	2005590 <_Z17run_tests_ipcfifov+0xf4>
 2005784:	e3a00009 	mov	r0, #9
 2005788:	ebfffda7 	bl	2004e2c <fail_test>
 200578c:	eaffff7b 	b	2005580 <_Z17run_tests_ipcfifov+0xe4>
 2005790:	e3a00008 	mov	r0, #8
 2005794:	ebfffda4 	bl	2004e2c <fail_test>
 2005798:	eaffff74 	b	2005570 <_Z17run_tests_ipcfifov+0xd4>
 200579c:	e3a00006 	mov	r0, #6
 20057a0:	ebfffda1 	bl	2004e2c <fail_test>
 20057a4:	eaffff5f 	b	2005528 <_Z17run_tests_ipcfifov+0x8c>
 20057a8:	e3a00005 	mov	r0, #5
 20057ac:	ebfffd9e 	bl	2004e2c <fail_test>
 20057b0:	eaffff58 	b	2005518 <_Z17run_tests_ipcfifov+0x7c>
 20057b4:	e3a00004 	mov	r0, #4
 20057b8:	ebfffd9b 	bl	2004e2c <fail_test>
 20057bc:	eaffff51 	b	2005508 <_Z17run_tests_ipcfifov+0x6c>
 20057c0:	e3a00003 	mov	r0, #3
 20057c4:	ebfffd98 	bl	2004e2c <fail_test>
 20057c8:	eaffff4a 	b	20054f8 <_Z17run_tests_ipcfifov+0x5c>
 20057cc:	e3a00002 	mov	r0, #2
 20057d0:	ebfffd95 	bl	2004e2c <fail_test>
 20057d4:	eaffff43 	b	20054e8 <_Z17run_tests_ipcfifov+0x4c>
 20057d8:	04000100 	streq	r0, [r0], #-256	; 0xffffff00
 20057dc:	12345678 	eorsne	r5, r4, #120, 12	; 0x7800000
 20057e0:	1844ccab 	stmdane	r4, {r0, r1, r3, r5, r7, r10, r11, r14, r15}^
 20057e4:	b914a201 	ldmdblt	r4, {r0, r9, r13, r15}
 20057e8:	1844ccac 	stmdane	r4, {r2, r3, r5, r7, r10, r11, r14, r15}^
 20057ec:	11000010 	tstne	r0, r0, lsl r0
 20057f0:	1100000f 	tstne	r0, r15

020057f4 <_ZL10irqhandlerv>:
 20057f4:	e3a02301 	mov	r2, #67108864	; 0x4000000
 20057f8:	e3a01701 	mov	r1, #262144	; 0x40000
 20057fc:	e3a03641 	mov	r3, #68157440	; 0x4100000
 2005800:	e5821214 	str	r1, [r2, #532]	; 0x214
 2005804:	e5933000 	ldr	r3, [r3]
 2005808:	e3530c81 	cmp	r3, #33024	; 0x8100
 200580c:	059f3008 	ldreq	r3, [pc, #8]	; 200581c <_ZL10irqhandlerv+0x28>
 2005810:	03a0200d 	moveq	r2, #13
 2005814:	05832000 	streq	r2, [r3]
 2005818:	e12fff1e 	bx	r14
 200581c:	02007f80 	andeq	r7, r0, #128, 30	; 0x200

02005820 <_Z21run_tests_ipcfifo_irqv>:
 2005820:	e92d4070 	push	{r4, r5, r6, r14}
 2005824:	e59f6094 	ldr	r6, [pc, #148]	; 20058c0 <_Z21run_tests_ipcfifo_irqv+0xa0>
 2005828:	e3a03301 	mov	r3, #67108864	; 0x4000000
 200582c:	e59f2090 	ldr	r2, [pc, #144]	; 20058c4 <_Z21run_tests_ipcfifo_irqv+0xa4>
 2005830:	e3a04701 	mov	r4, #262144	; 0x40000
 2005834:	e3a01b21 	mov	r1, #33792	; 0x8400
 2005838:	e5834214 	str	r4, [r3, #532]	; 0x214
 200583c:	e5834210 	str	r4, [r3, #528]	; 0x210
 2005840:	e1c618b4 	strh	r1, [r6, #132]	; 0x84
 2005844:	e59f107c 	ldr	r1, [pc, #124]	; 20058c8 <_Z21run_tests_ipcfifo_irqv+0xa8>
 2005848:	e5821ffc 	str	r1, [r2, #4092]	; 0xffc
 200584c:	e3a02001 	mov	r2, #1
 2005850:	e5832208 	str	r2, [r3, #520]	; 0x208
 2005854:	e59f5070 	ldr	r5, [pc, #112]	; 20058cc <_Z21run_tests_ipcfifo_irqv+0xac>
 2005858:	eb00092a 	bl	2007d08 <l_EIC>
 200585c:	e3a02058 	mov	r2, #88	; 0x58
 2005860:	e3a03c0b 	mov	r3, #2816	; 0xb00
 2005864:	e5852000 	str	r2, [r5]
 2005868:	e1c638b0 	strh	r3, [r6, #128]	; 0x80
 200586c:	ea000001 	b	2005878 <_Z21run_tests_ipcfifo_irqv+0x58>
 2005870:	e2544001 	subs	r4, r4, #1
 2005874:	0a00000e 	beq	20058b4 <_Z21run_tests_ipcfifo_irqv+0x94>
 2005878:	e5953000 	ldr	r3, [r5]
 200587c:	e353000d 	cmp	r3, #13
 2005880:	1afffffa 	bne	2005870 <_Z21run_tests_ipcfifo_irqv+0x50>
 2005884:	e59f1034 	ldr	r1, [pc, #52]	; 20058c0 <_Z21run_tests_ipcfifo_irqv+0xa0>
 2005888:	e3a03000 	mov	r3, #0
 200588c:	e3a02301 	mov	r2, #67108864	; 0x4000000
 2005890:	e1c138b0 	strh	r3, [r1, #128]	; 0x80
 2005894:	e3a00001 	mov	r0, #1
 2005898:	e5823208 	str	r3, [r2, #520]	; 0x208
 200589c:	ebffea18 	bl	2000104 <_Z17read_from_IPCFIFOi>
 20058a0:	e3500ea5 	cmp	r0, #2640	; 0xa50
 20058a4:	08bd8070 	popeq	{r4, r5, r6, r15}
 20058a8:	e8bd4070 	pop	{r4, r5, r6, r14}
 20058ac:	e3a00002 	mov	r0, #2
 20058b0:	eafffd5d 	b	2004e2c <fail_test>
 20058b4:	e1a00004 	mov	r0, r4
 20058b8:	ebfffd62 	bl	2004e48 <timeout_test>
 20058bc:	eaffffed 	b	2005878 <_Z21run_tests_ipcfifo_irqv+0x58>
 20058c0:	04000100 	streq	r0, [r0], #-256	; 0xffffff00
 20058c4:	00803000 	addeq	r3, r0, r0
 20058c8:	020057f4 	andeq	r5, r0, #244, 14	; 0x3d00000
 20058cc:	02007f80 	andeq	r7, r0, #128, 30	; 0x200

020058d0 <_ZL10irqhandlerv>:
 20058d0:	e59f3020 	ldr	r3, [pc, #32]	; 20058f8 <_ZL10irqhandlerv+0x28>
 20058d4:	e3a02301 	mov	r2, #67108864	; 0x4000000
 20058d8:	e3a01801 	mov	r1, #65536	; 0x10000
 20058dc:	e5821214 	str	r1, [r2, #532]	; 0x214
 20058e0:	e1d338b0 	ldrh	r3, [r3, #128]	; 0x80
 20058e4:	e313000f 	tst	r3, #15
 20058e8:	059f300c 	ldreq	r3, [pc, #12]	; 20058fc <_ZL10irqhandlerv+0x2c>
 20058ec:	03a0207b 	moveq	r2, #123	; 0x7b
 20058f0:	05832000 	streq	r2, [r3]
 20058f4:	e12fff1e 	bx	r14
 20058f8:	04000100 	streq	r0, [r0], #-256	; 0xffffff00
 20058fc:	02007f84 	andeq	r7, r0, #132, 30	; 0x210

02005900 <_Z18wait_ipcsync_valueii>:
 2005900:	e92d41f0 	push	{r4, r5, r6, r7, r8, r14}
 2005904:	e59f602c 	ldr	r6, [pc, #44]	; 2005938 <_Z18wait_ipcsync_valueii+0x38>
 2005908:	e1a05000 	mov	r5, r0
 200590c:	e1a07001 	mov	r7, r1
 2005910:	e3a04901 	mov	r4, #16384	; 0x4000
 2005914:	e1d638b0 	ldrh	r3, [r6, #128]	; 0x80
 2005918:	e203300f 	and	r3, r3, #15
 200591c:	e1530005 	cmp	r3, r5
 2005920:	08bd81f0 	popeq	{r4, r5, r6, r7, r8, r15}
 2005924:	e2544001 	subs	r4, r4, #1
 2005928:	1afffff9 	bne	2005914 <_Z18wait_ipcsync_valueii+0x14>
 200592c:	e1a00007 	mov	r0, r7
 2005930:	ebfffd44 	bl	2004e48 <timeout_test>
 2005934:	eafffff6 	b	2005914 <_Z18wait_ipcsync_valueii+0x14>
 2005938:	04000100 	streq	r0, [r0], #-256	; 0xffffff00

0200593c <_Z17run_tests_ipcsyncv>:
 200593c:	e92d4070 	push	{r4, r5, r6, r14}
 2005940:	e59f5124 	ldr	r5, [pc, #292]	; 2005a6c <_Z17run_tests_ipcsyncv+0x130>
 2005944:	e3a03c0d 	mov	r3, #3328	; 0xd00
 2005948:	e3a04901 	mov	r4, #16384	; 0x4000
 200594c:	e1c538b0 	strh	r3, [r5, #128]	; 0x80
 2005950:	ea000001 	b	200595c <_Z17run_tests_ipcsyncv+0x20>
 2005954:	e2544001 	subs	r4, r4, #1
 2005958:	0a000037 	beq	2005a3c <_Z17run_tests_ipcsyncv+0x100>
 200595c:	e1d538b0 	ldrh	r3, [r5, #128]	; 0x80
 2005960:	e203300f 	and	r3, r3, #15
 2005964:	e3530004 	cmp	r3, #4
 2005968:	1afffff9 	bne	2005954 <_Z17run_tests_ipcsyncv+0x18>
 200596c:	e3a03c05 	mov	r3, #1280	; 0x500
 2005970:	e59f60f4 	ldr	r6, [pc, #244]	; 2005a6c <_Z17run_tests_ipcsyncv+0x130>
 2005974:	e3a04901 	mov	r4, #16384	; 0x4000
 2005978:	e1c538b0 	strh	r3, [r5, #128]	; 0x80
 200597c:	ea000001 	b	2005988 <_Z17run_tests_ipcsyncv+0x4c>
 2005980:	e2544001 	subs	r4, r4, #1
 2005984:	0a00002f 	beq	2005a48 <_Z17run_tests_ipcsyncv+0x10c>
 2005988:	e1d638b0 	ldrh	r3, [r6, #128]	; 0x80
 200598c:	e203300f 	and	r3, r3, #15
 2005990:	e3530007 	cmp	r3, #7
 2005994:	1afffff9 	bne	2005980 <_Z17run_tests_ipcsyncv+0x44>
 2005998:	e3a00a01 	mov	r0, #4096	; 0x1000
 200599c:	eb0008d6 	bl	2007cfc <wait_busy>
 20059a0:	e3a03c29 	mov	r3, #10496	; 0x2900
 20059a4:	e59f50c0 	ldr	r5, [pc, #192]	; 2005a6c <_Z17run_tests_ipcsyncv+0x130>
 20059a8:	e3a04901 	mov	r4, #16384	; 0x4000
 20059ac:	e1c638b0 	strh	r3, [r6, #128]	; 0x80
 20059b0:	ea000001 	b	20059bc <_Z17run_tests_ipcsyncv+0x80>
 20059b4:	e2544001 	subs	r4, r4, #1
 20059b8:	0a000025 	beq	2005a54 <_Z17run_tests_ipcsyncv+0x118>
 20059bc:	e1d538b0 	ldrh	r3, [r5, #128]	; 0x80
 20059c0:	e203300f 	and	r3, r3, #15
 20059c4:	e353000b 	cmp	r3, #11
 20059c8:	1afffff9 	bne	20059b4 <_Z17run_tests_ipcsyncv+0x78>
 20059cc:	e59f609c 	ldr	r6, [pc, #156]	; 2005a70 <_Z17run_tests_ipcsyncv+0x134>
 20059d0:	e3a0204d 	mov	r2, #77	; 0x4d
 20059d4:	e3a03901 	mov	r3, #16384	; 0x4000
 20059d8:	e5862000 	str	r2, [r6]
 20059dc:	e1c538b0 	strh	r3, [r5, #128]	; 0x80
 20059e0:	eb0008c8 	bl	2007d08 <l_EIC>
 20059e4:	e59f1088 	ldr	r1, [pc, #136]	; 2005a74 <_Z17run_tests_ipcsyncv+0x138>
 20059e8:	e59f0088 	ldr	r0, [pc, #136]	; 2005a78 <_Z17run_tests_ipcsyncv+0x13c>
 20059ec:	e5810ffc 	str	r0, [r1, #4092]	; 0xffc
 20059f0:	e3a03301 	mov	r3, #67108864	; 0x4000000
 20059f4:	e3a02801 	mov	r2, #65536	; 0x10000
 20059f8:	e3a01001 	mov	r1, #1
 20059fc:	e5832214 	str	r2, [r3, #532]	; 0x214
 2005a00:	e1a04002 	mov	r4, r2
 2005a04:	e5832210 	str	r2, [r3, #528]	; 0x210
 2005a08:	e5831208 	str	r1, [r3, #520]	; 0x208
 2005a0c:	ea000001 	b	2005a18 <_Z17run_tests_ipcsyncv+0xdc>
 2005a10:	e2544001 	subs	r4, r4, #1
 2005a14:	0a000011 	beq	2005a60 <_Z17run_tests_ipcsyncv+0x124>
 2005a18:	e5963000 	ldr	r3, [r6]
 2005a1c:	e353007b 	cmp	r3, #123	; 0x7b
 2005a20:	1afffffa 	bne	2005a10 <_Z17run_tests_ipcsyncv+0xd4>
 2005a24:	e59f2040 	ldr	r2, [pc, #64]	; 2005a6c <_Z17run_tests_ipcsyncv+0x130>
 2005a28:	e3a03000 	mov	r3, #0
 2005a2c:	e3a01301 	mov	r1, #67108864	; 0x4000000
 2005a30:	e5813208 	str	r3, [r1, #520]	; 0x208
 2005a34:	e1c238b0 	strh	r3, [r2, #128]	; 0x80
 2005a38:	e8bd8070 	pop	{r4, r5, r6, r15}
 2005a3c:	e1a00004 	mov	r0, r4
 2005a40:	ebfffd00 	bl	2004e48 <timeout_test>
 2005a44:	eaffffc4 	b	200595c <_Z17run_tests_ipcsyncv+0x20>
 2005a48:	e3a00001 	mov	r0, #1
 2005a4c:	ebfffcfd 	bl	2004e48 <timeout_test>
 2005a50:	eaffffcc 	b	2005988 <_Z17run_tests_ipcsyncv+0x4c>
 2005a54:	e3a00002 	mov	r0, #2
 2005a58:	ebfffcfa 	bl	2004e48 <timeout_test>
 2005a5c:	eaffffd6 	b	20059bc <_Z17run_tests_ipcsyncv+0x80>
 2005a60:	e3a00003 	mov	r0, #3
 2005a64:	ebfffcf7 	bl	2004e48 <timeout_test>
 2005a68:	eaffffea 	b	2005a18 <_Z17run_tests_ipcsyncv+0xdc>
 2005a6c:	04000100 	streq	r0, [r0], #-256	; 0xffffff00
 2005a70:	02007f84 	andeq	r7, r0, #132, 30	; 0x210
 2005a74:	00803000 	addeq	r3, r0, r0
 2005a78:	020058d0 	andeq	r5, r0, #208, 16	; 0xd00000

02005a7c <_Z10check_sqrtPK8SQRTtesti>:
 2005a7c:	e92d47f0 	push	{r4, r5, r6, r7, r8, r9, r10, r14}
 2005a80:	e2519000 	subs	r9, r1, #0
 2005a84:	d8bd87f0 	pople	{r4, r5, r6, r7, r8, r9, r10, r15}
 2005a88:	e59f506c 	ldr	r5, [pc, #108]	; 2005afc <_Z10check_sqrtPK8SQRTtesti+0x80>
 2005a8c:	e1a06000 	mov	r6, r0
 2005a90:	e3a07000 	mov	r7, #0
 2005a94:	e3a08301 	mov	r8, #67108864	; 0x4000000
 2005a98:	e5963000 	ldr	r3, [r6]
 2005a9c:	e58832b8 	str	r3, [r8, #696]	; 0x2b8
 2005aa0:	e5963004 	ldr	r3, [r6, #4]
 2005aa4:	e3a04901 	mov	r4, #16384	; 0x4000
 2005aa8:	e58832bc 	str	r3, [r8, #700]	; 0x2bc
 2005aac:	ea000001 	b	2005ab8 <_Z10check_sqrtPK8SQRTtesti+0x3c>
 2005ab0:	e2544001 	subs	r4, r4, #1
 2005ab4:	0a00000d 	beq	2005af0 <_Z10check_sqrtPK8SQRTtesti+0x74>
 2005ab8:	e1d53bb0 	ldrh	r3, [r5, #176]	; 0xb0
 2005abc:	e1b037a3 	lsrs	r3, r3, #15
 2005ac0:	1afffffa 	bne	2005ab0 <_Z10check_sqrtPK8SQRTtesti+0x34>
 2005ac4:	e59832b4 	ldr	r3, [r8, #692]	; 0x2b4
 2005ac8:	e5962008 	ldr	r2, [r6, #8]
 2005acc:	e1520003 	cmp	r2, r3
 2005ad0:	0a000001 	beq	2005adc <_Z10check_sqrtPK8SQRTtesti+0x60>
 2005ad4:	e1a00007 	mov	r0, r7
 2005ad8:	ebfffcd3 	bl	2004e2c <fail_test>
 2005adc:	e2877001 	add	r7, r7, #1
 2005ae0:	e1590007 	cmp	r9, r7
 2005ae4:	e286600c 	add	r6, r6, #12
 2005ae8:	1affffea 	bne	2005a98 <_Z10check_sqrtPK8SQRTtesti+0x1c>
 2005aec:	e8bd87f0 	pop	{r4, r5, r6, r7, r8, r9, r10, r15}
 2005af0:	e1a00007 	mov	r0, r7
 2005af4:	ebfffcd3 	bl	2004e48 <timeout_test>
 2005af8:	eaffffee 	b	2005ab8 <_Z10check_sqrtPK8SQRTtesti+0x3c>
 2005afc:	04000200 	streq	r0, [r0], #-512	; 0xfffffe00

02005b00 <_Z26run_tests_ds_maths_sqrt_32v>:
 2005b00:	e92d41f0 	push	{r4, r5, r6, r7, r8, r14}
 2005b04:	e3a02000 	mov	r2, #0
 2005b08:	e59f8070 	ldr	r8, [pc, #112]	; 2005b80 <_Z26run_tests_ds_maths_sqrt_32v+0x80>
 2005b0c:	e59f6070 	ldr	r6, [pc, #112]	; 2005b84 <_Z26run_tests_ds_maths_sqrt_32v+0x84>
 2005b10:	e1a03002 	mov	r3, r2
 2005b14:	e1a05002 	mov	r5, r2
 2005b18:	e3a07301 	mov	r7, #67108864	; 0x4000000
 2005b1c:	e1c82bb0 	strh	r2, [r8, #176]	; 0xb0
 2005b20:	e58732b8 	str	r3, [r7, #696]	; 0x2b8
 2005b24:	e5963004 	ldr	r3, [r6, #4]
 2005b28:	e3a04901 	mov	r4, #16384	; 0x4000
 2005b2c:	e58732bc 	str	r3, [r7, #700]	; 0x2bc
 2005b30:	ea000001 	b	2005b3c <_Z26run_tests_ds_maths_sqrt_32v+0x3c>
 2005b34:	e2544001 	subs	r4, r4, #1
 2005b38:	0a00000d 	beq	2005b74 <_Z26run_tests_ds_maths_sqrt_32v+0x74>
 2005b3c:	e1d83bb0 	ldrh	r3, [r8, #176]	; 0xb0
 2005b40:	e1b037a3 	lsrs	r3, r3, #15
 2005b44:	1afffffa 	bne	2005b34 <_Z26run_tests_ds_maths_sqrt_32v+0x34>
 2005b48:	e59722b4 	ldr	r2, [r7, #692]	; 0x2b4
 2005b4c:	e5963008 	ldr	r3, [r6, #8]
 2005b50:	e1520003 	cmp	r2, r3
 2005b54:	0a000001 	beq	2005b60 <_Z26run_tests_ds_maths_sqrt_32v+0x60>
 2005b58:	e1a00005 	mov	r0, r5
 2005b5c:	ebfffcb2 	bl	2004e2c <fail_test>
 2005b60:	e2855001 	add	r5, r5, #1
 2005b64:	e355000d 	cmp	r5, #13
 2005b68:	08bd81f0 	popeq	{r4, r5, r6, r7, r8, r15}
 2005b6c:	e5b6300c 	ldr	r3, [r6, #12]!
 2005b70:	eaffffea 	b	2005b20 <_Z26run_tests_ds_maths_sqrt_32v+0x20>
 2005b74:	e1a00005 	mov	r0, r5
 2005b78:	ebfffcb2 	bl	2004e48 <timeout_test>
 2005b7c:	eaffffee 	b	2005b3c <_Z26run_tests_ds_maths_sqrt_32v+0x3c>
 2005b80:	04000200 	streq	r0, [r0], #-512	; 0xfffffe00
 2005b84:	02008bd0 	andeq	r8, r0, #208, 22	; 0x34000

02005b88 <_Z26run_tests_ds_maths_sqrt_64v>:
 2005b88:	e92d41f0 	push	{r4, r5, r6, r7, r8, r14}
 2005b8c:	e3a03000 	mov	r3, #0
 2005b90:	e59f8070 	ldr	r8, [pc, #112]	; 2005c08 <_Z26run_tests_ds_maths_sqrt_64v+0x80>
 2005b94:	e59f6070 	ldr	r6, [pc, #112]	; 2005c0c <_Z26run_tests_ds_maths_sqrt_64v+0x84>
 2005b98:	e3a02001 	mov	r2, #1
 2005b9c:	e1a05003 	mov	r5, r3
 2005ba0:	e3a07301 	mov	r7, #67108864	; 0x4000000
 2005ba4:	e1c82bb0 	strh	r2, [r8, #176]	; 0xb0
 2005ba8:	e58732b8 	str	r3, [r7, #696]	; 0x2b8
 2005bac:	e5963004 	ldr	r3, [r6, #4]
 2005bb0:	e3a04901 	mov	r4, #16384	; 0x4000
 2005bb4:	e58732bc 	str	r3, [r7, #700]	; 0x2bc
 2005bb8:	ea000001 	b	2005bc4 <_Z26run_tests_ds_maths_sqrt_64v+0x3c>
 2005bbc:	e2544001 	subs	r4, r4, #1
 2005bc0:	0a00000d 	beq	2005bfc <_Z26run_tests_ds_maths_sqrt_64v+0x74>
 2005bc4:	e1d83bb0 	ldrh	r3, [r8, #176]	; 0xb0
 2005bc8:	e1b037a3 	lsrs	r3, r3, #15
 2005bcc:	1afffffa 	bne	2005bbc <_Z26run_tests_ds_maths_sqrt_64v+0x34>
 2005bd0:	e59722b4 	ldr	r2, [r7, #692]	; 0x2b4
 2005bd4:	e5963008 	ldr	r3, [r6, #8]
 2005bd8:	e1520003 	cmp	r2, r3
 2005bdc:	0a000001 	beq	2005be8 <_Z26run_tests_ds_maths_sqrt_64v+0x60>
 2005be0:	e1a00005 	mov	r0, r5
 2005be4:	ebfffc90 	bl	2004e2c <fail_test>
 2005be8:	e2855001 	add	r5, r5, #1
 2005bec:	e3550016 	cmp	r5, #22
 2005bf0:	08bd81f0 	popeq	{r4, r5, r6, r7, r8, r15}
 2005bf4:	e5b6300c 	ldr	r3, [r6, #12]!
 2005bf8:	eaffffea 	b	2005ba8 <_Z26run_tests_ds_maths_sqrt_64v+0x20>
 2005bfc:	e1a00005 	mov	r0, r5
 2005c00:	ebfffc90 	bl	2004e48 <timeout_test>
 2005c04:	eaffffee 	b	2005bc4 <_Z26run_tests_ds_maths_sqrt_64v+0x3c>
 2005c08:	04000200 	streq	r0, [r0], #-512	; 0xfffffe00
 2005c0c:	02008c6c 	andeq	r8, r0, #108, 24	; 0x6c00

02005c10 <_Z13run_tests_tcmv>:
 2005c10:	e92d4010 	push	{r4, r14}
 2005c14:	ebffec20 	bl	2000c9c <cp15_get_controlreg>
 2005c18:	e59f431c 	ldr	r4, [pc, #796]	; 2005f3c <_Z13run_tests_tcmv+0x32c>
 2005c1c:	e3c00802 	bic	r0, r0, #131072	; 0x20000
 2005c20:	e3800801 	orr	r0, r0, #65536	; 0x10000
 2005c24:	ebffec1e 	bl	2000ca4 <cp15_set_controlreg>
 2005c28:	e1a00004 	mov	r0, r4
 2005c2c:	ebffec20 	bl	2000cb4 <cp15_set_DTCMcontrol>
 2005c30:	ebffec1d 	bl	2000cac <cp15_get_DTCMcontrol>
 2005c34:	e3c00d3f 	bic	r0, r0, #4032	; 0xfc0
 2005c38:	e3c00001 	bic	r0, r0, #1
 2005c3c:	e1500004 	cmp	r0, r4
 2005c40:	0a000001 	beq	2005c4c <_Z13run_tests_tcmv+0x3c>
 2005c44:	e3a00000 	mov	r0, #0
 2005c48:	ebfffc77 	bl	2004e2c <fail_test>
 2005c4c:	e59f12ec 	ldr	r1, [pc, #748]	; 2005f40 <_Z13run_tests_tcmv+0x330>
 2005c50:	e59f32ec 	ldr	r3, [pc, #748]	; 2005f44 <_Z13run_tests_tcmv+0x334>
 2005c54:	e3a02502 	mov	r2, #8388608	; 0x800000
 2005c58:	e59f02e8 	ldr	r0, [pc, #744]	; 2005f48 <_Z13run_tests_tcmv+0x338>
 2005c5c:	e5823000 	str	r3, [r2]
 2005c60:	e5810ffc 	str	r0, [r1, #4092]	; 0xffc
 2005c64:	e5922000 	ldr	r2, [r2]
 2005c68:	e1520003 	cmp	r2, r3
 2005c6c:	0a000001 	beq	2005c78 <_Z13run_tests_tcmv+0x68>
 2005c70:	e3a00001 	mov	r0, #1
 2005c74:	ebfffc6c 	bl	2004e2c <fail_test>
 2005c78:	e59f22c0 	ldr	r2, [pc, #704]	; 2005f40 <_Z13run_tests_tcmv+0x330>
 2005c7c:	e59f32c4 	ldr	r3, [pc, #708]	; 2005f48 <_Z13run_tests_tcmv+0x338>
 2005c80:	e5922ffc 	ldr	r2, [r2, #4092]	; 0xffc
 2005c84:	e1520003 	cmp	r2, r3
 2005c88:	0a000001 	beq	2005c94 <_Z13run_tests_tcmv+0x84>
 2005c8c:	e3a00002 	mov	r0, #2
 2005c90:	ebfffc65 	bl	2004e2c <fail_test>
 2005c94:	e59f02b0 	ldr	r0, [pc, #688]	; 2005f4c <_Z13run_tests_tcmv+0x33c>
 2005c98:	ebffec05 	bl	2000cb4 <cp15_set_DTCMcontrol>
 2005c9c:	e3a03606 	mov	r3, #6291456	; 0x600000
 2005ca0:	e5932000 	ldr	r2, [r3]
 2005ca4:	e59f3298 	ldr	r3, [pc, #664]	; 2005f44 <_Z13run_tests_tcmv+0x334>
 2005ca8:	e1520003 	cmp	r2, r3
 2005cac:	0a000001 	beq	2005cb8 <_Z13run_tests_tcmv+0xa8>
 2005cb0:	e3a00003 	mov	r0, #3
 2005cb4:	ebfffc5c 	bl	2004e2c <fail_test>
 2005cb8:	e59f2290 	ldr	r2, [pc, #656]	; 2005f50 <_Z13run_tests_tcmv+0x340>
 2005cbc:	e59f3280 	ldr	r3, [pc, #640]	; 2005f44 <_Z13run_tests_tcmv+0x334>
 2005cc0:	e5922000 	ldr	r2, [r2]
 2005cc4:	e1520003 	cmp	r2, r3
 2005cc8:	0a000001 	beq	2005cd4 <_Z13run_tests_tcmv+0xc4>
 2005ccc:	e3a00004 	mov	r0, #4
 2005cd0:	ebfffc55 	bl	2004e2c <fail_test>
 2005cd4:	e59f2278 	ldr	r2, [pc, #632]	; 2005f54 <_Z13run_tests_tcmv+0x344>
 2005cd8:	e59f3268 	ldr	r3, [pc, #616]	; 2005f48 <_Z13run_tests_tcmv+0x338>
 2005cdc:	e5922ffc 	ldr	r2, [r2, #4092]	; 0xffc
 2005ce0:	e1520003 	cmp	r2, r3
 2005ce4:	0a000001 	beq	2005cf0 <_Z13run_tests_tcmv+0xe0>
 2005ce8:	e3a00005 	mov	r0, #5
 2005cec:	ebfffc4e 	bl	2004e2c <fail_test>
 2005cf0:	e59f2260 	ldr	r2, [pc, #608]	; 2005f58 <_Z13run_tests_tcmv+0x348>
 2005cf4:	e59f324c 	ldr	r3, [pc, #588]	; 2005f48 <_Z13run_tests_tcmv+0x338>
 2005cf8:	e5922ffc 	ldr	r2, [r2, #4092]	; 0xffc
 2005cfc:	e1520003 	cmp	r2, r3
 2005d00:	0a000001 	beq	2005d0c <_Z13run_tests_tcmv+0xfc>
 2005d04:	e3a00006 	mov	r0, #6
 2005d08:	ebfffc47 	bl	2004e2c <fail_test>
 2005d0c:	e59f3248 	ldr	r3, [pc, #584]	; 2005f5c <_Z13run_tests_tcmv+0x34c>
 2005d10:	e59f0248 	ldr	r0, [pc, #584]	; 2005f60 <_Z13run_tests_tcmv+0x350>
 2005d14:	e59f2248 	ldr	r2, [pc, #584]	; 2005f64 <_Z13run_tests_tcmv+0x354>
 2005d18:	e59f1248 	ldr	r1, [pc, #584]	; 2005f68 <_Z13run_tests_tcmv+0x358>
 2005d1c:	e3a04403 	mov	r4, #50331648	; 0x3000000
 2005d20:	e3a0c000 	mov	r12, #0
 2005d24:	e5c0c047 	strb	r12, [r0, #71]	; 0x47
 2005d28:	e5841000 	str	r1, [r4]
 2005d2c:	e59f0238 	ldr	r0, [pc, #568]	; 2005f6c <_Z13run_tests_tcmv+0x35c>
 2005d30:	e5832ffc 	str	r2, [r3, #4092]	; 0xffc
 2005d34:	ebffebde 	bl	2000cb4 <cp15_set_DTCMcontrol>
 2005d38:	e5942000 	ldr	r2, [r4]
 2005d3c:	e59f3200 	ldr	r3, [pc, #512]	; 2005f44 <_Z13run_tests_tcmv+0x334>
 2005d40:	e1520003 	cmp	r2, r3
 2005d44:	0a000001 	beq	2005d50 <_Z13run_tests_tcmv+0x140>
 2005d48:	e3a00007 	mov	r0, #7
 2005d4c:	ebfffc36 	bl	2004e2c <fail_test>
 2005d50:	e59f2218 	ldr	r2, [pc, #536]	; 2005f70 <_Z13run_tests_tcmv+0x360>
 2005d54:	e59f31ec 	ldr	r3, [pc, #492]	; 2005f48 <_Z13run_tests_tcmv+0x338>
 2005d58:	e5122003 	ldr	r2, [r2, #-3]
 2005d5c:	e1520003 	cmp	r2, r3
 2005d60:	0a000001 	beq	2005d6c <_Z13run_tests_tcmv+0x15c>
 2005d64:	e3a00008 	mov	r0, #8
 2005d68:	ebfffc2f 	bl	2004e2c <fail_test>
 2005d6c:	e59f0200 	ldr	r0, [pc, #512]	; 2005f74 <_Z13run_tests_tcmv+0x364>
 2005d70:	ebffebcf 	bl	2000cb4 <cp15_set_DTCMcontrol>
 2005d74:	e3a03403 	mov	r3, #50331648	; 0x3000000
 2005d78:	e5932000 	ldr	r2, [r3]
 2005d7c:	e59f31c0 	ldr	r3, [pc, #448]	; 2005f44 <_Z13run_tests_tcmv+0x334>
 2005d80:	e1520003 	cmp	r2, r3
 2005d84:	0a000001 	beq	2005d90 <_Z13run_tests_tcmv+0x180>
 2005d88:	e3a00009 	mov	r0, #9
 2005d8c:	ebfffc26 	bl	2004e2c <fail_test>
 2005d90:	e59f21c4 	ldr	r2, [pc, #452]	; 2005f5c <_Z13run_tests_tcmv+0x34c>
 2005d94:	e59f31c8 	ldr	r3, [pc, #456]	; 2005f64 <_Z13run_tests_tcmv+0x354>
 2005d98:	e5922ffc 	ldr	r2, [r2, #4092]	; 0xffc
 2005d9c:	e1520003 	cmp	r2, r3
 2005da0:	0a000001 	beq	2005dac <_Z13run_tests_tcmv+0x19c>
 2005da4:	e3a0000a 	mov	r0, #10
 2005da8:	ebfffc1f 	bl	2004e2c <fail_test>
 2005dac:	ebffebba 	bl	2000c9c <cp15_get_controlreg>
 2005db0:	e3800802 	orr	r0, r0, #131072	; 0x20000
 2005db4:	ebffebba 	bl	2000ca4 <cp15_set_controlreg>
 2005db8:	e59f01b8 	ldr	r0, [pc, #440]	; 2005f78 <_Z13run_tests_tcmv+0x368>
 2005dbc:	ebffebbc 	bl	2000cb4 <cp15_set_DTCMcontrol>
 2005dc0:	e3a03403 	mov	r3, #50331648	; 0x3000000
 2005dc4:	e5932000 	ldr	r2, [r3]
 2005dc8:	e59f3198 	ldr	r3, [pc, #408]	; 2005f68 <_Z13run_tests_tcmv+0x358>
 2005dcc:	e1520003 	cmp	r2, r3
 2005dd0:	0a000001 	beq	2005ddc <_Z13run_tests_tcmv+0x1cc>
 2005dd4:	e3a00010 	mov	r0, #16
 2005dd8:	ebfffc13 	bl	2004e2c <fail_test>
 2005ddc:	e59f2178 	ldr	r2, [pc, #376]	; 2005f5c <_Z13run_tests_tcmv+0x34c>
 2005de0:	e59f317c 	ldr	r3, [pc, #380]	; 2005f64 <_Z13run_tests_tcmv+0x354>
 2005de4:	e5922ffc 	ldr	r2, [r2, #4092]	; 0xffc
 2005de8:	e1520003 	cmp	r2, r3
 2005dec:	0a000001 	beq	2005df8 <_Z13run_tests_tcmv+0x1e8>
 2005df0:	e3a00011 	mov	r0, #17
 2005df4:	ebfffc0c 	bl	2004e2c <fail_test>
 2005df8:	e59f315c 	ldr	r3, [pc, #348]	; 2005f5c <_Z13run_tests_tcmv+0x34c>
 2005dfc:	e59f2178 	ldr	r2, [pc, #376]	; 2005f7c <_Z13run_tests_tcmv+0x36c>
 2005e00:	e3a01403 	mov	r1, #50331648	; 0x3000000
 2005e04:	e59f4174 	ldr	r4, [pc, #372]	; 2005f80 <_Z13run_tests_tcmv+0x370>
 2005e08:	e5814000 	str	r4, [r1]
 2005e0c:	e5832ffc 	str	r2, [r3, #4092]	; 0xffc
 2005e10:	ebffeba1 	bl	2000c9c <cp15_get_controlreg>
 2005e14:	e3c00802 	bic	r0, r0, #131072	; 0x20000
 2005e18:	ebffeba1 	bl	2000ca4 <cp15_set_controlreg>
 2005e1c:	e59f0118 	ldr	r0, [pc, #280]	; 2005f3c <_Z13run_tests_tcmv+0x32c>
 2005e20:	ebffeba3 	bl	2000cb4 <cp15_set_DTCMcontrol>
 2005e24:	e3a03502 	mov	r3, #8388608	; 0x800000
 2005e28:	e5933000 	ldr	r3, [r3]
 2005e2c:	e1530004 	cmp	r3, r4
 2005e30:	0a000001 	beq	2005e3c <_Z13run_tests_tcmv+0x22c>
 2005e34:	e3a00012 	mov	r0, #18
 2005e38:	ebfffbfb 	bl	2004e2c <fail_test>
 2005e3c:	e59f20fc 	ldr	r2, [pc, #252]	; 2005f40 <_Z13run_tests_tcmv+0x330>
 2005e40:	e59f3134 	ldr	r3, [pc, #308]	; 2005f7c <_Z13run_tests_tcmv+0x36c>
 2005e44:	e5922ffc 	ldr	r2, [r2, #4092]	; 0xffc
 2005e48:	e1520003 	cmp	r2, r3
 2005e4c:	0a000001 	beq	2005e58 <_Z13run_tests_tcmv+0x248>
 2005e50:	e3a00013 	mov	r0, #19
 2005e54:	ebfffbf4 	bl	2004e2c <fail_test>
 2005e58:	e3a03403 	mov	r3, #50331648	; 0x3000000
 2005e5c:	e5932000 	ldr	r2, [r3]
 2005e60:	e59f3100 	ldr	r3, [pc, #256]	; 2005f68 <_Z13run_tests_tcmv+0x358>
 2005e64:	e1520003 	cmp	r2, r3
 2005e68:	0a000001 	beq	2005e74 <_Z13run_tests_tcmv+0x264>
 2005e6c:	e3a00014 	mov	r0, #20
 2005e70:	ebfffbed 	bl	2004e2c <fail_test>
 2005e74:	ebffeb88 	bl	2000c9c <cp15_get_controlreg>
 2005e78:	e3c00702 	bic	r0, r0, #524288	; 0x80000
 2005e7c:	e3800701 	orr	r0, r0, #262144	; 0x40000
 2005e80:	ebffeb87 	bl	2000ca4 <cp15_set_controlreg>
 2005e84:	e3a0000c 	mov	r0, #12
 2005e88:	ebffeb8d 	bl	2000cc4 <cp15_set_ITCMcontrol>
 2005e8c:	ebffeb8a 	bl	2000cbc <cp15_get_ITCMcontrol>
 2005e90:	e3c00d3f 	bic	r0, r0, #4032	; 0xfc0
 2005e94:	e3c00001 	bic	r0, r0, #1
 2005e98:	e350000c 	cmp	r0, #12
 2005e9c:	0a000001 	beq	2005ea8 <_Z13run_tests_tcmv+0x298>
 2005ea0:	e3a00020 	mov	r0, #32
 2005ea4:	ebfffbe0 	bl	2004e2c <fail_test>
 2005ea8:	e59f30d4 	ldr	r3, [pc, #212]	; 2005f84 <_Z13run_tests_tcmv+0x374>
 2005eac:	e3a02000 	mov	r2, #0
 2005eb0:	e59f00d0 	ldr	r0, [pc, #208]	; 2005f88 <_Z13run_tests_tcmv+0x378>
 2005eb4:	e3a01a07 	mov	r1, #28672	; 0x7000
 2005eb8:	e5823000 	str	r3, [r2]
 2005ebc:	e5810ffc 	str	r0, [r1, #4092]	; 0xffc
 2005ec0:	e5922000 	ldr	r2, [r2]
 2005ec4:	e1520003 	cmp	r2, r3
 2005ec8:	0a000001 	beq	2005ed4 <_Z13run_tests_tcmv+0x2c4>
 2005ecc:	e3a00021 	mov	r0, #33	; 0x21
 2005ed0:	ebfffbd5 	bl	2004e2c <fail_test>
 2005ed4:	e3a03a07 	mov	r3, #28672	; 0x7000
 2005ed8:	e5932ffc 	ldr	r2, [r3, #4092]	; 0xffc
 2005edc:	e59f30a4 	ldr	r3, [pc, #164]	; 2005f88 <_Z13run_tests_tcmv+0x378>
 2005ee0:	e1520003 	cmp	r2, r3
 2005ee4:	0a000001 	beq	2005ef0 <_Z13run_tests_tcmv+0x2e0>
 2005ee8:	e3a00022 	mov	r0, #34	; 0x22
 2005eec:	ebfffbce 	bl	2004e2c <fail_test>
 2005ef0:	e3a0000e 	mov	r0, #14
 2005ef4:	ebffeb72 	bl	2000cc4 <cp15_set_ITCMcontrol>
 2005ef8:	e3a03902 	mov	r3, #32768	; 0x8000
 2005efc:	e5932000 	ldr	r2, [r3]
 2005f00:	e59f307c 	ldr	r3, [pc, #124]	; 2005f84 <_Z13run_tests_tcmv+0x374>
 2005f04:	e1520003 	cmp	r2, r3
 2005f08:	0a000001 	beq	2005f14 <_Z13run_tests_tcmv+0x304>
 2005f0c:	e3a00023 	mov	r0, #35	; 0x23
 2005f10:	ebfffbc5 	bl	2004e2c <fail_test>
 2005f14:	e3a03a0f 	mov	r3, #61440	; 0xf000
 2005f18:	e5932ffc 	ldr	r2, [r3, #4092]	; 0xffc
 2005f1c:	e59f3064 	ldr	r3, [pc, #100]	; 2005f88 <_Z13run_tests_tcmv+0x378>
 2005f20:	e1520003 	cmp	r2, r3
 2005f24:	0a000001 	beq	2005f30 <_Z13run_tests_tcmv+0x320>
 2005f28:	e3a00024 	mov	r0, #36	; 0x24
 2005f2c:	ebfffbbe 	bl	2004e2c <fail_test>
 2005f30:	e8bd4010 	pop	{r4, r14}
 2005f34:	e59f0000 	ldr	r0, [pc]	; 2005f3c <_Z13run_tests_tcmv+0x32c>
 2005f38:	eaffeb5d 	b	2000cb4 <cp15_set_DTCMcontrol>
 2005f3c:	0080000a 	addeq	r0, r0, r10
 2005f40:	00803000 	addeq	r3, r0, r0
 2005f44:	12345678 	eorsne	r5, r4, #120, 12	; 0x7800000
 2005f48:	87654321 	strbhi	r4, [r5, -r1, lsr #6]!
 2005f4c:	0060000c 	rsbeq	r0, r0, r12
 2005f50:	00604000 	rsbeq	r4, r0, r0
 2005f54:	00603000 	rsbeq	r3, r0, r0
 2005f58:	00607000 	rsbeq	r7, r0, r0
 2005f5c:	03007000 	movweq	r7, #0
 2005f60:	04000200 	streq	r0, [r0], #-512	; 0xfffffe00
 2005f64:	89abcdef 	stmibhi	r11!, {r0, r1, r2, r3, r5, r6, r7, r8, r10, r11, r14, r15}
 2005f68:	1a2b3c4d 	bne	2ad50a4 <_ZL12sqrt64_tests+0xacc438>
 2005f6c:	0300001a 	movweq	r0, #26
 2005f70:	033fffff 	teqeq	r15, #1020	; 0x3fc	; <UNPREDICTABLE>
 2005f74:	03000008 	movweq	r0, #8
 2005f78:	0300000c 	movweq	r0, #12
 2005f7c:	87654322 	strbhi	r4, [r5, -r2, lsr #6]!
 2005f80:	12345679 	eorsne	r5, r4, #126877696	; 0x7900000
 2005f84:	5a5b5c5d 	bpl	36dd100 <_ZL12sqrt64_tests+0x16d4494>
 2005f88:	6a6b6c6d 	bvs	3ae1144 <_ZL12sqrt64_tests+0x1ad84d8>

02005f8c <_Z17run_tests_vramcntv>:
 2005f8c:	e92d41f0 	push	{r4, r5, r6, r7, r8, r14}
 2005f90:	ebffeab0 	bl	2000a58 <_Z13ARM7_start_rwv>
 2005f94:	e59f33dc 	ldr	r3, [pc, #988]	; 2006378 <_Z17run_tests_vramcntv+0x3ec>
 2005f98:	e3e0207f 	mvn	r2, #127	; 0x7f
 2005f9c:	e59f63d8 	ldr	r6, [pc, #984]	; 200637c <_Z17run_tests_vramcntv+0x3f0>
 2005fa0:	e5c32044 	strb	r2, [r3, #68]	; 0x44
 2005fa4:	e59f73d4 	ldr	r7, [pc, #980]	; 2006380 <_Z17run_tests_vramcntv+0x3f4>
 2005fa8:	e5c32043 	strb	r2, [r3, #67]	; 0x43
 2005fac:	e5c32042 	strb	r2, [r3, #66]	; 0x42
 2005fb0:	e5c32041 	strb	r2, [r3, #65]	; 0x41
 2005fb4:	e5c32040 	strb	r2, [r3, #64]	; 0x40
 2005fb8:	e5c32049 	strb	r2, [r3, #73]	; 0x49
 2005fbc:	e5c32048 	strb	r2, [r3, #72]	; 0x48
 2005fc0:	e5c32046 	strb	r2, [r3, #70]	; 0x46
 2005fc4:	e5c32045 	strb	r2, [r3, #69]	; 0x45
 2005fc8:	e59f33b4 	ldr	r3, [pc, #948]	; 2006384 <_Z17run_tests_vramcntv+0x3f8>
 2005fcc:	e3a0251a 	mov	r2, #109051904	; 0x6800000
 2005fd0:	e5823000 	str	r3, [r2]
 2005fd4:	e5867ffc 	str	r7, [r6, #4092]	; 0xffc
 2005fd8:	e28664ab 	add	r6, r6, #-1426063360	; 0xab000000
 2005fdc:	e59f53a4 	ldr	r5, [pc, #932]	; 2006388 <_Z17run_tests_vramcntv+0x3fc>
 2005fe0:	e28669c3 	add	r6, r6, #3194880	; 0x30c000
 2005fe4:	e59f43a0 	ldr	r4, [pc, #928]	; 200638c <_Z17run_tests_vramcntv+0x400>
 2005fe8:	e2866fed 	add	r6, r6, #948	; 0x3b4
 2005fec:	e5856000 	str	r6, [r5]
 2005ff0:	e59f5398 	ldr	r5, [pc, #920]	; 2006390 <_Z17run_tests_vramcntv+0x404>
 2005ff4:	e5845ffc 	str	r5, [r4, #4092]	; 0xffc
 2005ff8:	e24441f1 	sub	r4, r4, #1073741884	; 0x4000003c
 2005ffc:	e59fe390 	ldr	r14, [pc, #912]	; 2006394 <_Z17run_tests_vramcntv+0x408>
 2006000:	e2444513 	sub	r4, r4, #79691776	; 0x4c00000
 2006004:	e2444b4b 	sub	r4, r4, #76800	; 0x12c00
 2006008:	e58e4000 	str	r4, [r14]
 200600c:	e24ee8bd 	sub	r14, r14, #12386304	; 0xbd0000
 2006010:	e59fc380 	ldr	r12, [pc, #896]	; 2006398 <_Z17run_tests_vramcntv+0x40c>
 2006014:	e24eeb0e 	sub	r14, r14, #14336	; 0x3800
 2006018:	e59f037c 	ldr	r0, [pc, #892]	; 200639c <_Z17run_tests_vramcntv+0x410>
 200601c:	e24ee1e1 	sub	r14, r14, #1073741880	; 0x40000038
 2006020:	e58ceffc 	str	r14, [r12, #4092]	; 0xffc
 2006024:	e59f1374 	ldr	r1, [pc, #884]	; 20063a0 <_Z17run_tests_vramcntv+0x414>
 2006028:	e59fc374 	ldr	r12, [pc, #884]	; 20063a4 <_Z17run_tests_vramcntv+0x418>
 200602c:	e580c000 	str	r12, [r0]
 2006030:	e59f0370 	ldr	r0, [pc, #880]	; 20063a8 <_Z17run_tests_vramcntv+0x41c>
 2006034:	e5810ffc 	str	r0, [r1, #4092]	; 0xffc
 2006038:	e5922000 	ldr	r2, [r2]
 200603c:	e1520003 	cmp	r2, r3
 2006040:	0a000001 	beq	200604c <_Z17run_tests_vramcntv+0xc0>
 2006044:	e3a00000 	mov	r0, #0
 2006048:	ebfffb77 	bl	2004e2c <fail_test>
 200604c:	e59f2328 	ldr	r2, [pc, #808]	; 200637c <_Z17run_tests_vramcntv+0x3f0>
 2006050:	e59f3328 	ldr	r3, [pc, #808]	; 2006380 <_Z17run_tests_vramcntv+0x3f4>
 2006054:	e5922ffc 	ldr	r2, [r2, #4092]	; 0xffc
 2006058:	e1520003 	cmp	r2, r3
 200605c:	0a000001 	beq	2006068 <_Z17run_tests_vramcntv+0xdc>
 2006060:	e3a00001 	mov	r0, #1
 2006064:	ebfffb70 	bl	2004e2c <fail_test>
 2006068:	e59f2318 	ldr	r2, [pc, #792]	; 2006388 <_Z17run_tests_vramcntv+0x3fc>
 200606c:	e59f3338 	ldr	r3, [pc, #824]	; 20063ac <_Z17run_tests_vramcntv+0x420>
 2006070:	e5922000 	ldr	r2, [r2]
 2006074:	e1520003 	cmp	r2, r3
 2006078:	0a000001 	beq	2006084 <_Z17run_tests_vramcntv+0xf8>
 200607c:	e3a00002 	mov	r0, #2
 2006080:	ebfffb69 	bl	2004e2c <fail_test>
 2006084:	e59f2300 	ldr	r2, [pc, #768]	; 200638c <_Z17run_tests_vramcntv+0x400>
 2006088:	e59f3300 	ldr	r3, [pc, #768]	; 2006390 <_Z17run_tests_vramcntv+0x404>
 200608c:	e5922ffc 	ldr	r2, [r2, #4092]	; 0xffc
 2006090:	e1520003 	cmp	r2, r3
 2006094:	0a000001 	beq	20060a0 <_Z17run_tests_vramcntv+0x114>
 2006098:	e3a00003 	mov	r0, #3
 200609c:	ebfffb62 	bl	2004e2c <fail_test>
 20060a0:	e59f22ec 	ldr	r2, [pc, #748]	; 2006394 <_Z17run_tests_vramcntv+0x408>
 20060a4:	e59f3304 	ldr	r3, [pc, #772]	; 20063b0 <_Z17run_tests_vramcntv+0x424>
 20060a8:	e5922000 	ldr	r2, [r2]
 20060ac:	e1520003 	cmp	r2, r3
 20060b0:	0a000001 	beq	20060bc <_Z17run_tests_vramcntv+0x130>
 20060b4:	e3a00004 	mov	r0, #4
 20060b8:	ebfffb5b 	bl	2004e2c <fail_test>
 20060bc:	e59f22d4 	ldr	r2, [pc, #724]	; 2006398 <_Z17run_tests_vramcntv+0x40c>
 20060c0:	e59f32ec 	ldr	r3, [pc, #748]	; 20063b4 <_Z17run_tests_vramcntv+0x428>
 20060c4:	e5922ffc 	ldr	r2, [r2, #4092]	; 0xffc
 20060c8:	e1520003 	cmp	r2, r3
 20060cc:	0a000001 	beq	20060d8 <_Z17run_tests_vramcntv+0x14c>
 20060d0:	e3a00005 	mov	r0, #5
 20060d4:	ebfffb54 	bl	2004e2c <fail_test>
 20060d8:	e59f22bc 	ldr	r2, [pc, #700]	; 200639c <_Z17run_tests_vramcntv+0x410>
 20060dc:	e59f32c0 	ldr	r3, [pc, #704]	; 20063a4 <_Z17run_tests_vramcntv+0x418>
 20060e0:	e5922000 	ldr	r2, [r2]
 20060e4:	e1520003 	cmp	r2, r3
 20060e8:	0a000001 	beq	20060f4 <_Z17run_tests_vramcntv+0x168>
 20060ec:	e3a00006 	mov	r0, #6
 20060f0:	ebfffb4d 	bl	2004e2c <fail_test>
 20060f4:	e59f22a4 	ldr	r2, [pc, #676]	; 20063a0 <_Z17run_tests_vramcntv+0x414>
 20060f8:	e59f32a8 	ldr	r3, [pc, #680]	; 20063a8 <_Z17run_tests_vramcntv+0x41c>
 20060fc:	e5922ffc 	ldr	r2, [r2, #4092]	; 0xffc
 2006100:	e1520003 	cmp	r2, r3
 2006104:	0a000001 	beq	2006110 <_Z17run_tests_vramcntv+0x184>
 2006108:	e3a00007 	mov	r0, #7
 200610c:	ebfffb46 	bl	2004e2c <fail_test>
 2006110:	e59f02a0 	ldr	r0, [pc, #672]	; 20063b8 <_Z17run_tests_vramcntv+0x42c>
 2006114:	ebffea82 	bl	2000b24 <_Z14ARM7_read_bytem>
 2006118:	e3500000 	cmp	r0, #0
 200611c:	1a000092 	bne	200636c <_Z17run_tests_vramcntv+0x3e0>
 2006120:	e59f3250 	ldr	r3, [pc, #592]	; 2006378 <_Z17run_tests_vramcntv+0x3ec>
 2006124:	e3e0207d 	mvn	r2, #125	; 0x7d
 2006128:	e59f0288 	ldr	r0, [pc, #648]	; 20063b8 <_Z17run_tests_vramcntv+0x42c>
 200612c:	e5c32042 	strb	r2, [r3, #66]	; 0x42
 2006130:	ebffea7b 	bl	2000b24 <_Z14ARM7_read_bytem>
 2006134:	e3500001 	cmp	r0, #1
 2006138:	0a000001 	beq	2006144 <_Z17run_tests_vramcntv+0x1b8>
 200613c:	e3a00009 	mov	r0, #9
 2006140:	ebfffb39 	bl	2004e2c <fail_test>
 2006144:	e3a00406 	mov	r0, #100663296	; 0x6000000
 2006148:	ebffea4f 	bl	2000a8c <_Z14ARM7_read_wordm>
 200614c:	e59f325c 	ldr	r3, [pc, #604]	; 20063b0 <_Z17run_tests_vramcntv+0x424>
 2006150:	e1500003 	cmp	r0, r3
 2006154:	0a000001 	beq	2006160 <_Z17run_tests_vramcntv+0x1d4>
 2006158:	e3a0000a 	mov	r0, #10
 200615c:	ebfffb32 	bl	2004e2c <fail_test>
 2006160:	e59f0254 	ldr	r0, [pc, #596]	; 20063bc <_Z17run_tests_vramcntv+0x430>
 2006164:	ebffea48 	bl	2000a8c <_Z14ARM7_read_wordm>
 2006168:	e59f3244 	ldr	r3, [pc, #580]	; 20063b4 <_Z17run_tests_vramcntv+0x428>
 200616c:	e1500003 	cmp	r0, r3
 2006170:	0a000001 	beq	200617c <_Z17run_tests_vramcntv+0x1f0>
 2006174:	e3a0000b 	mov	r0, #11
 2006178:	ebfffb2b 	bl	2004e2c <fail_test>
 200617c:	e59f31f4 	ldr	r3, [pc, #500]	; 2006378 <_Z17run_tests_vramcntv+0x3ec>
 2006180:	e3e02075 	mvn	r2, #117	; 0x75
 2006184:	e59f022c 	ldr	r0, [pc, #556]	; 20063b8 <_Z17run_tests_vramcntv+0x42c>
 2006188:	e5c32042 	strb	r2, [r3, #66]	; 0x42
 200618c:	ebffea64 	bl	2000b24 <_Z14ARM7_read_bytem>
 2006190:	e3500001 	cmp	r0, #1
 2006194:	0a000001 	beq	20061a0 <_Z17run_tests_vramcntv+0x214>
 2006198:	e3a0000c 	mov	r0, #12
 200619c:	ebfffb22 	bl	2004e2c <fail_test>
 20061a0:	e59f0218 	ldr	r0, [pc, #536]	; 20063c0 <_Z17run_tests_vramcntv+0x434>
 20061a4:	ebffea38 	bl	2000a8c <_Z14ARM7_read_wordm>
 20061a8:	e59f3200 	ldr	r3, [pc, #512]	; 20063b0 <_Z17run_tests_vramcntv+0x424>
 20061ac:	e1500003 	cmp	r0, r3
 20061b0:	0a000001 	beq	20061bc <_Z17run_tests_vramcntv+0x230>
 20061b4:	e3a0000d 	mov	r0, #13
 20061b8:	ebfffb1b 	bl	2004e2c <fail_test>
 20061bc:	e59f0200 	ldr	r0, [pc, #512]	; 20063c4 <_Z17run_tests_vramcntv+0x438>
 20061c0:	ebffea31 	bl	2000a8c <_Z14ARM7_read_wordm>
 20061c4:	e59f31e8 	ldr	r3, [pc, #488]	; 20063b4 <_Z17run_tests_vramcntv+0x428>
 20061c8:	e1500003 	cmp	r0, r3
 20061cc:	0a000001 	beq	20061d8 <_Z17run_tests_vramcntv+0x24c>
 20061d0:	e3a0000e 	mov	r0, #14
 20061d4:	ebfffb14 	bl	2004e2c <fail_test>
 20061d8:	e59f3198 	ldr	r3, [pc, #408]	; 2006378 <_Z17run_tests_vramcntv+0x3ec>
 20061dc:	e3a01000 	mov	r1, #0
 20061e0:	e3e0207d 	mvn	r2, #125	; 0x7d
 20061e4:	e5c31042 	strb	r1, [r3, #66]	; 0x42
 20061e8:	e59f01c8 	ldr	r0, [pc, #456]	; 20063b8 <_Z17run_tests_vramcntv+0x42c>
 20061ec:	e5c32043 	strb	r2, [r3, #67]	; 0x43
 20061f0:	ebffea4b 	bl	2000b24 <_Z14ARM7_read_bytem>
 20061f4:	e3500002 	cmp	r0, #2
 20061f8:	0a000001 	beq	2006204 <_Z17run_tests_vramcntv+0x278>
 20061fc:	e3a0000f 	mov	r0, #15
 2006200:	ebfffb09 	bl	2004e2c <fail_test>
 2006204:	e3a00406 	mov	r0, #100663296	; 0x6000000
 2006208:	ebffea1f 	bl	2000a8c <_Z14ARM7_read_wordm>
 200620c:	e59f3190 	ldr	r3, [pc, #400]	; 20063a4 <_Z17run_tests_vramcntv+0x418>
 2006210:	e1500003 	cmp	r0, r3
 2006214:	0a000001 	beq	2006220 <_Z17run_tests_vramcntv+0x294>
 2006218:	e3a00010 	mov	r0, #16
 200621c:	ebfffb02 	bl	2004e2c <fail_test>
 2006220:	e59f0194 	ldr	r0, [pc, #404]	; 20063bc <_Z17run_tests_vramcntv+0x430>
 2006224:	ebffea18 	bl	2000a8c <_Z14ARM7_read_wordm>
 2006228:	e59f3178 	ldr	r3, [pc, #376]	; 20063a8 <_Z17run_tests_vramcntv+0x41c>
 200622c:	e1500003 	cmp	r0, r3
 2006230:	0a000001 	beq	200623c <_Z17run_tests_vramcntv+0x2b0>
 2006234:	e3a00011 	mov	r0, #17
 2006238:	ebfffafb 	bl	2004e2c <fail_test>
 200623c:	e59f3134 	ldr	r3, [pc, #308]	; 2006378 <_Z17run_tests_vramcntv+0x3ec>
 2006240:	e3e02075 	mvn	r2, #117	; 0x75
 2006244:	e59f016c 	ldr	r0, [pc, #364]	; 20063b8 <_Z17run_tests_vramcntv+0x42c>
 2006248:	e5c32042 	strb	r2, [r3, #66]	; 0x42
 200624c:	ebffea34 	bl	2000b24 <_Z14ARM7_read_bytem>
 2006250:	e3500003 	cmp	r0, #3
 2006254:	0a000001 	beq	2006260 <_Z17run_tests_vramcntv+0x2d4>
 2006258:	e3a00012 	mov	r0, #18
 200625c:	ebfffaf2 	bl	2004e2c <fail_test>
 2006260:	e3a00406 	mov	r0, #100663296	; 0x6000000
 2006264:	ebffea08 	bl	2000a8c <_Z14ARM7_read_wordm>
 2006268:	e59f3134 	ldr	r3, [pc, #308]	; 20063a4 <_Z17run_tests_vramcntv+0x418>
 200626c:	e1500003 	cmp	r0, r3
 2006270:	0a000001 	beq	200627c <_Z17run_tests_vramcntv+0x2f0>
 2006274:	e3a00013 	mov	r0, #19
 2006278:	ebfffaeb 	bl	2004e2c <fail_test>
 200627c:	e59f0138 	ldr	r0, [pc, #312]	; 20063bc <_Z17run_tests_vramcntv+0x430>
 2006280:	ebffea01 	bl	2000a8c <_Z14ARM7_read_wordm>
 2006284:	e59f311c 	ldr	r3, [pc, #284]	; 20063a8 <_Z17run_tests_vramcntv+0x41c>
 2006288:	e1500003 	cmp	r0, r3
 200628c:	0a000001 	beq	2006298 <_Z17run_tests_vramcntv+0x30c>
 2006290:	e3a00014 	mov	r0, #20
 2006294:	ebfffae4 	bl	2004e2c <fail_test>
 2006298:	e59f0120 	ldr	r0, [pc, #288]	; 20063c0 <_Z17run_tests_vramcntv+0x434>
 200629c:	ebffe9fa 	bl	2000a8c <_Z14ARM7_read_wordm>
 20062a0:	e59f3108 	ldr	r3, [pc, #264]	; 20063b0 <_Z17run_tests_vramcntv+0x424>
 20062a4:	e1500003 	cmp	r0, r3
 20062a8:	0a000001 	beq	20062b4 <_Z17run_tests_vramcntv+0x328>
 20062ac:	e3a00015 	mov	r0, #21
 20062b0:	ebfffadd 	bl	2004e2c <fail_test>
 20062b4:	e59f0108 	ldr	r0, [pc, #264]	; 20063c4 <_Z17run_tests_vramcntv+0x438>
 20062b8:	ebffe9f3 	bl	2000a8c <_Z14ARM7_read_wordm>
 20062bc:	e59f30f0 	ldr	r3, [pc, #240]	; 20063b4 <_Z17run_tests_vramcntv+0x428>
 20062c0:	e1500003 	cmp	r0, r3
 20062c4:	0a000001 	beq	20062d0 <_Z17run_tests_vramcntv+0x344>
 20062c8:	e3a00016 	mov	r0, #22
 20062cc:	ebfffad6 	bl	2004e2c <fail_test>
 20062d0:	e59f10a0 	ldr	r1, [pc, #160]	; 2006378 <_Z17run_tests_vramcntv+0x3ec>
 20062d4:	e3e0007e 	mvn	r0, #126	; 0x7e
 20062d8:	e3a02406 	mov	r2, #100663296	; 0x6000000
 20062dc:	e59f30a0 	ldr	r3, [pc, #160]	; 2006384 <_Z17run_tests_vramcntv+0x3f8>
 20062e0:	e5c10040 	strb	r0, [r1, #64]	; 0x40
 20062e4:	e5922000 	ldr	r2, [r2]
 20062e8:	e1520003 	cmp	r2, r3
 20062ec:	0a000001 	beq	20062f8 <_Z17run_tests_vramcntv+0x36c>
 20062f0:	e3a00017 	mov	r0, #23
 20062f4:	ebfffacc 	bl	2004e2c <fail_test>
 20062f8:	e59f20c8 	ldr	r2, [pc, #200]	; 20063c8 <_Z17run_tests_vramcntv+0x43c>
 20062fc:	e59f307c 	ldr	r3, [pc, #124]	; 2006380 <_Z17run_tests_vramcntv+0x3f4>
 2006300:	e5922ffc 	ldr	r2, [r2, #4092]	; 0xffc
 2006304:	e1520003 	cmp	r2, r3
 2006308:	0a000001 	beq	2006314 <_Z17run_tests_vramcntv+0x388>
 200630c:	e3a00018 	mov	r0, #24
 2006310:	ebfffac5 	bl	2004e2c <fail_test>
 2006314:	e59f105c 	ldr	r1, [pc, #92]	; 2006378 <_Z17run_tests_vramcntv+0x3ec>
 2006318:	e59f20a0 	ldr	r2, [pc, #160]	; 20063c0 <_Z17run_tests_vramcntv+0x434>
 200631c:	e3e00076 	mvn	r0, #118	; 0x76
 2006320:	e59f307c 	ldr	r3, [pc, #124]	; 20063a4 <_Z17run_tests_vramcntv+0x418>
 2006324:	e5c10043 	strb	r0, [r1, #67]	; 0x43
 2006328:	e5922000 	ldr	r2, [r2]
 200632c:	e1520003 	cmp	r2, r3
 2006330:	0a000001 	beq	200633c <_Z17run_tests_vramcntv+0x3b0>
 2006334:	e3a00019 	mov	r0, #25
 2006338:	ebfffabb 	bl	2004e2c <fail_test>
 200633c:	e59f2088 	ldr	r2, [pc, #136]	; 20063cc <_Z17run_tests_vramcntv+0x440>
 2006340:	e59f3060 	ldr	r3, [pc, #96]	; 20063a8 <_Z17run_tests_vramcntv+0x41c>
 2006344:	e5922ffc 	ldr	r2, [r2, #4092]	; 0xffc
 2006348:	e1520003 	cmp	r2, r3
 200634c:	0a000001 	beq	2006358 <_Z17run_tests_vramcntv+0x3cc>
 2006350:	e3a0001a 	mov	r0, #26
 2006354:	ebfffab4 	bl	2004e2c <fail_test>
 2006358:	e59f3018 	ldr	r3, [pc, #24]	; 2006378 <_Z17run_tests_vramcntv+0x3ec>
 200635c:	e3e0207f 	mvn	r2, #127	; 0x7f
 2006360:	e5c32040 	strb	r2, [r3, #64]	; 0x40
 2006364:	e8bd41f0 	pop	{r4, r5, r6, r7, r8, r14}
 2006368:	eaffea39 	b	2000c54 <_Z11ARM7_end_rwv>
 200636c:	e3a00008 	mov	r0, #8
 2006370:	ebfffaad 	bl	2004e2c <fail_test>
 2006374:	eaffff69 	b	2006120 <_Z17run_tests_vramcntv+0x194>
 2006378:	04000200 	streq	r0, [r0], #-512	; 0xfffffe00
 200637c:	0681f000 	streq	r15, [r1], r0
 2006380:	a5a6a7a8 	strge	r10, [r6, #1960]!	; 0x7a8
 2006384:	a1a2a3a4 			; <UNDEFINED> instruction: 0xa1a2a3a4
 2006388:	06820000 	streq	r0, [r2], r0
 200638c:	0683f000 	streq	r15, [r3], r0
 2006390:	b5b6b7b8 	ldrlt	r11, [r6, #1976]!	; 0x7b8
 2006394:	06840000 	streq	r0, [r4], r0
 2006398:	0685f000 	streq	r15, [r5], r0
 200639c:	06860000 	streq	r0, [r6], r0
 20063a0:	0687f000 	streq	r15, [r7], r0
 20063a4:	d1d2d3d4 	ldrsble	r13, [r2, #52]	; 0x34
 20063a8:	d5d6d7d8 	ldrble	r13, [r6, #2008]	; 0x7d8
 20063ac:	b1b2b3b4 			; <UNDEFINED> instruction: 0xb1b2b3b4
 20063b0:	c1c2c3c4 	bicgt	r12, r2, r4, asr #7
 20063b4:	c5c6c7c8 	strbgt	r12, [r6, #1992]	; 0x7c8
 20063b8:	04000240 	streq	r0, [r0], #-576	; 0xfffffdc0
 20063bc:	0601fffc 			; <UNDEFINED> instruction: 0x0601fffc
 20063c0:	06020000 	streq	r0, [r2], -r0
 20063c4:	0603fffc 			; <UNDEFINED> instruction: 0x0603fffc
 20063c8:	0601f000 	streq	r15, [r1], -r0
 20063cc:	0603f000 	streq	r15, [r3], -r0

020063d0 <_Z17run_tests_wramcntv>:
 20063d0:	e92d4010 	push	{r4, r14}
 20063d4:	ebffe99f 	bl	2000a58 <_Z13ARM7_start_rwv>
 20063d8:	e59f4504 	ldr	r4, [pc, #1284]	; 20068e4 <_Z17run_tests_wramcntv+0x514>
 20063dc:	e59fe504 	ldr	r14, [pc, #1284]	; 20068e8 <_Z17run_tests_wramcntv+0x518>
 20063e0:	e3a00000 	mov	r0, #0
 20063e4:	e5c40047 	strb	r0, [r4, #71]	; 0x47
 20063e8:	e59fc4fc 	ldr	r12, [pc, #1276]	; 20068ec <_Z17run_tests_wramcntv+0x51c>
 20063ec:	e59f34fc 	ldr	r3, [pc, #1276]	; 20068f0 <_Z17run_tests_wramcntv+0x520>
 20063f0:	e3a02403 	mov	r2, #50331648	; 0x3000000
 20063f4:	e59f44f8 	ldr	r4, [pc, #1272]	; 20068f4 <_Z17run_tests_wramcntv+0x524>
 20063f8:	e5823000 	str	r3, [r2]
 20063fc:	e59f14f4 	ldr	r1, [pc, #1268]	; 20068f8 <_Z17run_tests_wramcntv+0x528>
 2006400:	e58e4ffc 	str	r4, [r14, #4092]	; 0xffc
 2006404:	e59fe4f0 	ldr	r14, [pc, #1264]	; 20068fc <_Z17run_tests_wramcntv+0x52c>
 2006408:	e58ce000 	str	r14, [r12]
 200640c:	e59fc4ec 	ldr	r12, [pc, #1260]	; 2006900 <_Z17run_tests_wramcntv+0x530>
 2006410:	e581cffc 	str	r12, [r1, #4092]	; 0xffc
 2006414:	e5922000 	ldr	r2, [r2]
 2006418:	e1520003 	cmp	r2, r3
 200641c:	0a000000 	beq	2006424 <_Z17run_tests_wramcntv+0x54>
 2006420:	ebfffa81 	bl	2004e2c <fail_test>
 2006424:	e59f24bc 	ldr	r2, [pc, #1212]	; 20068e8 <_Z17run_tests_wramcntv+0x518>
 2006428:	e59f34c4 	ldr	r3, [pc, #1220]	; 20068f4 <_Z17run_tests_wramcntv+0x524>
 200642c:	e5922ffc 	ldr	r2, [r2, #4092]	; 0xffc
 2006430:	e1520003 	cmp	r2, r3
 2006434:	0a000001 	beq	2006440 <_Z17run_tests_wramcntv+0x70>
 2006438:	e3a00001 	mov	r0, #1
 200643c:	ebfffa7a 	bl	2004e2c <fail_test>
 2006440:	e59f24a4 	ldr	r2, [pc, #1188]	; 20068ec <_Z17run_tests_wramcntv+0x51c>
 2006444:	e59f34b0 	ldr	r3, [pc, #1200]	; 20068fc <_Z17run_tests_wramcntv+0x52c>
 2006448:	e5922000 	ldr	r2, [r2]
 200644c:	e1520003 	cmp	r2, r3
 2006450:	0a000001 	beq	200645c <_Z17run_tests_wramcntv+0x8c>
 2006454:	e3a00002 	mov	r0, #2
 2006458:	ebfffa73 	bl	2004e2c <fail_test>
 200645c:	e59f2494 	ldr	r2, [pc, #1172]	; 20068f8 <_Z17run_tests_wramcntv+0x528>
 2006460:	e59f3498 	ldr	r3, [pc, #1176]	; 2006900 <_Z17run_tests_wramcntv+0x530>
 2006464:	e5922ffc 	ldr	r2, [r2, #4092]	; 0xffc
 2006468:	e1520003 	cmp	r2, r3
 200646c:	0a000001 	beq	2006478 <_Z17run_tests_wramcntv+0xa8>
 2006470:	e3a00003 	mov	r0, #3
 2006474:	ebfffa6c 	bl	2004e2c <fail_test>
 2006478:	e59f2484 	ldr	r2, [pc, #1156]	; 2006904 <_Z17run_tests_wramcntv+0x534>
 200647c:	e59f346c 	ldr	r3, [pc, #1132]	; 20068f0 <_Z17run_tests_wramcntv+0x520>
 2006480:	e5922000 	ldr	r2, [r2]
 2006484:	e1520003 	cmp	r2, r3
 2006488:	0a000001 	beq	2006494 <_Z17run_tests_wramcntv+0xc4>
 200648c:	e3a00004 	mov	r0, #4
 2006490:	ebfffa65 	bl	2004e2c <fail_test>
 2006494:	e59f246c 	ldr	r2, [pc, #1132]	; 2006908 <_Z17run_tests_wramcntv+0x538>
 2006498:	e59f3454 	ldr	r3, [pc, #1108]	; 20068f4 <_Z17run_tests_wramcntv+0x524>
 200649c:	e5922ffc 	ldr	r2, [r2, #4092]	; 0xffc
 20064a0:	e1520003 	cmp	r2, r3
 20064a4:	0a000001 	beq	20064b0 <_Z17run_tests_wramcntv+0xe0>
 20064a8:	e3a00005 	mov	r0, #5
 20064ac:	ebfffa5e 	bl	2004e2c <fail_test>
 20064b0:	e59f2454 	ldr	r2, [pc, #1108]	; 200690c <_Z17run_tests_wramcntv+0x53c>
 20064b4:	e59f3440 	ldr	r3, [pc, #1088]	; 20068fc <_Z17run_tests_wramcntv+0x52c>
 20064b8:	e5922000 	ldr	r2, [r2]
 20064bc:	e1520003 	cmp	r2, r3
 20064c0:	0a000001 	beq	20064cc <_Z17run_tests_wramcntv+0xfc>
 20064c4:	e3a00006 	mov	r0, #6
 20064c8:	ebfffa57 	bl	2004e2c <fail_test>
 20064cc:	e59f243c 	ldr	r2, [pc, #1084]	; 2006910 <_Z17run_tests_wramcntv+0x540>
 20064d0:	e59f3428 	ldr	r3, [pc, #1064]	; 2006900 <_Z17run_tests_wramcntv+0x530>
 20064d4:	e5922ffc 	ldr	r2, [r2, #4092]	; 0xffc
 20064d8:	e1520003 	cmp	r2, r3
 20064dc:	0a000001 	beq	20064e8 <_Z17run_tests_wramcntv+0x118>
 20064e0:	e3a00007 	mov	r0, #7
 20064e4:	ebfffa50 	bl	2004e2c <fail_test>
 20064e8:	e59f0424 	ldr	r0, [pc, #1060]	; 2006914 <_Z17run_tests_wramcntv+0x544>
 20064ec:	ebffe98c 	bl	2000b24 <_Z14ARM7_read_bytem>
 20064f0:	e3100003 	tst	r0, #3
 20064f4:	1a0000f7 	bne	20068d8 <_Z17run_tests_wramcntv+0x508>
 20064f8:	e59f4418 	ldr	r4, [pc, #1048]	; 2006918 <_Z17run_tests_wramcntv+0x548>
 20064fc:	e3a0050e 	mov	r0, #58720256	; 0x3800000
 2006500:	e1a01004 	mov	r1, r4
 2006504:	ebffe999 	bl	2000b70 <_Z15ARM7_write_wordmm>
 2006508:	e59f140c 	ldr	r1, [pc, #1036]	; 200691c <_Z17run_tests_wramcntv+0x54c>
 200650c:	e59f040c 	ldr	r0, [pc, #1036]	; 2006920 <_Z17run_tests_wramcntv+0x550>
 2006510:	ebffe996 	bl	2000b70 <_Z15ARM7_write_wordmm>
 2006514:	e3a0050e 	mov	r0, #58720256	; 0x3800000
 2006518:	ebffe95b 	bl	2000a8c <_Z14ARM7_read_wordm>
 200651c:	e1500004 	cmp	r0, r4
 2006520:	0a000001 	beq	200652c <_Z17run_tests_wramcntv+0x15c>
 2006524:	e3a00009 	mov	r0, #9
 2006528:	ebfffa3f 	bl	2004e2c <fail_test>
 200652c:	e59f03ec 	ldr	r0, [pc, #1004]	; 2006920 <_Z17run_tests_wramcntv+0x550>
 2006530:	ebffe955 	bl	2000a8c <_Z14ARM7_read_wordm>
 2006534:	e59f33e0 	ldr	r3, [pc, #992]	; 200691c <_Z17run_tests_wramcntv+0x54c>
 2006538:	e1500003 	cmp	r0, r3
 200653c:	0a000001 	beq	2006548 <_Z17run_tests_wramcntv+0x178>
 2006540:	e3a0000a 	mov	r0, #10
 2006544:	ebfffa38 	bl	2004e2c <fail_test>
 2006548:	e3a00403 	mov	r0, #50331648	; 0x3000000
 200654c:	ebffe94e 	bl	2000a8c <_Z14ARM7_read_wordm>
 2006550:	e59f33c0 	ldr	r3, [pc, #960]	; 2006918 <_Z17run_tests_wramcntv+0x548>
 2006554:	e1500003 	cmp	r0, r3
 2006558:	0a000001 	beq	2006564 <_Z17run_tests_wramcntv+0x194>
 200655c:	e3a0000b 	mov	r0, #11
 2006560:	ebfffa31 	bl	2004e2c <fail_test>
 2006564:	e59f03b8 	ldr	r0, [pc, #952]	; 2006924 <_Z17run_tests_wramcntv+0x554>
 2006568:	ebffe947 	bl	2000a8c <_Z14ARM7_read_wordm>
 200656c:	e59f33a8 	ldr	r3, [pc, #936]	; 200691c <_Z17run_tests_wramcntv+0x54c>
 2006570:	e1500003 	cmp	r0, r3
 2006574:	0a000001 	beq	2006580 <_Z17run_tests_wramcntv+0x1b0>
 2006578:	e3a0000c 	mov	r0, #12
 200657c:	ebfffa2a 	bl	2004e2c <fail_test>
 2006580:	e3a0050d 	mov	r0, #54525952	; 0x3400000
 2006584:	ebffe940 	bl	2000a8c <_Z14ARM7_read_wordm>
 2006588:	e59f3388 	ldr	r3, [pc, #904]	; 2006918 <_Z17run_tests_wramcntv+0x548>
 200658c:	e1500003 	cmp	r0, r3
 2006590:	0a000001 	beq	200659c <_Z17run_tests_wramcntv+0x1cc>
 2006594:	e3a0000d 	mov	r0, #13
 2006598:	ebfffa23 	bl	2004e2c <fail_test>
 200659c:	e59f0384 	ldr	r0, [pc, #900]	; 2006928 <_Z17run_tests_wramcntv+0x558>
 20065a0:	ebffe939 	bl	2000a8c <_Z14ARM7_read_wordm>
 20065a4:	e59f3370 	ldr	r3, [pc, #880]	; 200691c <_Z17run_tests_wramcntv+0x54c>
 20065a8:	e1500003 	cmp	r0, r3
 20065ac:	0a000001 	beq	20065b8 <_Z17run_tests_wramcntv+0x1e8>
 20065b0:	e3a0000e 	mov	r0, #14
 20065b4:	ebfffa1c 	bl	2004e2c <fail_test>
 20065b8:	e59f3324 	ldr	r3, [pc, #804]	; 20068e4 <_Z17run_tests_wramcntv+0x514>
 20065bc:	e3a02001 	mov	r2, #1
 20065c0:	e59f034c 	ldr	r0, [pc, #844]	; 2006914 <_Z17run_tests_wramcntv+0x544>
 20065c4:	e5c32047 	strb	r2, [r3, #71]	; 0x47
 20065c8:	ebffe955 	bl	2000b24 <_Z14ARM7_read_bytem>
 20065cc:	e2000003 	and	r0, r0, #3
 20065d0:	e3500001 	cmp	r0, #1
 20065d4:	0a000001 	beq	20065e0 <_Z17run_tests_wramcntv+0x210>
 20065d8:	e3a0000f 	mov	r0, #15
 20065dc:	ebfffa12 	bl	2004e2c <fail_test>
 20065e0:	e3a03403 	mov	r3, #50331648	; 0x3000000
 20065e4:	e5932000 	ldr	r2, [r3]
 20065e8:	e59f330c 	ldr	r3, [pc, #780]	; 20068fc <_Z17run_tests_wramcntv+0x52c>
 20065ec:	e1520003 	cmp	r2, r3
 20065f0:	0a000001 	beq	20065fc <_Z17run_tests_wramcntv+0x22c>
 20065f4:	e3a00010 	mov	r0, #16
 20065f8:	ebfffa0b 	bl	2004e2c <fail_test>
 20065fc:	e59f22e4 	ldr	r2, [pc, #740]	; 20068e8 <_Z17run_tests_wramcntv+0x518>
 2006600:	e59f32f8 	ldr	r3, [pc, #760]	; 2006900 <_Z17run_tests_wramcntv+0x530>
 2006604:	e5922ffc 	ldr	r2, [r2, #4092]	; 0xffc
 2006608:	e1520003 	cmp	r2, r3
 200660c:	0a000001 	beq	2006618 <_Z17run_tests_wramcntv+0x248>
 2006610:	e3a00011 	mov	r0, #17
 2006614:	ebfffa04 	bl	2004e2c <fail_test>
 2006618:	e59f230c 	ldr	r2, [pc, #780]	; 200692c <_Z17run_tests_wramcntv+0x55c>
 200661c:	e59f32d8 	ldr	r3, [pc, #728]	; 20068fc <_Z17run_tests_wramcntv+0x52c>
 2006620:	e5922000 	ldr	r2, [r2]
 2006624:	e1520003 	cmp	r2, r3
 2006628:	0a000001 	beq	2006634 <_Z17run_tests_wramcntv+0x264>
 200662c:	e3a00012 	mov	r0, #18
 2006630:	ebfff9fd 	bl	2004e2c <fail_test>
 2006634:	e59f22f4 	ldr	r2, [pc, #756]	; 2006930 <_Z17run_tests_wramcntv+0x560>
 2006638:	e59f32c0 	ldr	r3, [pc, #704]	; 2006900 <_Z17run_tests_wramcntv+0x530>
 200663c:	e5922ffc 	ldr	r2, [r2, #4092]	; 0xffc
 2006640:	e1520003 	cmp	r2, r3
 2006644:	0a000001 	beq	2006650 <_Z17run_tests_wramcntv+0x280>
 2006648:	e3a00013 	mov	r0, #19
 200664c:	ebfff9f6 	bl	2004e2c <fail_test>
 2006650:	e3a00403 	mov	r0, #50331648	; 0x3000000
 2006654:	ebffe90c 	bl	2000a8c <_Z14ARM7_read_wordm>
 2006658:	e59f3290 	ldr	r3, [pc, #656]	; 20068f0 <_Z17run_tests_wramcntv+0x520>
 200665c:	e1500003 	cmp	r0, r3
 2006660:	0a000001 	beq	200666c <_Z17run_tests_wramcntv+0x29c>
 2006664:	e3a00014 	mov	r0, #20
 2006668:	ebfff9ef 	bl	2004e2c <fail_test>
 200666c:	e59f02c0 	ldr	r0, [pc, #704]	; 2006934 <_Z17run_tests_wramcntv+0x564>
 2006670:	ebffe905 	bl	2000a8c <_Z14ARM7_read_wordm>
 2006674:	e59f3278 	ldr	r3, [pc, #632]	; 20068f4 <_Z17run_tests_wramcntv+0x524>
 2006678:	e1500003 	cmp	r0, r3
 200667c:	0a000001 	beq	2006688 <_Z17run_tests_wramcntv+0x2b8>
 2006680:	e3a00015 	mov	r0, #21
 2006684:	ebfff9e8 	bl	2004e2c <fail_test>
 2006688:	e59f02a8 	ldr	r0, [pc, #680]	; 2006938 <_Z17run_tests_wramcntv+0x568>
 200668c:	ebffe8fe 	bl	2000a8c <_Z14ARM7_read_wordm>
 2006690:	e59f3258 	ldr	r3, [pc, #600]	; 20068f0 <_Z17run_tests_wramcntv+0x520>
 2006694:	e1500003 	cmp	r0, r3
 2006698:	0a000001 	beq	20066a4 <_Z17run_tests_wramcntv+0x2d4>
 200669c:	e3a00016 	mov	r0, #22
 20066a0:	ebfff9e1 	bl	2004e2c <fail_test>
 20066a4:	e59f0278 	ldr	r0, [pc, #632]	; 2006924 <_Z17run_tests_wramcntv+0x554>
 20066a8:	ebffe8f7 	bl	2000a8c <_Z14ARM7_read_wordm>
 20066ac:	e59f3240 	ldr	r3, [pc, #576]	; 20068f4 <_Z17run_tests_wramcntv+0x524>
 20066b0:	e1500003 	cmp	r0, r3
 20066b4:	0a000001 	beq	20066c0 <_Z17run_tests_wramcntv+0x2f0>
 20066b8:	e3a00017 	mov	r0, #23
 20066bc:	ebfff9da 	bl	2004e2c <fail_test>
 20066c0:	e59f321c 	ldr	r3, [pc, #540]	; 20068e4 <_Z17run_tests_wramcntv+0x514>
 20066c4:	e3a02002 	mov	r2, #2
 20066c8:	e59f0244 	ldr	r0, [pc, #580]	; 2006914 <_Z17run_tests_wramcntv+0x544>
 20066cc:	e5c32047 	strb	r2, [r3, #71]	; 0x47
 20066d0:	ebffe913 	bl	2000b24 <_Z14ARM7_read_bytem>
 20066d4:	e2000003 	and	r0, r0, #3
 20066d8:	e3500002 	cmp	r0, #2
 20066dc:	0a000001 	beq	20066e8 <_Z17run_tests_wramcntv+0x318>
 20066e0:	e3a00018 	mov	r0, #24
 20066e4:	ebfff9d0 	bl	2004e2c <fail_test>
 20066e8:	e3a03403 	mov	r3, #50331648	; 0x3000000
 20066ec:	e5932000 	ldr	r2, [r3]
 20066f0:	e59f31f8 	ldr	r3, [pc, #504]	; 20068f0 <_Z17run_tests_wramcntv+0x520>
 20066f4:	e1520003 	cmp	r2, r3
 20066f8:	0a000001 	beq	2006704 <_Z17run_tests_wramcntv+0x334>
 20066fc:	e3a00019 	mov	r0, #25
 2006700:	ebfff9c9 	bl	2004e2c <fail_test>
 2006704:	e59f21dc 	ldr	r2, [pc, #476]	; 20068e8 <_Z17run_tests_wramcntv+0x518>
 2006708:	e59f31e4 	ldr	r3, [pc, #484]	; 20068f4 <_Z17run_tests_wramcntv+0x524>
 200670c:	e5922ffc 	ldr	r2, [r2, #4092]	; 0xffc
 2006710:	e1520003 	cmp	r2, r3
 2006714:	0a000001 	beq	2006720 <_Z17run_tests_wramcntv+0x350>
 2006718:	e3a0001a 	mov	r0, #26
 200671c:	ebfff9c2 	bl	2004e2c <fail_test>
 2006720:	e59f2204 	ldr	r2, [pc, #516]	; 200692c <_Z17run_tests_wramcntv+0x55c>
 2006724:	e59f31c4 	ldr	r3, [pc, #452]	; 20068f0 <_Z17run_tests_wramcntv+0x520>
 2006728:	e5922000 	ldr	r2, [r2]
 200672c:	e1520003 	cmp	r2, r3
 2006730:	0a000001 	beq	200673c <_Z17run_tests_wramcntv+0x36c>
 2006734:	e3a0001b 	mov	r0, #27
 2006738:	ebfff9bb 	bl	2004e2c <fail_test>
 200673c:	e59f21ec 	ldr	r2, [pc, #492]	; 2006930 <_Z17run_tests_wramcntv+0x560>
 2006740:	e59f31ac 	ldr	r3, [pc, #428]	; 20068f4 <_Z17run_tests_wramcntv+0x524>
 2006744:	e5922ffc 	ldr	r2, [r2, #4092]	; 0xffc
 2006748:	e1520003 	cmp	r2, r3
 200674c:	0a000001 	beq	2006758 <_Z17run_tests_wramcntv+0x388>
 2006750:	e3a0001c 	mov	r0, #28
 2006754:	ebfff9b4 	bl	2004e2c <fail_test>
 2006758:	e3a00403 	mov	r0, #50331648	; 0x3000000
 200675c:	ebffe8ca 	bl	2000a8c <_Z14ARM7_read_wordm>
 2006760:	e59f3194 	ldr	r3, [pc, #404]	; 20068fc <_Z17run_tests_wramcntv+0x52c>
 2006764:	e1500003 	cmp	r0, r3
 2006768:	0a000001 	beq	2006774 <_Z17run_tests_wramcntv+0x3a4>
 200676c:	e3a0001d 	mov	r0, #29
 2006770:	ebfff9ad 	bl	2004e2c <fail_test>
 2006774:	e59f01b8 	ldr	r0, [pc, #440]	; 2006934 <_Z17run_tests_wramcntv+0x564>
 2006778:	ebffe8c3 	bl	2000a8c <_Z14ARM7_read_wordm>
 200677c:	e59f317c 	ldr	r3, [pc, #380]	; 2006900 <_Z17run_tests_wramcntv+0x530>
 2006780:	e1500003 	cmp	r0, r3
 2006784:	0a000001 	beq	2006790 <_Z17run_tests_wramcntv+0x3c0>
 2006788:	e3a0001e 	mov	r0, #30
 200678c:	ebfff9a6 	bl	2004e2c <fail_test>
 2006790:	e59f01a0 	ldr	r0, [pc, #416]	; 2006938 <_Z17run_tests_wramcntv+0x568>
 2006794:	ebffe8bc 	bl	2000a8c <_Z14ARM7_read_wordm>
 2006798:	e59f315c 	ldr	r3, [pc, #348]	; 20068fc <_Z17run_tests_wramcntv+0x52c>
 200679c:	e1500003 	cmp	r0, r3
 20067a0:	0a000001 	beq	20067ac <_Z17run_tests_wramcntv+0x3dc>
 20067a4:	e3a0001f 	mov	r0, #31
 20067a8:	ebfff99f 	bl	2004e2c <fail_test>
 20067ac:	e59f0170 	ldr	r0, [pc, #368]	; 2006924 <_Z17run_tests_wramcntv+0x554>
 20067b0:	ebffe8b5 	bl	2000a8c <_Z14ARM7_read_wordm>
 20067b4:	e59f3144 	ldr	r3, [pc, #324]	; 2006900 <_Z17run_tests_wramcntv+0x530>
 20067b8:	e1500003 	cmp	r0, r3
 20067bc:	0a000001 	beq	20067c8 <_Z17run_tests_wramcntv+0x3f8>
 20067c0:	e3a00020 	mov	r0, #32
 20067c4:	ebfff998 	bl	2004e2c <fail_test>
 20067c8:	e59f3114 	ldr	r3, [pc, #276]	; 20068e4 <_Z17run_tests_wramcntv+0x514>
 20067cc:	e3a02003 	mov	r2, #3
 20067d0:	e59f013c 	ldr	r0, [pc, #316]	; 2006914 <_Z17run_tests_wramcntv+0x544>
 20067d4:	e5c32047 	strb	r2, [r3, #71]	; 0x47
 20067d8:	ebffe8d1 	bl	2000b24 <_Z14ARM7_read_bytem>
 20067dc:	e2000003 	and	r0, r0, #3
 20067e0:	e3500003 	cmp	r0, #3
 20067e4:	0a000001 	beq	20067f0 <_Z17run_tests_wramcntv+0x420>
 20067e8:	e3a00021 	mov	r0, #33	; 0x21
 20067ec:	ebfff98e 	bl	2004e2c <fail_test>
 20067f0:	e3a00403 	mov	r0, #50331648	; 0x3000000
 20067f4:	ebffe8a4 	bl	2000a8c <_Z14ARM7_read_wordm>
 20067f8:	e59f30f0 	ldr	r3, [pc, #240]	; 20068f0 <_Z17run_tests_wramcntv+0x520>
 20067fc:	e1500003 	cmp	r0, r3
 2006800:	0a000001 	beq	200680c <_Z17run_tests_wramcntv+0x43c>
 2006804:	e3a00022 	mov	r0, #34	; 0x22
 2006808:	ebfff987 	bl	2004e2c <fail_test>
 200680c:	e59f0120 	ldr	r0, [pc, #288]	; 2006934 <_Z17run_tests_wramcntv+0x564>
 2006810:	ebffe89d 	bl	2000a8c <_Z14ARM7_read_wordm>
 2006814:	e59f30d8 	ldr	r3, [pc, #216]	; 20068f4 <_Z17run_tests_wramcntv+0x524>
 2006818:	e1500003 	cmp	r0, r3
 200681c:	0a000001 	beq	2006828 <_Z17run_tests_wramcntv+0x458>
 2006820:	e3a00023 	mov	r0, #35	; 0x23
 2006824:	ebfff980 	bl	2004e2c <fail_test>
 2006828:	e59f0108 	ldr	r0, [pc, #264]	; 2006938 <_Z17run_tests_wramcntv+0x568>
 200682c:	ebffe896 	bl	2000a8c <_Z14ARM7_read_wordm>
 2006830:	e59f30c4 	ldr	r3, [pc, #196]	; 20068fc <_Z17run_tests_wramcntv+0x52c>
 2006834:	e1500003 	cmp	r0, r3
 2006838:	0a000001 	beq	2006844 <_Z17run_tests_wramcntv+0x474>
 200683c:	e3a00024 	mov	r0, #36	; 0x24
 2006840:	ebfff979 	bl	2004e2c <fail_test>
 2006844:	e59f00d8 	ldr	r0, [pc, #216]	; 2006924 <_Z17run_tests_wramcntv+0x554>
 2006848:	ebffe88f 	bl	2000a8c <_Z14ARM7_read_wordm>
 200684c:	e59f30ac 	ldr	r3, [pc, #172]	; 2006900 <_Z17run_tests_wramcntv+0x530>
 2006850:	e1500003 	cmp	r0, r3
 2006854:	0a000001 	beq	2006860 <_Z17run_tests_wramcntv+0x490>
 2006858:	e3a00025 	mov	r0, #37	; 0x25
 200685c:	ebfff972 	bl	2004e2c <fail_test>
 2006860:	e59f00d4 	ldr	r0, [pc, #212]	; 200693c <_Z17run_tests_wramcntv+0x56c>
 2006864:	ebffe888 	bl	2000a8c <_Z14ARM7_read_wordm>
 2006868:	e59f3080 	ldr	r3, [pc, #128]	; 20068f0 <_Z17run_tests_wramcntv+0x520>
 200686c:	e1500003 	cmp	r0, r3
 2006870:	0a000001 	beq	200687c <_Z17run_tests_wramcntv+0x4ac>
 2006874:	e3a00026 	mov	r0, #38	; 0x26
 2006878:	ebfff96b 	bl	2004e2c <fail_test>
 200687c:	e59f00bc 	ldr	r0, [pc, #188]	; 2006940 <_Z17run_tests_wramcntv+0x570>
 2006880:	ebffe881 	bl	2000a8c <_Z14ARM7_read_wordm>
 2006884:	e59f3068 	ldr	r3, [pc, #104]	; 20068f4 <_Z17run_tests_wramcntv+0x524>
 2006888:	e1500003 	cmp	r0, r3
 200688c:	0a000001 	beq	2006898 <_Z17run_tests_wramcntv+0x4c8>
 2006890:	e3a00027 	mov	r0, #39	; 0x27
 2006894:	ebfff964 	bl	2004e2c <fail_test>
 2006898:	e59f00a4 	ldr	r0, [pc, #164]	; 2006944 <_Z17run_tests_wramcntv+0x574>
 200689c:	ebffe87a 	bl	2000a8c <_Z14ARM7_read_wordm>
 20068a0:	e59f3054 	ldr	r3, [pc, #84]	; 20068fc <_Z17run_tests_wramcntv+0x52c>
 20068a4:	e1500003 	cmp	r0, r3
 20068a8:	0a000001 	beq	20068b4 <_Z17run_tests_wramcntv+0x4e4>
 20068ac:	e3a00028 	mov	r0, #40	; 0x28
 20068b0:	ebfff95d 	bl	2004e2c <fail_test>
 20068b4:	e59f008c 	ldr	r0, [pc, #140]	; 2006948 <_Z17run_tests_wramcntv+0x578>
 20068b8:	ebffe873 	bl	2000a8c <_Z14ARM7_read_wordm>
 20068bc:	e59f303c 	ldr	r3, [pc, #60]	; 2006900 <_Z17run_tests_wramcntv+0x530>
 20068c0:	e1500003 	cmp	r0, r3
 20068c4:	0a000001 	beq	20068d0 <_Z17run_tests_wramcntv+0x500>
 20068c8:	e3a00029 	mov	r0, #41	; 0x29
 20068cc:	ebfff956 	bl	2004e2c <fail_test>
 20068d0:	e8bd4010 	pop	{r4, r14}
 20068d4:	eaffe8de 	b	2000c54 <_Z11ARM7_end_rwv>
 20068d8:	e3a00008 	mov	r0, #8
 20068dc:	ebfff952 	bl	2004e2c <fail_test>
 20068e0:	eaffff04 	b	20064f8 <_Z17run_tests_wramcntv+0x128>
 20068e4:	04000200 	streq	r0, [r0], #-512	; 0xfffffe00
 20068e8:	03003000 	movweq	r3, #0
 20068ec:	03004000 	movweq	r4, #0
 20068f0:	1a2b3c4d 	bne	2ad5a2c <_ZL12sqrt64_tests+0xaccdc0>
 20068f4:	1f2f3f4f 	svcne	0x002f3f4f
 20068f8:	03007000 	movweq	r7, #0
 20068fc:	2f3f4f5f 	svccs	0x003f4f5f
 2006900:	89abcdef 	stmibhi	r11!, {r0, r1, r2, r3, r5, r6, r7, r8, r10, r11, r14, r15}
 2006904:	03020000 	movweq	r0, #8192	; 0x2000
 2006908:	03023000 	movweq	r3, #8192	; 0x2000
 200690c:	03024000 	movweq	r4, #8192	; 0x2000
 2006910:	03027000 	movweq	r7, #8192	; 0x2000
 2006914:	04000241 	streq	r0, [r0], #-577	; 0xfffffdbf
 2006918:	c0de5890 	smullsgt	r5, r14, r0, r8
 200691c:	deadbeef 	cdple	14, 10, cr11, cr13, cr15, {7}
 2006920:	0380fffc 	orreq	r15, r0, #252, 30	; 0x3f0
 2006924:	0300fffc 	movweq	r15, #4092	; 0xffc	; <UNPREDICTABLE>
 2006928:	0340fffc 	movteq	r15, #4092	; 0xffc	; <UNPREDICTABLE>
 200692c:	0304c000 	movweq	r12, #16384	; 0x4000
 2006930:	0304f000 	movweq	r15, #16384	; 0x4000	; <UNPREDICTABLE>
 2006934:	03003ffc 	movweq	r3, #4092	; 0xffc
 2006938:	0300c000 	movweq	r12, #0
 200693c:	03110000 	tsteq	r1, #0
 2006940:	03223ffc 			; <UNDEFINED> instruction: 0x03223ffc
 2006944:	0333c000 	teqeq	r3, #0
 2006948:	0344fffc 	movteq	r15, #20476	; 0x4ffc	; <UNPREDICTABLE>

0200694c <cc_gt>:
 200694c:	6a6a56aa 	bvs	3a9c3fc <_ZL12sqrt64_tests+0x1a93790>
 2006950:	696655a6 	stmdbvs	r6!, {r1, r2, r5, r7, r8, r10, r12, r14}^
 2006954:	6a6966a9 	bvs	3a60400 <_ZL12sqrt64_tests+0x1a57794>
 2006958:	6a6566a5 	bvs	39603f4 <_ZL12sqrt64_tests+0x1957788>
 200695c:	565a6a9a 			; <UNDEFINED> instruction: 0x565a6a9a
 2006960:	55566996 	ldrbpl	r6, [r6, #-2454]	; 0xfffff66a
 2006964:	66596a99 			; <UNDEFINED> instruction: 0x66596a99
 2006968:	66556a95 			; <UNDEFINED> instruction: 0x66556a95

0200696c <run_tests_armv4_conditioncodes>:
 200696c:	e24f0028 	sub	r0, r15, #40	; 0x28
 2006970:	e3a01000 	mov	r1, #0

02006974 <cc_loop>:
 2006974:	e3a02000 	mov	r2, #0
 2006978:	e128f001 	msr	CPSR_f, r1
 200697c:	03822001 	orreq	r2, r2, #1
 2006980:	13822002 	orrne	r2, r2, #2
 2006984:	23822004 	orrcs	r2, r2, #4
 2006988:	33822008 	orrcc	r2, r2, #8
 200698c:	43822010 	orrmi	r2, r2, #16
 2006990:	53822020 	orrpl	r2, r2, #32
 2006994:	63822040 	orrvs	r2, r2, #64	; 0x40
 2006998:	73822080 	orrvc	r2, r2, #128	; 0x80
 200699c:	83822c01 	orrhi	r2, r2, #256	; 0x100
 20069a0:	93822c02 	orrls	r2, r2, #512	; 0x200
 20069a4:	a3822b01 	orrge	r2, r2, #1024	; 0x400
 20069a8:	b3822b02 	orrlt	r2, r2, #2048	; 0x800
 20069ac:	c3822a01 	orrgt	r2, r2, #4096	; 0x1000
 20069b0:	d3822a02 	orrle	r2, r2, #8192	; 0x2000
 20069b4:	e3822901 	orr	r2, r2, #16384	; 0x4000
 20069b8:	e0d030b2 	ldrh	r3, [r0], #2
 20069bc:	e1520003 	cmp	r2, r3
 20069c0:	1a000002 	bne	20069d0 <cc_find_error>
 20069c4:	e2911201 	adds	r1, r1, #268435456	; 0x10000000
 20069c8:	3affffe9 	bcc	2006974 <cc_loop>
 20069cc:	e12fff1e 	bx	r14

020069d0 <cc_find_error>:
 20069d0:	e1a00c21 	lsr	r0, r1, #24
 20069d4:	e0222003 	eor	r2, r2, r3
 20069d8:	e3a01000 	mov	r1, #0

020069dc <cc_errloop>:
 20069dc:	e1b020a2 	lsrs	r2, r2, #1
 20069e0:	32811001 	addcc	r1, r1, #1
 20069e4:	3afffffc 	bcc	20069dc <cc_errloop>
 20069e8:	e0800001 	add	r0, r0, r1
 20069ec:	eafff90e 	b	2004e2c <fail_test>

020069f0 <run_tests_armv5_clz>:
 20069f0:	e3a00000 	mov	r0, #0
 20069f4:	e3a01102 	mov	r1, #-2147483648	; 0x80000000
 20069f8:	e16f2f11 	clz	r2, r1
 20069fc:	e3520000 	cmp	r2, #0
 2006a00:	1afff909 	bne	2004e2c <fail_test>
 2006a04:	e3a00001 	mov	r0, #1
 2006a08:	e59f105c 	ldr	r1, [pc, #92]	; 2006a6c <run_tests_armv5_clz+0x7c>
 2006a0c:	e16f2f11 	clz	r2, r1
 2006a10:	e3520009 	cmp	r2, #9
 2006a14:	1afff904 	bne	2004e2c <fail_test>
 2006a18:	e3a00002 	mov	r0, #2
 2006a1c:	e3a01001 	mov	r1, #1
 2006a20:	e16f2f11 	clz	r2, r1
 2006a24:	e352001f 	cmp	r2, #31
 2006a28:	1afff8ff 	bne	2004e2c <fail_test>
 2006a2c:	e3a00003 	mov	r0, #3
 2006a30:	e3a01000 	mov	r1, #0
 2006a34:	e16f2f11 	clz	r2, r1
 2006a38:	e3520020 	cmp	r2, #32
 2006a3c:	1afff8fa 	bne	2004e2c <fail_test>
 2006a40:	e3a00004 	mov	r0, #4
 2006a44:	e59f1024 	ldr	r1, [pc, #36]	; 2006a70 <run_tests_armv5_clz+0x80>
 2006a48:	e16f1f11 	clz	r1, r1
 2006a4c:	e3510011 	cmp	r1, #17
 2006a50:	1afff8f5 	bne	2004e2c <fail_test>
 2006a54:	e3a00005 	mov	r0, #5
 2006a58:	e3a01205 	mov	r1, #1342177280	; 0x50000000
 2006a5c:	e16f1f11 	clz	r1, r1
 2006a60:	e3510001 	cmp	r1, #1
 2006a64:	1afff8f0 	bne	2004e2c <fail_test>
 2006a68:	e12fff1e 	bx	r14
 2006a6c:	0075abcd 	rsbseq	r10, r5, r13, asr #23
 2006a70:	00004d33 	andeq	r4, r0, r3, lsr r13

02006a74 <run_tests_armv5_qadd_qsub>:
 2006a74:	e92d0030 	push	{r4, r5}
 2006a78:	e3a04000 	mov	r4, #0
 2006a7c:	e128f004 	msr	CPSR_f, r4
 2006a80:	e3a00000 	mov	r0, #0
 2006a84:	e128f004 	msr	CPSR_f, r4
 2006a88:	e3a02002 	mov	r2, #2
 2006a8c:	e3a03003 	mov	r3, #3
 2006a90:	e1031052 	qadd	r1, r2, r3
 2006a94:	e3510005 	cmp	r1, #5
 2006a98:	1afff8e3 	bne	2004e2c <fail_test>
 2006a9c:	e10f5000 	mrs	r5, CPSR
 2006aa0:	e3150302 	tst	r5, #134217728	; 0x8000000
 2006aa4:	1afff8e0 	bne	2004e2c <fail_test>
 2006aa8:	e3a00001 	mov	r0, #1
 2006aac:	e3a02007 	mov	r2, #7
 2006ab0:	e3e03005 	mvn	r3, #5
 2006ab4:	e1031052 	qadd	r1, r2, r3
 2006ab8:	e3510001 	cmp	r1, #1
 2006abc:	1afff8da 	bne	2004e2c <fail_test>
 2006ac0:	e10f5000 	mrs	r5, CPSR
 2006ac4:	e3150302 	tst	r5, #134217728	; 0x8000000
 2006ac8:	1afff8d7 	bne	2004e2c <fail_test>
 2006acc:	e3a00002 	mov	r0, #2
 2006ad0:	e3e0202b 	mvn	r2, #43	; 0x2b
 2006ad4:	e3e0300d 	mvn	r3, #13
 2006ad8:	e1031052 	qadd	r1, r2, r3
 2006adc:	e371003a 	cmn	r1, #58	; 0x3a
 2006ae0:	1afff8d1 	bne	2004e2c <fail_test>
 2006ae4:	e10f5000 	mrs	r5, CPSR
 2006ae8:	e3150302 	tst	r5, #134217728	; 0x8000000
 2006aec:	1afff8ce 	bne	2004e2c <fail_test>
 2006af0:	e3a00003 	mov	r0, #3
 2006af4:	e3e02102 	mvn	r2, #-2147483648	; 0x80000000
 2006af8:	e3a03001 	mov	r3, #1
 2006afc:	e1031052 	qadd	r1, r2, r3
 2006b00:	e1510002 	cmp	r1, r2
 2006b04:	1afff8c8 	bne	2004e2c <fail_test>
 2006b08:	e10f5000 	mrs	r5, CPSR
 2006b0c:	e3150302 	tst	r5, #134217728	; 0x8000000
 2006b10:	0afff8c5 	beq	2004e2c <fail_test>
 2006b14:	e3a00004 	mov	r0, #4
 2006b18:	e3a02006 	mov	r2, #6
 2006b1c:	e3a03007 	mov	r3, #7
 2006b20:	e1031052 	qadd	r1, r2, r3
 2006b24:	e351000d 	cmp	r1, #13
 2006b28:	1afff8bf 	bne	2004e2c <fail_test>
 2006b2c:	e10f5000 	mrs	r5, CPSR
 2006b30:	e3150302 	tst	r5, #134217728	; 0x8000000
 2006b34:	0afff8bc 	beq	2004e2c <fail_test>
 2006b38:	e128f004 	msr	CPSR_f, r4
 2006b3c:	e3a00005 	mov	r0, #5
 2006b40:	e3e02102 	mvn	r2, #-2147483648	; 0x80000000
 2006b44:	e3e03000 	mvn	r3, #0
 2006b48:	e1031052 	qadd	r1, r2, r3
 2006b4c:	e371010a 	cmn	r1, #-2147483646	; 0x80000002
 2006b50:	1afff8b5 	bne	2004e2c <fail_test>
 2006b54:	e10f5000 	mrs	r5, CPSR
 2006b58:	e3150302 	tst	r5, #134217728	; 0x8000000
 2006b5c:	1afff8b2 	bne	2004e2c <fail_test>
 2006b60:	e3a00006 	mov	r0, #6
 2006b64:	e3a02102 	mov	r2, #-2147483648	; 0x80000000
 2006b68:	e3e03000 	mvn	r3, #0
 2006b6c:	e1031052 	qadd	r1, r2, r3
 2006b70:	e3510102 	cmp	r1, #-2147483648	; 0x80000000
 2006b74:	1afff8ac 	bne	2004e2c <fail_test>
 2006b78:	e10f5000 	mrs	r5, CPSR
 2006b7c:	e3150302 	tst	r5, #134217728	; 0x8000000
 2006b80:	0afff8a9 	beq	2004e2c <fail_test>
 2006b84:	e128f004 	msr	CPSR_f, r4
 2006b88:	e3a00007 	mov	r0, #7
 2006b8c:	e3a02102 	mov	r2, #-2147483648	; 0x80000000
 2006b90:	e3a03001 	mov	r3, #1
 2006b94:	e1031052 	qadd	r1, r2, r3
 2006b98:	e3510106 	cmp	r1, #-2147483647	; 0x80000001
 2006b9c:	1afff8a2 	bne	2004e2c <fail_test>
 2006ba0:	e10f5000 	mrs	r5, CPSR
 2006ba4:	e3150302 	tst	r5, #134217728	; 0x8000000
 2006ba8:	1afff89f 	bne	2004e2c <fail_test>
 2006bac:	e3a00008 	mov	r0, #8
 2006bb0:	e3e02106 	mvn	r2, #-2147483647	; 0x80000001
 2006bb4:	e3a03001 	mov	r3, #1
 2006bb8:	e1031052 	qadd	r1, r2, r3
 2006bbc:	e3710106 	cmn	r1, #-2147483647	; 0x80000001
 2006bc0:	1afff899 	bne	2004e2c <fail_test>
 2006bc4:	e10f5000 	mrs	r5, CPSR
 2006bc8:	e3150302 	tst	r5, #134217728	; 0x8000000
 2006bcc:	1afff896 	bne	2004e2c <fail_test>
 2006bd0:	e3a00009 	mov	r0, #9
 2006bd4:	e3a02106 	mov	r2, #-2147483647	; 0x80000001
 2006bd8:	e3e03000 	mvn	r3, #0
 2006bdc:	e1031052 	qadd	r1, r2, r3
 2006be0:	e3510102 	cmp	r1, #-2147483648	; 0x80000000
 2006be4:	1afff890 	bne	2004e2c <fail_test>
 2006be8:	e10f5000 	mrs	r5, CPSR
 2006bec:	e3150302 	tst	r5, #134217728	; 0x8000000
 2006bf0:	1afff88d 	bne	2004e2c <fail_test>
 2006bf4:	e3a0000a 	mov	r0, #10
 2006bf8:	e3e02102 	mvn	r2, #-2147483648	; 0x80000000
 2006bfc:	e3a03102 	mov	r3, #-2147483648	; 0x80000000
 2006c00:	e1031052 	qadd	r1, r2, r3
 2006c04:	e3710001 	cmn	r1, #1
 2006c08:	1afff887 	bne	2004e2c <fail_test>
 2006c0c:	e10f5000 	mrs	r5, CPSR
 2006c10:	e3150302 	tst	r5, #134217728	; 0x8000000
 2006c14:	1afff884 	bne	2004e2c <fail_test>
 2006c18:	e3a00010 	mov	r0, #16
 2006c1c:	e3a02007 	mov	r2, #7
 2006c20:	e3a0300b 	mov	r3, #11
 2006c24:	e1231052 	qsub	r1, r2, r3
 2006c28:	e3710004 	cmn	r1, #4
 2006c2c:	1afff87e 	bne	2004e2c <fail_test>
 2006c30:	e10f5000 	mrs	r5, CPSR
 2006c34:	e3150302 	tst	r5, #134217728	; 0x8000000
 2006c38:	1afff87b 	bne	2004e2c <fail_test>
 2006c3c:	e3a00011 	mov	r0, #17
 2006c40:	e3e02102 	mvn	r2, #-2147483648	; 0x80000000
 2006c44:	e3a03000 	mov	r3, #0
 2006c48:	e1231052 	qsub	r1, r2, r3
 2006c4c:	e1510002 	cmp	r1, r2
 2006c50:	1afff875 	bne	2004e2c <fail_test>
 2006c54:	e10f5000 	mrs	r5, CPSR
 2006c58:	e3150302 	tst	r5, #134217728	; 0x8000000
 2006c5c:	1afff872 	bne	2004e2c <fail_test>
 2006c60:	e3a00012 	mov	r0, #18
 2006c64:	e3e02102 	mvn	r2, #-2147483648	; 0x80000000
 2006c68:	e3e03000 	mvn	r3, #0
 2006c6c:	e1231052 	qsub	r1, r2, r3
 2006c70:	e1510002 	cmp	r1, r2
 2006c74:	1afff86c 	bne	2004e2c <fail_test>
 2006c78:	e10f5000 	mrs	r5, CPSR
 2006c7c:	e3150302 	tst	r5, #134217728	; 0x8000000
 2006c80:	0afff869 	beq	2004e2c <fail_test>
 2006c84:	e128f004 	msr	CPSR_f, r4
 2006c88:	e3a00013 	mov	r0, #19
 2006c8c:	e3e02102 	mvn	r2, #-2147483648	; 0x80000000
 2006c90:	e3a03001 	mov	r3, #1
 2006c94:	e1231052 	qsub	r1, r2, r3
 2006c98:	e371010a 	cmn	r1, #-2147483646	; 0x80000002
 2006c9c:	1afff862 	bne	2004e2c <fail_test>
 2006ca0:	e10f5000 	mrs	r5, CPSR
 2006ca4:	e3150302 	tst	r5, #134217728	; 0x8000000
 2006ca8:	1afff85f 	bne	2004e2c <fail_test>
 2006cac:	e3a00014 	mov	r0, #20
 2006cb0:	e3e02106 	mvn	r2, #-2147483647	; 0x80000001
 2006cb4:	e3a03001 	mov	r3, #1
 2006cb8:	e1231052 	qsub	r1, r2, r3
 2006cbc:	e371010e 	cmn	r1, #-2147483645	; 0x80000003
 2006cc0:	1afff859 	bne	2004e2c <fail_test>
 2006cc4:	e10f5000 	mrs	r5, CPSR
 2006cc8:	e3150302 	tst	r5, #134217728	; 0x8000000
 2006ccc:	1afff856 	bne	2004e2c <fail_test>
 2006cd0:	e3a00015 	mov	r0, #21
 2006cd4:	e3e02106 	mvn	r2, #-2147483647	; 0x80000001
 2006cd8:	e3e03000 	mvn	r3, #0
 2006cdc:	e1231052 	qsub	r1, r2, r3
 2006ce0:	e3710106 	cmn	r1, #-2147483647	; 0x80000001
 2006ce4:	1afff850 	bne	2004e2c <fail_test>
 2006ce8:	e10f5000 	mrs	r5, CPSR
 2006cec:	e3150302 	tst	r5, #134217728	; 0x8000000
 2006cf0:	1afff84d 	bne	2004e2c <fail_test>
 2006cf4:	e3a00016 	mov	r0, #22
 2006cf8:	e3e02106 	mvn	r2, #-2147483647	; 0x80000001
 2006cfc:	e3e03001 	mvn	r3, #1
 2006d00:	e1231052 	qsub	r1, r2, r3
 2006d04:	e3710106 	cmn	r1, #-2147483647	; 0x80000001
 2006d08:	1afff847 	bne	2004e2c <fail_test>
 2006d0c:	e10f5000 	mrs	r5, CPSR
 2006d10:	e3150302 	tst	r5, #134217728	; 0x8000000
 2006d14:	0afff844 	beq	2004e2c <fail_test>
 2006d18:	e128f004 	msr	CPSR_f, r4
 2006d1c:	e3a00017 	mov	r0, #23
 2006d20:	e3a02102 	mov	r2, #-2147483648	; 0x80000000
 2006d24:	e3a03000 	mov	r3, #0
 2006d28:	e1231052 	qsub	r1, r2, r3
 2006d2c:	e3510102 	cmp	r1, #-2147483648	; 0x80000000
 2006d30:	1afff83d 	bne	2004e2c <fail_test>
 2006d34:	e10f5000 	mrs	r5, CPSR
 2006d38:	e3150302 	tst	r5, #134217728	; 0x8000000
 2006d3c:	1afff83a 	bne	2004e2c <fail_test>
 2006d40:	e3a00018 	mov	r0, #24
 2006d44:	e3a02102 	mov	r2, #-2147483648	; 0x80000000
 2006d48:	e3e03000 	mvn	r3, #0
 2006d4c:	e1231052 	qsub	r1, r2, r3
 2006d50:	e3510106 	cmp	r1, #-2147483647	; 0x80000001
 2006d54:	1afff834 	bne	2004e2c <fail_test>
 2006d58:	e10f5000 	mrs	r5, CPSR
 2006d5c:	e3150302 	tst	r5, #134217728	; 0x8000000
 2006d60:	1afff831 	bne	2004e2c <fail_test>
 2006d64:	e3a00019 	mov	r0, #25
 2006d68:	e3a02102 	mov	r2, #-2147483648	; 0x80000000
 2006d6c:	e3a03001 	mov	r3, #1
 2006d70:	e1231052 	qsub	r1, r2, r3
 2006d74:	e3510102 	cmp	r1, #-2147483648	; 0x80000000
 2006d78:	1afff82b 	bne	2004e2c <fail_test>
 2006d7c:	e10f5000 	mrs	r5, CPSR
 2006d80:	e3150302 	tst	r5, #134217728	; 0x8000000
 2006d84:	0afff828 	beq	2004e2c <fail_test>
 2006d88:	e128f004 	msr	CPSR_f, r4
 2006d8c:	e3a0001a 	mov	r0, #26
 2006d90:	e3a020d6 	mov	r2, #214	; 0xd6
 2006d94:	e3e0300a 	mvn	r3, #10
 2006d98:	e1231052 	qsub	r1, r2, r3
 2006d9c:	e35100e1 	cmp	r1, #225	; 0xe1
 2006da0:	1afff821 	bne	2004e2c <fail_test>
 2006da4:	e10f5000 	mrs	r5, CPSR
 2006da8:	e3150302 	tst	r5, #134217728	; 0x8000000
 2006dac:	1afff81e 	bne	2004e2c <fail_test>
 2006db0:	e8bd0030 	pop	{r4, r5}
 2006db4:	e12fff1e 	bx	r14

02006db8 <run_tests_armv5_qdadd_qdsub>:
 2006db8:	e92d0030 	push	{r4, r5}
 2006dbc:	e3a04000 	mov	r4, #0
 2006dc0:	e128f004 	msr	CPSR_f, r4
 2006dc4:	e3a00000 	mov	r0, #0
 2006dc8:	e3a0206a 	mov	r2, #106	; 0x6a
 2006dcc:	e3a03008 	mov	r3, #8
 2006dd0:	e1431052 	qdadd	r1, r2, r3
 2006dd4:	e351007a 	cmp	r1, #122	; 0x7a
 2006dd8:	1afff813 	bne	2004e2c <fail_test>
 2006ddc:	e10f5000 	mrs	r5, CPSR
 2006de0:	e3150302 	tst	r5, #134217728	; 0x8000000
 2006de4:	1afff810 	bne	2004e2c <fail_test>
 2006de8:	e3a00001 	mov	r0, #1
 2006dec:	e3a02090 	mov	r2, #144	; 0x90
 2006df0:	e3e0300b 	mvn	r3, #11
 2006df4:	e1431052 	qdadd	r1, r2, r3
 2006df8:	e3510078 	cmp	r1, #120	; 0x78
 2006dfc:	1afff80a 	bne	2004e2c <fail_test>
 2006e00:	e10f5000 	mrs	r5, CPSR
 2006e04:	e3150302 	tst	r5, #134217728	; 0x8000000
 2006e08:	1afff807 	bne	2004e2c <fail_test>
 2006e0c:	e3a00002 	mov	r0, #2
 2006e10:	e3e0200a 	mvn	r2, #10
 2006e14:	e3a03008 	mov	r3, #8
 2006e18:	e1431052 	qdadd	r1, r2, r3
 2006e1c:	e3510005 	cmp	r1, #5
 2006e20:	1afff801 	bne	2004e2c <fail_test>
 2006e24:	e10f5000 	mrs	r5, CPSR
 2006e28:	e3150302 	tst	r5, #134217728	; 0x8000000
 2006e2c:	1afff7fe 	bne	2004e2c <fail_test>
 2006e30:	e3a00003 	mov	r0, #3
 2006e34:	e3a02009 	mov	r2, #9
 2006e38:	e3e0300b 	mvn	r3, #11
 2006e3c:	e1431052 	qdadd	r1, r2, r3
 2006e40:	e371000f 	cmn	r1, #15
 2006e44:	1afff7f8 	bne	2004e2c <fail_test>
 2006e48:	e10f5000 	mrs	r5, CPSR
 2006e4c:	e3150302 	tst	r5, #134217728	; 0x8000000
 2006e50:	1afff7f5 	bne	2004e2c <fail_test>
 2006e54:	e3a00004 	mov	r0, #4
 2006e58:	e3e0211e 	mvn	r2, #-2147483641	; 0x80000007
 2006e5c:	e3a03003 	mov	r3, #3
 2006e60:	e1431052 	qdadd	r1, r2, r3
 2006e64:	e3e05106 	mvn	r5, #-2147483647	; 0x80000001
 2006e68:	e1510005 	cmp	r1, r5
 2006e6c:	1afff7ee 	bne	2004e2c <fail_test>
 2006e70:	e10f5000 	mrs	r5, CPSR
 2006e74:	e3150302 	tst	r5, #134217728	; 0x8000000
 2006e78:	1afff7eb 	bne	2004e2c <fail_test>
 2006e7c:	e3a00005 	mov	r0, #5
 2006e80:	e3e0211e 	mvn	r2, #-2147483641	; 0x80000007
 2006e84:	e3a03004 	mov	r3, #4
 2006e88:	e1431052 	qdadd	r1, r2, r3
 2006e8c:	e3710106 	cmn	r1, #-2147483647	; 0x80000001
 2006e90:	1afff7e5 	bne	2004e2c <fail_test>
 2006e94:	e10f5000 	mrs	r5, CPSR
 2006e98:	e3150302 	tst	r5, #134217728	; 0x8000000
 2006e9c:	0afff7e2 	beq	2004e2c <fail_test>
 2006ea0:	e128f004 	msr	CPSR_f, r4
 2006ea4:	e3a00006 	mov	r0, #6
 2006ea8:	e3e0211a 	mvn	r2, #-2147483642	; 0x80000006
 2006eac:	e3a03003 	mov	r3, #3
 2006eb0:	e1431052 	qdadd	r1, r2, r3
 2006eb4:	e3710106 	cmn	r1, #-2147483647	; 0x80000001
 2006eb8:	1afff7db 	bne	2004e2c <fail_test>
 2006ebc:	e10f5000 	mrs	r5, CPSR
 2006ec0:	e3150302 	tst	r5, #134217728	; 0x8000000
 2006ec4:	1afff7d8 	bne	2004e2c <fail_test>
 2006ec8:	e3a00007 	mov	r0, #7
 2006ecc:	e3a02116 	mov	r2, #-2147483643	; 0x80000005
 2006ed0:	e3e03001 	mvn	r3, #1
 2006ed4:	e1431052 	qdadd	r1, r2, r3
 2006ed8:	e3510106 	cmp	r1, #-2147483647	; 0x80000001
 2006edc:	1afff7d2 	bne	2004e2c <fail_test>
 2006ee0:	e10f5000 	mrs	r5, CPSR
 2006ee4:	e3150302 	tst	r5, #134217728	; 0x8000000
 2006ee8:	1afff7cf 	bne	2004e2c <fail_test>
 2006eec:	e3a00008 	mov	r0, #8
 2006ef0:	e3a02116 	mov	r2, #-2147483643	; 0x80000005
 2006ef4:	e3e03002 	mvn	r3, #2
 2006ef8:	e1431052 	qdadd	r1, r2, r3
 2006efc:	e3510102 	cmp	r1, #-2147483648	; 0x80000000
 2006f00:	1afff7c9 	bne	2004e2c <fail_test>
 2006f04:	e10f5000 	mrs	r5, CPSR
 2006f08:	e3150302 	tst	r5, #134217728	; 0x8000000
 2006f0c:	0afff7c6 	beq	2004e2c <fail_test>
 2006f10:	e128f004 	msr	CPSR_f, r4
 2006f14:	e3a00009 	mov	r0, #9
 2006f18:	e3a02112 	mov	r2, #-2147483644	; 0x80000004
 2006f1c:	e3e03001 	mvn	r3, #1
 2006f20:	e1431052 	qdadd	r1, r2, r3
 2006f24:	e3510102 	cmp	r1, #-2147483648	; 0x80000000
 2006f28:	1afff7bf 	bne	2004e2c <fail_test>
 2006f2c:	e10f5000 	mrs	r5, CPSR
 2006f30:	e3150302 	tst	r5, #134217728	; 0x8000000
 2006f34:	1afff7bc 	bne	2004e2c <fail_test>
 2006f38:	e3a0000a 	mov	r0, #10
 2006f3c:	e3a02102 	mov	r2, #-2147483648	; 0x80000000
 2006f40:	e3e03106 	mvn	r3, #-2147483647	; 0x80000001
 2006f44:	e1431052 	qdadd	r1, r2, r3
 2006f48:	e3710001 	cmn	r1, #1
 2006f4c:	1afff7b6 	bne	2004e2c <fail_test>
 2006f50:	e10f5000 	mrs	r5, CPSR
 2006f54:	e3150302 	tst	r5, #134217728	; 0x8000000
 2006f58:	0afff7b3 	beq	2004e2c <fail_test>
 2006f5c:	e128f004 	msr	CPSR_f, r4
 2006f60:	e3a0000b 	mov	r0, #11
 2006f64:	e3a02102 	mov	r2, #-2147483648	; 0x80000000
 2006f68:	e3e03103 	mvn	r3, #-1073741824	; 0xc0000000
 2006f6c:	e1431052 	qdadd	r1, r2, r3
 2006f70:	e3710002 	cmn	r1, #2
 2006f74:	1afff7ac 	bne	2004e2c <fail_test>
 2006f78:	e10f5000 	mrs	r5, CPSR
 2006f7c:	e3150302 	tst	r5, #134217728	; 0x8000000
 2006f80:	1afff7a9 	bne	2004e2c <fail_test>
 2006f84:	e3a0000c 	mov	r0, #12
 2006f88:	e3a02102 	mov	r2, #-2147483648	; 0x80000000
 2006f8c:	e3a03101 	mov	r3, #1073741824	; 0x40000000
 2006f90:	e1431052 	qdadd	r1, r2, r3
 2006f94:	e3710001 	cmn	r1, #1
 2006f98:	1afff7a3 	bne	2004e2c <fail_test>
 2006f9c:	e10f5000 	mrs	r5, CPSR
 2006fa0:	e3150302 	tst	r5, #134217728	; 0x8000000
 2006fa4:	0afff7a0 	beq	2004e2c <fail_test>
 2006fa8:	e128f004 	msr	CPSR_f, r4
 2006fac:	e3a0000d 	mov	r0, #13
 2006fb0:	e3e02102 	mvn	r2, #-2147483648	; 0x80000000
 2006fb4:	e3a03107 	mov	r3, #-1073741823	; 0xc0000001
 2006fb8:	e1431052 	qdadd	r1, r2, r3
 2006fbc:	e3510001 	cmp	r1, #1
 2006fc0:	1afff799 	bne	2004e2c <fail_test>
 2006fc4:	e10f5000 	mrs	r5, CPSR
 2006fc8:	e3150302 	tst	r5, #134217728	; 0x8000000
 2006fcc:	1afff796 	bne	2004e2c <fail_test>
 2006fd0:	e3a0000e 	mov	r0, #14
 2006fd4:	e3e02102 	mvn	r2, #-2147483648	; 0x80000000
 2006fd8:	e3a03103 	mov	r3, #-1073741824	; 0xc0000000
 2006fdc:	e1431052 	qdadd	r1, r2, r3
 2006fe0:	e3710001 	cmn	r1, #1
 2006fe4:	1afff790 	bne	2004e2c <fail_test>
 2006fe8:	e10f5000 	mrs	r5, CPSR
 2006fec:	e3150302 	tst	r5, #134217728	; 0x8000000
 2006ff0:	1afff78d 	bne	2004e2c <fail_test>
 2006ff4:	e3a0000f 	mov	r0, #15
 2006ff8:	e3e02102 	mvn	r2, #-2147483648	; 0x80000000
 2006ffc:	e3e03101 	mvn	r3, #1073741824	; 0x40000000
 2007000:	e1431052 	qdadd	r1, r2, r3
 2007004:	e3710001 	cmn	r1, #1
 2007008:	1afff787 	bne	2004e2c <fail_test>
 200700c:	e10f5000 	mrs	r5, CPSR
 2007010:	e3150302 	tst	r5, #134217728	; 0x8000000
 2007014:	0afff784 	beq	2004e2c <fail_test>
 2007018:	e128f004 	msr	CPSR_f, r4
 200701c:	e3a00010 	mov	r0, #16
 2007020:	e3a0206a 	mov	r2, #106	; 0x6a
 2007024:	e3a03008 	mov	r3, #8
 2007028:	e1631052 	qdsub	r1, r2, r3
 200702c:	e351005a 	cmp	r1, #90	; 0x5a
 2007030:	1afff77d 	bne	2004e2c <fail_test>
 2007034:	e10f5000 	mrs	r5, CPSR
 2007038:	e3150302 	tst	r5, #134217728	; 0x8000000
 200703c:	1afff77a 	bne	2004e2c <fail_test>
 2007040:	e3a00011 	mov	r0, #17
 2007044:	e3a02090 	mov	r2, #144	; 0x90
 2007048:	e3e0300b 	mvn	r3, #11
 200704c:	e1631052 	qdsub	r1, r2, r3
 2007050:	e35100a8 	cmp	r1, #168	; 0xa8
 2007054:	1afff774 	bne	2004e2c <fail_test>
 2007058:	e10f5000 	mrs	r5, CPSR
 200705c:	e3150302 	tst	r5, #134217728	; 0x8000000
 2007060:	1afff771 	bne	2004e2c <fail_test>
 2007064:	e3a00012 	mov	r0, #18
 2007068:	e3a02007 	mov	r2, #7
 200706c:	e3a0303a 	mov	r3, #58	; 0x3a
 2007070:	e1631052 	qdsub	r1, r2, r3
 2007074:	e371006d 	cmn	r1, #109	; 0x6d
 2007078:	1afff76b 	bne	2004e2c <fail_test>
 200707c:	e10f5000 	mrs	r5, CPSR
 2007080:	e3150302 	tst	r5, #134217728	; 0x8000000
 2007084:	1afff768 	bne	2004e2c <fail_test>
 2007088:	e3a00013 	mov	r0, #19
 200708c:	e3e02011 	mvn	r2, #17
 2007090:	e3e0300b 	mvn	r3, #11
 2007094:	e1631052 	qdsub	r1, r2, r3
 2007098:	e3510006 	cmp	r1, #6
 200709c:	1afff762 	bne	2004e2c <fail_test>
 20070a0:	e10f5000 	mrs	r5, CPSR
 20070a4:	e3150302 	tst	r5, #134217728	; 0x8000000
 20070a8:	1afff75f 	bne	2004e2c <fail_test>
 20070ac:	e3a00014 	mov	r0, #20
 20070b0:	e3e0211e 	mvn	r2, #-2147483641	; 0x80000007
 20070b4:	e3e03002 	mvn	r3, #2
 20070b8:	e1631052 	qdsub	r1, r2, r3
 20070bc:	e3e05106 	mvn	r5, #-2147483647	; 0x80000001
 20070c0:	e1510005 	cmp	r1, r5
 20070c4:	1afff758 	bne	2004e2c <fail_test>
 20070c8:	e10f5000 	mrs	r5, CPSR
 20070cc:	e3150302 	tst	r5, #134217728	; 0x8000000
 20070d0:	1afff755 	bne	2004e2c <fail_test>
 20070d4:	e3a00015 	mov	r0, #21
 20070d8:	e3e0211e 	mvn	r2, #-2147483641	; 0x80000007
 20070dc:	e3e03003 	mvn	r3, #3
 20070e0:	e1631052 	qdsub	r1, r2, r3
 20070e4:	e3710106 	cmn	r1, #-2147483647	; 0x80000001
 20070e8:	1afff74f 	bne	2004e2c <fail_test>
 20070ec:	e10f5000 	mrs	r5, CPSR
 20070f0:	e3150302 	tst	r5, #134217728	; 0x8000000
 20070f4:	0afff74c 	beq	2004e2c <fail_test>
 20070f8:	e128f004 	msr	CPSR_f, r4
 20070fc:	e3a00016 	mov	r0, #22
 2007100:	e3e0211a 	mvn	r2, #-2147483642	; 0x80000006
 2007104:	e3e03002 	mvn	r3, #2
 2007108:	e1631052 	qdsub	r1, r2, r3
 200710c:	e3710106 	cmn	r1, #-2147483647	; 0x80000001
 2007110:	1afff745 	bne	2004e2c <fail_test>
 2007114:	e10f5000 	mrs	r5, CPSR
 2007118:	e3150302 	tst	r5, #134217728	; 0x8000000
 200711c:	1afff742 	bne	2004e2c <fail_test>
 2007120:	e3a00017 	mov	r0, #23
 2007124:	e3a02116 	mov	r2, #-2147483643	; 0x80000005
 2007128:	e3a03002 	mov	r3, #2
 200712c:	e1631052 	qdsub	r1, r2, r3
 2007130:	e3510106 	cmp	r1, #-2147483647	; 0x80000001
 2007134:	1afff73c 	bne	2004e2c <fail_test>
 2007138:	e10f5000 	mrs	r5, CPSR
 200713c:	e3150302 	tst	r5, #134217728	; 0x8000000
 2007140:	1afff739 	bne	2004e2c <fail_test>
 2007144:	e3a00018 	mov	r0, #24
 2007148:	e3a02116 	mov	r2, #-2147483643	; 0x80000005
 200714c:	e3a03003 	mov	r3, #3
 2007150:	e1631052 	qdsub	r1, r2, r3
 2007154:	e3510102 	cmp	r1, #-2147483648	; 0x80000000
 2007158:	1afff733 	bne	2004e2c <fail_test>
 200715c:	e10f5000 	mrs	r5, CPSR
 2007160:	e3150302 	tst	r5, #134217728	; 0x8000000
 2007164:	0afff730 	beq	2004e2c <fail_test>
 2007168:	e128f004 	msr	CPSR_f, r4
 200716c:	e3a00019 	mov	r0, #25
 2007170:	e3a02112 	mov	r2, #-2147483644	; 0x80000004
 2007174:	e3a03002 	mov	r3, #2
 2007178:	e1631052 	qdsub	r1, r2, r3
 200717c:	e3510102 	cmp	r1, #-2147483648	; 0x80000000
 2007180:	1afff729 	bne	2004e2c <fail_test>
 2007184:	e10f5000 	mrs	r5, CPSR
 2007188:	e3150302 	tst	r5, #134217728	; 0x8000000
 200718c:	1afff726 	bne	2004e2c <fail_test>
 2007190:	e3a0001a 	mov	r0, #26
 2007194:	e3e02102 	mvn	r2, #-2147483648	; 0x80000000
 2007198:	e3e03106 	mvn	r3, #-2147483647	; 0x80000001
 200719c:	e1631052 	qdsub	r1, r2, r3
 20071a0:	e3510000 	cmp	r1, #0
 20071a4:	1afff720 	bne	2004e2c <fail_test>
 20071a8:	e10f5000 	mrs	r5, CPSR
 20071ac:	e3150302 	tst	r5, #134217728	; 0x8000000
 20071b0:	0afff71d 	beq	2004e2c <fail_test>
 20071b4:	e128f004 	msr	CPSR_f, r4
 20071b8:	e3a0001b 	mov	r0, #27
 20071bc:	e3e02102 	mvn	r2, #-2147483648	; 0x80000000
 20071c0:	e3e03103 	mvn	r3, #-1073741824	; 0xc0000000
 20071c4:	e1631052 	qdsub	r1, r2, r3
 20071c8:	e3510001 	cmp	r1, #1
 20071cc:	1afff716 	bne	2004e2c <fail_test>
 20071d0:	e10f5000 	mrs	r5, CPSR
 20071d4:	e3150302 	tst	r5, #134217728	; 0x8000000
 20071d8:	1afff713 	bne	2004e2c <fail_test>
 20071dc:	e3a0001c 	mov	r0, #28
 20071e0:	e3e02102 	mvn	r2, #-2147483648	; 0x80000000
 20071e4:	e3a03101 	mov	r3, #1073741824	; 0x40000000
 20071e8:	e1631052 	qdsub	r1, r2, r3
 20071ec:	e3510000 	cmp	r1, #0
 20071f0:	1afff70d 	bne	2004e2c <fail_test>
 20071f4:	e10f5000 	mrs	r5, CPSR
 20071f8:	e3150302 	tst	r5, #134217728	; 0x8000000
 20071fc:	0afff70a 	beq	2004e2c <fail_test>
 2007200:	e128f004 	msr	CPSR_f, r4
 2007204:	e3a0001d 	mov	r0, #29
 2007208:	e3a02102 	mov	r2, #-2147483648	; 0x80000000
 200720c:	e3a03107 	mov	r3, #-1073741823	; 0xc0000001
 2007210:	e1631052 	qdsub	r1, r2, r3
 2007214:	e3710002 	cmn	r1, #2
 2007218:	1afff703 	bne	2004e2c <fail_test>
 200721c:	e10f5000 	mrs	r5, CPSR
 2007220:	e3150302 	tst	r5, #134217728	; 0x8000000
 2007224:	1afff700 	bne	2004e2c <fail_test>
 2007228:	e3a0001e 	mov	r0, #30
 200722c:	e3a02102 	mov	r2, #-2147483648	; 0x80000000
 2007230:	e3a03103 	mov	r3, #-1073741824	; 0xc0000000
 2007234:	e1631052 	qdsub	r1, r2, r3
 2007238:	e3510000 	cmp	r1, #0
 200723c:	1afff6fa 	bne	2004e2c <fail_test>
 2007240:	e10f5000 	mrs	r5, CPSR
 2007244:	e3150302 	tst	r5, #134217728	; 0x8000000
 2007248:	1afff6f7 	bne	2004e2c <fail_test>
 200724c:	e3a0001f 	mov	r0, #31
 2007250:	e3a02102 	mov	r2, #-2147483648	; 0x80000000
 2007254:	e3e03101 	mvn	r3, #1073741824	; 0x40000000
 2007258:	e1631052 	qdsub	r1, r2, r3
 200725c:	e3510000 	cmp	r1, #0
 2007260:	1afff6f1 	bne	2004e2c <fail_test>
 2007264:	e10f5000 	mrs	r5, CPSR
 2007268:	e3150302 	tst	r5, #134217728	; 0x8000000
 200726c:	0afff6ee 	beq	2004e2c <fail_test>
 2007270:	e128f004 	msr	CPSR_f, r4
 2007274:	e8bd0030 	pop	{r4, r5}
 2007278:	e12fff1e 	bx	r14

0200727c <run_tests_armv5_SMLAxy>:
 200727c:	e92d0030 	push	{r4, r5}
 2007280:	e3a04000 	mov	r4, #0
 2007284:	e128f004 	msr	CPSR_f, r4
 2007288:	e3a00000 	mov	r0, #0
 200728c:	e3a02007 	mov	r2, #7
 2007290:	e3a0300a 	mov	r3, #10
 2007294:	e3a05002 	mov	r5, #2
 2007298:	e1015382 	smlabb	r1, r2, r3, r5
 200729c:	e3510048 	cmp	r1, #72	; 0x48
 20072a0:	1afff6e1 	bne	2004e2c <fail_test>
 20072a4:	e10f5000 	mrs	r5, CPSR
 20072a8:	e3150302 	tst	r5, #134217728	; 0x8000000
 20072ac:	1afff6de 	bne	2004e2c <fail_test>
 20072b0:	e3a00001 	mov	r0, #1
 20072b4:	e3e02002 	mvn	r2, #2
 20072b8:	e3a0300b 	mov	r3, #11
 20072bc:	e3a05064 	mov	r5, #100	; 0x64
 20072c0:	e1015382 	smlabb	r1, r2, r3, r5
 20072c4:	e3510043 	cmp	r1, #67	; 0x43
 20072c8:	1afff6d7 	bne	2004e2c <fail_test>
 20072cc:	e10f5000 	mrs	r5, CPSR
 20072d0:	e3150302 	tst	r5, #134217728	; 0x8000000
 20072d4:	1afff6d4 	bne	2004e2c <fail_test>
 20072d8:	e3a00002 	mov	r0, #2
 20072dc:	e3a02901 	mov	r2, #16384	; 0x4000
 20072e0:	e3a03002 	mov	r3, #2
 20072e4:	e3a05000 	mov	r5, #0
 20072e8:	e1015382 	smlabb	r1, r2, r3, r5
 20072ec:	e3510902 	cmp	r1, #32768	; 0x8000
 20072f0:	1afff6cd 	bne	2004e2c <fail_test>
 20072f4:	e10f5000 	mrs	r5, CPSR
 20072f8:	e3150302 	tst	r5, #134217728	; 0x8000000
 20072fc:	1afff6ca 	bne	2004e2c <fail_test>
 2007300:	e3a00003 	mov	r0, #3
 2007304:	e3a02801 	mov	r2, #65536	; 0x10000
 2007308:	e2422001 	sub	r2, r2, #1
 200730c:	e1a03002 	mov	r3, r2
 2007310:	e3a05000 	mov	r5, #0
 2007314:	e1015382 	smlabb	r1, r2, r3, r5
 2007318:	e3510001 	cmp	r1, #1
 200731c:	1afff6c2 	bne	2004e2c <fail_test>
 2007320:	e10f5000 	mrs	r5, CPSR
 2007324:	e3150302 	tst	r5, #134217728	; 0x8000000
 2007328:	1afff6bf 	bne	2004e2c <fail_test>
 200732c:	e3a00004 	mov	r0, #4
 2007330:	e3a02001 	mov	r2, #1
 2007334:	e3a03001 	mov	r3, #1
 2007338:	e3e05102 	mvn	r5, #-2147483648	; 0x80000000
 200733c:	e1015382 	smlabb	r1, r2, r3, r5
 2007340:	e3510102 	cmp	r1, #-2147483648	; 0x80000000
 2007344:	1afff6b8 	bne	2004e2c <fail_test>
 2007348:	e10f5000 	mrs	r5, CPSR
 200734c:	e3150302 	tst	r5, #134217728	; 0x8000000
 2007350:	0afff6b5 	beq	2004e2c <fail_test>
 2007354:	e128f004 	msr	CPSR_f, r4
 2007358:	e3a00005 	mov	r0, #5
 200735c:	e3a02007 	mov	r2, #7
 2007360:	e3a03701 	mov	r3, #262144	; 0x40000
 2007364:	e3e0501b 	mvn	r5, #27
 2007368:	e10153c2 	smlabt	r1, r2, r3, r5
 200736c:	e3510000 	cmp	r1, #0
 2007370:	1afff6ad 	bne	2004e2c <fail_test>
 2007374:	e10f5000 	mrs	r5, CPSR
 2007378:	e3150302 	tst	r5, #134217728	; 0x8000000
 200737c:	1afff6aa 	bne	2004e2c <fail_test>
 2007380:	e3a00006 	mov	r0, #6
 2007384:	e59f2908 	ldr	r2, [pc, #2312]	; 2007c94 <fail_test_ldm_stm+0xc>
 2007388:	e3a03039 	mov	r3, #57	; 0x39
 200738c:	e3e05000 	mvn	r5, #0
 2007390:	e10153a2 	smlatb	r1, r2, r3, r5
 2007394:	e37100e5 	cmn	r1, #229	; 0xe5
 2007398:	1afff6a3 	bne	2004e2c <fail_test>
 200739c:	e10f5000 	mrs	r5, CPSR
 20073a0:	e3150302 	tst	r5, #134217728	; 0x8000000
 20073a4:	1afff6a0 	bne	2004e2c <fail_test>
 20073a8:	e3a00007 	mov	r0, #7
 20073ac:	e3a02102 	mov	r2, #-2147483648	; 0x80000000
 20073b0:	e3e03102 	mvn	r3, #-2147483648	; 0x80000000
 20073b4:	e3a05000 	mov	r5, #0
 20073b8:	e10153e2 	smlatt	r1, r2, r3, r5
 20073bc:	e2411103 	sub	r1, r1, #-1073741824	; 0xc0000000
 20073c0:	e3510902 	cmp	r1, #32768	; 0x8000
 20073c4:	1afff698 	bne	2004e2c <fail_test>
 20073c8:	e10f5000 	mrs	r5, CPSR
 20073cc:	e3150302 	tst	r5, #134217728	; 0x8000000
 20073d0:	1afff695 	bne	2004e2c <fail_test>
 20073d4:	e3a00008 	mov	r0, #8
 20073d8:	e3a02102 	mov	r2, #-2147483648	; 0x80000000
 20073dc:	e3e03102 	mvn	r3, #-2147483648	; 0x80000000
 20073e0:	e3a05102 	mov	r5, #-2147483648	; 0x80000000
 20073e4:	e10153e2 	smlatt	r1, r2, r3, r5
 20073e8:	e2411101 	sub	r1, r1, #1073741824	; 0x40000000
 20073ec:	e3510902 	cmp	r1, #32768	; 0x8000
 20073f0:	1afff68d 	bne	2004e2c <fail_test>
 20073f4:	e10f5000 	mrs	r5, CPSR
 20073f8:	e3150302 	tst	r5, #134217728	; 0x8000000
 20073fc:	0afff68a 	beq	2004e2c <fail_test>
 2007400:	e128f004 	msr	CPSR_f, r4
 2007404:	e3a00009 	mov	r0, #9
 2007408:	e3a01064 	mov	r1, #100	; 0x64
 200740c:	e3a02007 	mov	r2, #7
 2007410:	e3e03002 	mvn	r3, #2
 2007414:	e1011382 	smlabb	r1, r2, r3, r1
 2007418:	e351004f 	cmp	r1, #79	; 0x4f
 200741c:	1afff682 	bne	2004e2c <fail_test>
 2007420:	e8bd0030 	pop	{r4, r5}
 2007424:	e12fff1e 	bx	r14

02007428 <run_tests_armv5_SMULxy>:
 2007428:	e3a00000 	mov	r0, #0
 200742c:	e128f000 	msr	CPSR_f, r0
 2007430:	e3a00000 	mov	r0, #0
 2007434:	e3a0200e 	mov	r2, #14
 2007438:	e3a03005 	mov	r3, #5
 200743c:	e1610382 	smulbb	r1, r2, r3
 2007440:	e3510046 	cmp	r1, #70	; 0x46
 2007444:	1afff678 	bne	2004e2c <fail_test>
 2007448:	e3a00001 	mov	r0, #1
 200744c:	e3e02005 	mvn	r2, #5
 2007450:	e3a03068 	mov	r3, #104	; 0x68
 2007454:	e1610382 	smulbb	r1, r2, r3
 2007458:	e3710e27 	cmn	r1, #624	; 0x270
 200745c:	1afff672 	bne	2004e2c <fail_test>
 2007460:	e3a00002 	mov	r0, #2
 2007464:	e3e0200f 	mvn	r2, #15
 2007468:	e3a03058 	mov	r3, #88	; 0x58
 200746c:	e16103a2 	smultb	r1, r2, r3
 2007470:	e3710058 	cmn	r1, #88	; 0x58
 2007474:	1afff66c 	bne	2004e2c <fail_test>
 2007478:	e3a00003 	mov	r0, #3
 200747c:	e3e0200d 	mvn	r2, #13
 2007480:	e3a03805 	mov	r3, #327680	; 0x50000
 2007484:	e2833e83 	add	r3, r3, #2096	; 0x830
 2007488:	e16103c2 	smulbt	r1, r2, r3
 200748c:	e3710046 	cmn	r1, #70	; 0x46
 2007490:	1afff665 	bne	2004e2c <fail_test>
 2007494:	e3a00004 	mov	r0, #4
 2007498:	e10f3000 	mrs	r3, CPSR
 200749c:	e3130302 	tst	r3, #134217728	; 0x8000000
 20074a0:	1afff661 	bne	2004e2c <fail_test>
 20074a4:	e12fff1e 	bx	r14

020074a8 <run_tests_armv5_SMLAWy>:
 20074a8:	e92d00b0 	push	{r4, r5, r7}
 20074ac:	e3a04000 	mov	r4, #0
 20074b0:	e128f004 	msr	CPSR_f, r4
 20074b4:	e3a00000 	mov	r0, #0
 20074b8:	e3a0202f 	mov	r2, #47	; 0x2f
 20074bc:	e3a03005 	mov	r3, #5
 20074c0:	e3e05002 	mvn	r5, #2
 20074c4:	e1215382 	smlawb	r1, r2, r3, r5
 20074c8:	e3710003 	cmn	r1, #3
 20074cc:	1afff656 	bne	2004e2c <fail_test>
 20074d0:	e10f5000 	mrs	r5, CPSR
 20074d4:	e3150302 	tst	r5, #134217728	; 0x8000000
 20074d8:	1afff653 	bne	2004e2c <fail_test>
 20074dc:	e3a00001 	mov	r0, #1
 20074e0:	e3a02809 	mov	r2, #589824	; 0x90000
 20074e4:	e3e03006 	mvn	r3, #6
 20074e8:	e3a05002 	mov	r5, #2
 20074ec:	e1215382 	smlawb	r1, r2, r3, r5
 20074f0:	e371003d 	cmn	r1, #61	; 0x3d
 20074f4:	1afff64c 	bne	2004e2c <fail_test>
 20074f8:	e10f5000 	mrs	r5, CPSR
 20074fc:	e3150302 	tst	r5, #134217728	; 0x8000000
 2007500:	1afff649 	bne	2004e2c <fail_test>
 2007504:	e3a00002 	mov	r0, #2
 2007508:	e3a02b01 	mov	r2, #1024	; 0x400
 200750c:	e3a03c05 	mov	r3, #1280	; 0x500
 2007510:	e3e05000 	mvn	r5, #0
 2007514:	e1215382 	smlawb	r1, r2, r3, r5
 2007518:	e3510013 	cmp	r1, #19
 200751c:	1afff642 	bne	2004e2c <fail_test>
 2007520:	e10f5000 	mrs	r5, CPSR
 2007524:	e3150302 	tst	r5, #134217728	; 0x8000000
 2007528:	1afff63f 	bne	2004e2c <fail_test>
 200752c:	e3a00003 	mov	r0, #3
 2007530:	e3a02004 	mov	r2, #4
 2007534:	e3a03901 	mov	r3, #16384	; 0x4000
 2007538:	e3e05102 	mvn	r5, #-2147483648	; 0x80000000
 200753c:	e1215382 	smlawb	r1, r2, r3, r5
 2007540:	e3510102 	cmp	r1, #-2147483648	; 0x80000000
 2007544:	1afff638 	bne	2004e2c <fail_test>
 2007548:	e10f5000 	mrs	r5, CPSR
 200754c:	e3150302 	tst	r5, #134217728	; 0x8000000
 2007550:	0afff635 	beq	2004e2c <fail_test>
 2007554:	e128f004 	msr	CPSR_f, r4
 2007558:	e3a00004 	mov	r0, #4
 200755c:	e3a02705 	mov	r2, #1310720	; 0x140000
 2007560:	e3e03801 	mvn	r3, #65536	; 0x10000
 2007564:	e2433e23 	sub	r3, r3, #560	; 0x230
 2007568:	e3e05004 	mvn	r5, #4
 200756c:	e12153c2 	smlawt	r1, r2, r3, r5
 2007570:	e371002d 	cmn	r1, #45	; 0x2d
 2007574:	1afff62c 	bne	2004e2c <fail_test>
 2007578:	e10f5000 	mrs	r5, CPSR
 200757c:	e3150302 	tst	r5, #134217728	; 0x8000000
 2007580:	1afff629 	bne	2004e2c <fail_test>
 2007584:	e3a00005 	mov	r0, #5
 2007588:	e3a02e4d 	mov	r2, #1232	; 0x4d0
 200758c:	e3a03cc3 	mov	r3, #49920	; 0xc300
 2007590:	e3a05000 	mov	r5, #0
 2007594:	e1215382 	smlawb	r1, r2, r3, r5
 2007598:	e59f76f8 	ldr	r7, [pc, #1784]	; 2007c98 <fail_test_ldm_stm+0x10>
 200759c:	e1510007 	cmp	r1, r7
 20075a0:	1afff621 	bne	2004e2c <fail_test>
 20075a4:	e10f5000 	mrs	r5, CPSR
 20075a8:	e3150302 	tst	r5, #134217728	; 0x8000000
 20075ac:	1afff61e 	bne	2004e2c <fail_test>
 20075b0:	e3a00006 	mov	r0, #6
 20075b4:	e3a02004 	mov	r2, #4
 20075b8:	e3a03101 	mov	r3, #1073741824	; 0x40000000
 20075bc:	e3e05102 	mvn	r5, #-2147483648	; 0x80000000
 20075c0:	e12153c2 	smlawt	r1, r2, r3, r5
 20075c4:	e3510102 	cmp	r1, #-2147483648	; 0x80000000
 20075c8:	1afff617 	bne	2004e2c <fail_test>
 20075cc:	e10f5000 	mrs	r5, CPSR
 20075d0:	e3150302 	tst	r5, #134217728	; 0x8000000
 20075d4:	0afff614 	beq	2004e2c <fail_test>
 20075d8:	e128f004 	msr	CPSR_f, r4
 20075dc:	e3a00007 	mov	r0, #7
 20075e0:	e3a01064 	mov	r1, #100	; 0x64
 20075e4:	e3a02807 	mov	r2, #458752	; 0x70000
 20075e8:	e3e03002 	mvn	r3, #2
 20075ec:	e1211382 	smlawb	r1, r2, r3, r1
 20075f0:	e351004f 	cmp	r1, #79	; 0x4f
 20075f4:	1afff60c 	bne	2004e2c <fail_test>
 20075f8:	e8bd00b0 	pop	{r4, r5, r7}
 20075fc:	e12fff1e 	bx	r14

02007600 <run_tests_armv5_SMULWy>:
 2007600:	e52d7004 	push	{r7}		; (str r7, [r13, #-4]!)
 2007604:	e3a00000 	mov	r0, #0
 2007608:	e128f000 	msr	CPSR_f, r0
 200760c:	e3a00000 	mov	r0, #0
 2007610:	e3a0200f 	mov	r2, #15
 2007614:	e3a0302c 	mov	r3, #44	; 0x2c
 2007618:	e12103a2 	smulwb	r1, r2, r3
 200761c:	e3510000 	cmp	r1, #0
 2007620:	1afff601 	bne	2004e2c <fail_test>
 2007624:	e3a00001 	mov	r0, #1
 2007628:	e12103e2 	smulwt	r1, r2, r3
 200762c:	e3510000 	cmp	r1, #0
 2007630:	1afff5fd 	bne	2004e2c <fail_test>
 2007634:	e3a00002 	mov	r0, #2
 2007638:	e3a020bc 	mov	r2, #188	; 0xbc
 200763c:	e3a03c77 	mov	r3, #30464	; 0x7700
 2007640:	e12103a2 	smulwb	r1, r2, r3
 2007644:	e3510057 	cmp	r1, #87	; 0x57
 2007648:	1afff5f7 	bne	2004e2c <fail_test>
 200764c:	e3a00003 	mov	r0, #3
 2007650:	e3e020bb 	mvn	r2, #187	; 0xbb
 2007654:	e12103a2 	smulwb	r1, r2, r3
 2007658:	e3710058 	cmn	r1, #88	; 0x58
 200765c:	1afff5f2 	bne	2004e2c <fail_test>
 2007660:	e3a00004 	mov	r0, #4
 2007664:	e3e020f0 	mvn	r2, #240	; 0xf0
 2007668:	e3e03044 	mvn	r3, #68	; 0x44
 200766c:	e1a02582 	lsl	r2, r2, #11
 2007670:	e12103a2 	smulwb	r1, r2, r3
 2007674:	e59f7620 	ldr	r7, [pc, #1568]	; 2007c9c <fail_test_ldm_stm+0x14>
 2007678:	e1510007 	cmp	r1, r7
 200767c:	1afff5ea 	bne	2004e2c <fail_test>
 2007680:	e3a00005 	mov	r0, #5
 2007684:	e3a02a51 	mov	r2, #331776	; 0x51000
 2007688:	e282209a 	add	r2, r2, #154	; 0x9a
 200768c:	e3a03301 	mov	r3, #67108864	; 0x4000000
 2007690:	e12103e2 	smulwt	r1, r2, r3
 2007694:	e59f7604 	ldr	r7, [pc, #1540]	; 2007ca0 <fail_test_ldm_stm+0x18>
 2007698:	e1510007 	cmp	r1, r7
 200769c:	1afff5e2 	bne	2004e2c <fail_test>
 20076a0:	e3a00006 	mov	r0, #6
 20076a4:	e10f7000 	mrs	r7, CPSR
 20076a8:	e3170302 	tst	r7, #134217728	; 0x8000000
 20076ac:	1afff5de 	bne	2004e2c <fail_test>
 20076b0:	e49d7004 	pop	{r7}		; (ldr r7, [r13], #4)
 20076b4:	e12fff1e 	bx	r14

020076b8 <run_tests_armv5_SMLALxy>:
 20076b8:	e92d0090 	push	{r4, r7}
 20076bc:	e3a00000 	mov	r0, #0
 20076c0:	e3a01000 	mov	r1, #0
 20076c4:	e3a02000 	mov	r2, #0
 20076c8:	e3a03007 	mov	r3, #7
 20076cc:	e3a04012 	mov	r4, #18
 20076d0:	e1421483 	smlalbb	r1, r2, r3, r4
 20076d4:	e351007e 	cmp	r1, #126	; 0x7e
 20076d8:	1afff5d3 	bne	2004e2c <fail_test>
 20076dc:	e3520000 	cmp	r2, #0
 20076e0:	1afff5d1 	bne	2004e2c <fail_test>
 20076e4:	e3a00001 	mov	r0, #1
 20076e8:	e3a01000 	mov	r1, #0
 20076ec:	e3e03006 	mvn	r3, #6
 20076f0:	e1421483 	smlalbb	r1, r2, r3, r4
 20076f4:	e371007e 	cmn	r1, #126	; 0x7e
 20076f8:	1afff5cb 	bne	2004e2c <fail_test>
 20076fc:	e3720001 	cmn	r2, #1
 2007700:	1afff5c9 	bne	2004e2c <fail_test>
 2007704:	e3a00002 	mov	r0, #2
 2007708:	e59f1594 	ldr	r1, [pc, #1428]	; 2007ca4 <fail_test_ldm_stm+0x1c>
 200770c:	e1a02001 	mov	r2, r1
 2007710:	e3a03c47 	mov	r3, #18176	; 0x4700
 2007714:	e3a04e6d 	mov	r4, #1744	; 0x6d0
 2007718:	e1421483 	smlalbb	r1, r2, r3, r4
 200771c:	e59f7584 	ldr	r7, [pc, #1412]	; 2007ca8 <fail_test_ldm_stm+0x20>
 2007720:	e1510007 	cmp	r1, r7
 2007724:	1afff5c0 	bne	2004e2c <fail_test>
 2007728:	e59f7574 	ldr	r7, [pc, #1396]	; 2007ca4 <fail_test_ldm_stm+0x1c>
 200772c:	e1520007 	cmp	r2, r7
 2007730:	1afff5bd 	bne	2004e2c <fail_test>
 2007734:	e3a00003 	mov	r0, #3
 2007738:	e3a01000 	mov	r1, #0
 200773c:	e3a02001 	mov	r2, #1
 2007740:	e3e03000 	mvn	r3, #0
 2007744:	e2433ec1 	sub	r3, r3, #3088	; 0xc10
 2007748:	e3a04007 	mov	r4, #7
 200774c:	e14214a3 	smlaltb	r1, r2, r3, r4
 2007750:	e3710007 	cmn	r1, #7
 2007754:	1afff5b4 	bne	2004e2c <fail_test>
 2007758:	e3520000 	cmp	r2, #0
 200775c:	1afff5b2 	bne	2004e2c <fail_test>
 2007760:	e3a00004 	mov	r0, #4
 2007764:	e3a01efa 	mov	r1, #4000	; 0xfa0
 2007768:	e3a02008 	mov	r2, #8
 200776c:	e3e03006 	mvn	r3, #6
 2007770:	e3a04815 	mov	r4, #1376256	; 0x150000
 2007774:	e14214c3 	smlalbt	r1, r2, r3, r4
 2007778:	e59f752c 	ldr	r7, [pc, #1324]	; 2007cac <fail_test_ldm_stm+0x24>
 200777c:	e1510007 	cmp	r1, r7
 2007780:	1afff5a9 	bne	2004e2c <fail_test>
 2007784:	e3520008 	cmp	r2, #8
 2007788:	1afff5a7 	bne	2004e2c <fail_test>
 200778c:	e3a00005 	mov	r0, #5
 2007790:	e10f4000 	mrs	r4, CPSR
 2007794:	e3140302 	tst	r4, #134217728	; 0x8000000
 2007798:	1afff5a3 	bne	2004e2c <fail_test>
 200779c:	e8bd0090 	pop	{r4, r7}
 20077a0:	e12fff1e 	bx	r14

020077a4 <run_tests_armv5_blx>:
 20077a4:	e92d40e0 	push	{r5, r6, r7, r14}
 20077a8:	e59f3500 	ldr	r3, [pc, #1280]	; 2007cb0 <fail_test_ldm_stm+0x28>
 20077ac:	e59f5500 	ldr	r5, [pc, #1280]	; 2007cb4 <fail_test_ldm_stm+0x2c>
 20077b0:	e59f6500 	ldr	r6, [pc, #1280]	; 2007cb8 <fail_test_ldm_stm+0x30>
 20077b4:	e3a00000 	mov	r0, #0
 20077b8:	e3c51001 	bic	r1, r5, #1
 20077bc:	e1a0e00f 	mov	r14, r15
 20077c0:	e12fff11 	bx	r1
 20077c4:	e3570001 	cmp	r7, #1
 20077c8:	1afff597 	bne	2004e2c <fail_test>
 20077cc:	e3a00001 	mov	r0, #1
 20077d0:	e3851001 	orr	r1, r5, #1
 20077d4:	e1a0e00f 	mov	r14, r15
 20077d8:	e12fff11 	bx	r1
 20077dc:	e3570002 	cmp	r7, #2
 20077e0:	1afff591 	bne	2004e2c <fail_test>
 20077e4:	e3a00002 	mov	r0, #2
 20077e8:	e3c51001 	bic	r1, r5, #1
 20077ec:	e12fff31 	blx	r1
 20077f0:	e3570001 	cmp	r7, #1
 20077f4:	1afff58c 	bne	2004e2c <fail_test>
 20077f8:	e3a00003 	mov	r0, #3
 20077fc:	e3851001 	orr	r1, r5, #1
 2007800:	e12fff31 	blx	r1
 2007804:	e3570002 	cmp	r7, #2
 2007808:	1afff587 	bne	2004e2c <fail_test>
 200780c:	e3a00004 	mov	r0, #4
 2007810:	faffed2d 	blx	2002ccc <test_cpu_state>
 2007814:	e3570002 	cmp	r7, #2
 2007818:	1afff583 	bne	2004e2c <fail_test>
 200781c:	e28f1001 	add	r1, r15, #1
 2007820:	e12fff11 	bx	r1
 2007824:	2005      	movs	r0, #5
 2007826:	0869      	lsrs	r1, r5, #1
 2007828:	0049      	lsls	r1, r1, #1
 200782a:	4788      	blx	r1
 200782c:	2f01      	cmp	r7, #1
 200782e:	d000      	beq.n	2007832 <skip1>
 2007830:	4718      	bx	r3

02007832 <skip1>:
 2007832:	2006      	movs	r0, #6
 2007834:	2101      	movs	r1, #1
 2007836:	4329      	orrs	r1, r5
 2007838:	4788      	blx	r1
 200783a:	2f02      	cmp	r7, #2
 200783c:	d000      	beq.n	2007840 <skip2>
 200783e:	4718      	bx	r3

02007840 <skip2>:
 2007840:	2007      	movs	r0, #7
 2007842:	f7fb ea44 	blx	2002ccc <test_cpu_state>
 2007846:	2f01      	cmp	r7, #1
 2007848:	d000      	beq.n	200784c <skip3>
 200784a:	4718      	bx	r3

0200784c <skip3>:
 200784c:	4679      	mov	r1, r15
 200784e:	4708      	bx	r1
 2007850:	e8bd80e0 	pop	{r5, r6, r7, r15}

02007854 <run_tests_armv5_ldrpopr15>:
 2007854:	e92d40e0 	push	{r5, r6, r7, r14}
 2007858:	e59f3450 	ldr	r3, [pc, #1104]	; 2007cb0 <fail_test_ldm_stm+0x28>
 200785c:	e59f5450 	ldr	r5, [pc, #1104]	; 2007cb4 <fail_test_ldm_stm+0x2c>
 2007860:	e59f6450 	ldr	r6, [pc, #1104]	; 2007cb8 <fail_test_ldm_stm+0x30>
 2007864:	e58f50d8 	str	r5, [pc, #216]	; 2007944 <buffer>
 2007868:	e3852001 	orr	r2, r5, #1
 200786c:	e58f20d4 	str	r2, [pc, #212]	; 2007948 <buffer+0x4>
 2007870:	e3a00000 	mov	r0, #0
 2007874:	e1a0e00f 	mov	r14, r15
 2007878:	e59ff0c4 	ldr	r15, [pc, #196]	; 2007944 <buffer>
 200787c:	e3570001 	cmp	r7, #1
 2007880:	1afff569 	bne	2004e2c <fail_test>
 2007884:	e3a00001 	mov	r0, #1
 2007888:	e1a0e00f 	mov	r14, r15
 200788c:	e59ff0b4 	ldr	r15, [pc, #180]	; 2007948 <buffer+0x4>
 2007890:	e3570002 	cmp	r7, #2
 2007894:	1afff564 	bne	2004e2c <fail_test>
 2007898:	e3a00002 	mov	r0, #2
 200789c:	e92d0021 	push	{r0, r5}
 20078a0:	e1a0e00f 	mov	r14, r15
 20078a4:	e8bd8001 	pop	{r0, r15}
 20078a8:	e3570001 	cmp	r7, #1
 20078ac:	1afff55e 	bne	2004e2c <fail_test>
 20078b0:	e3a00003 	mov	r0, #3
 20078b4:	e92d0005 	push	{r0, r2}
 20078b8:	e1a0e00f 	mov	r14, r15
 20078bc:	e8bd8001 	pop	{r0, r15}
 20078c0:	e3570002 	cmp	r7, #2
 20078c4:	1afff558 	bne	2004e2c <fail_test>
 20078c8:	e3a00004 	mov	r0, #4
 20078cc:	e1a0e00f 	mov	r14, r15
 20078d0:	e1a0f005 	mov	r15, r5
 20078d4:	e3570001 	cmp	r7, #1
 20078d8:	1afff553 	bne	2004e2c <fail_test>
 20078dc:	e3a00005 	mov	r0, #5
 20078e0:	e1a0e00f 	mov	r14, r15
 20078e4:	e1a0f002 	mov	r15, r2
 20078e8:	e3570001 	cmp	r7, #1
 20078ec:	1afff54e 	bne	2004e2c <fail_test>
 20078f0:	e28f1001 	add	r1, r15, #1
 20078f4:	e12fff11 	bx	r1
 20078f8:	2006      	movs	r0, #6
 20078fa:	b420      	push	{r5}
 20078fc:	4679      	mov	r1, r15
 20078fe:	3105      	adds	r1, #5
 2007900:	468e      	mov	r14, r1
 2007902:	bd00      	pop	{r15}
 2007904:	2f01      	cmp	r7, #1
 2007906:	d000      	beq.n	200790a <skip4>
 2007908:	4718      	bx	r3

0200790a <skip4>:
 200790a:	2007      	movs	r0, #7
 200790c:	b404      	push	{r2}
 200790e:	4679      	mov	r1, r15
 2007910:	3105      	adds	r1, #5
 2007912:	468e      	mov	r14, r1
 2007914:	bd00      	pop	{r15}
 2007916:	2f02      	cmp	r7, #2
 2007918:	d000      	beq.n	200791c <skip5>
 200791a:	4718      	bx	r3

0200791c <skip5>:
 200791c:	2008      	movs	r0, #8
 200791e:	4679      	mov	r1, r15
 2007920:	3105      	adds	r1, #5
 2007922:	468e      	mov	r14, r1
 2007924:	46af      	mov	r15, r5
 2007926:	2f02      	cmp	r7, #2
 2007928:	d000      	beq.n	200792c <skip6>
 200792a:	4718      	bx	r3

0200792c <skip6>:
 200792c:	2009      	movs	r0, #9
 200792e:	4679      	mov	r1, r15
 2007930:	3105      	adds	r1, #5
 2007932:	468e      	mov	r14, r1
 2007934:	4697      	mov	r15, r2
 2007936:	2f02      	cmp	r7, #2
 2007938:	d000      	beq.n	200793c <skip7>
 200793a:	4718      	bx	r3

0200793c <skip7>:
 200793c:	4679      	mov	r1, r15
 200793e:	4708      	bx	r1
 2007940:	e8bd80e0 	pop	{r5, r6, r7, r15}

02007944 <buffer>:
	...

0200794c <wrong>:
 200794c:	11111111 	tstne	r1, r1, lsl r1
 2007950:	11111111 	tstne	r1, r1, lsl r1
 2007954:	11111111 	tstne	r1, r1, lsl r1
 2007958:	11111111 	tstne	r1, r1, lsl r1
 200795c:	11111111 	tstne	r1, r1, lsl r1
 2007960:	11111111 	tstne	r1, r1, lsl r1

02007964 <random_data>:
 2007964:	c0ffeeab 	rscsgt	r14, r15, r11, lsr #29
 2007968:	deadbeef 	cdple	14, 10, cr11, cr13, cr15, {7}
 200796c:	d00dfeed 	andle	r15, r13, r13, ror #29
 2007970:	c0cac01a 	sbcgt	r12, r10, r10, lsl r0
 2007974:	01234567 			; <UNDEFINED> instruction: 0x01234567
 2007978:	89abcdef 	stmibhi	r11!, {r0, r1, r2, r3, r5, r6, r7, r8, r10, r11, r14, r15}

0200797c <old_state>:
	...

020079bc <overwrite_me>:
	...

020079fc <run_tests_armv5_ldm_stm>:
 20079fc:	e59f02b8 	ldr	r0, [pc, #696]	; 2007cbc <fail_test_ldm_stm+0x34>
 2007a00:	e8a06ffe 	stmia	r0!, {r1, r2, r3, r4, r5, r6, r7, r8, r9, r10, r11, r13, r14}
 2007a04:	e3a00000 	mov	r0, #0
 2007a08:	e59f12b0 	ldr	r1, [pc, #688]	; 2007cc0 <fail_test_ldm_stm+0x38>
 2007a0c:	e8b10004 	ldm	r1!, {r2}
 2007a10:	e59f32a8 	ldr	r3, [pc, #680]	; 2007cc0 <fail_test_ldm_stm+0x38>
 2007a14:	e5933000 	ldr	r3, [r3]
 2007a18:	e1530002 	cmp	r3, r2
 2007a1c:	1a000099 	bne	2007c88 <fail_test_ldm_stm>
 2007a20:	e2800001 	add	r0, r0, #1
 2007a24:	e59f3294 	ldr	r3, [pc, #660]	; 2007cc0 <fail_test_ldm_stm+0x38>
 2007a28:	e2833004 	add	r3, r3, #4
 2007a2c:	e1530001 	cmp	r3, r1
 2007a30:	1a000094 	bne	2007c88 <fail_test_ldm_stm>
 2007a34:	e2800001 	add	r0, r0, #1
 2007a38:	e59f1284 	ldr	r1, [pc, #644]	; 2007cc4 <fail_test_ldm_stm+0x3c>
 2007a3c:	e59f227c 	ldr	r2, [pc, #636]	; 2007cc0 <fail_test_ldm_stm+0x38>
 2007a40:	e5922000 	ldr	r2, [r2]
 2007a44:	e8a10004 	stmia	r1!, {r2}
 2007a48:	e59f3270 	ldr	r3, [pc, #624]	; 2007cc0 <fail_test_ldm_stm+0x38>
 2007a4c:	e5933000 	ldr	r3, [r3]
 2007a50:	e59f426c 	ldr	r4, [pc, #620]	; 2007cc4 <fail_test_ldm_stm+0x3c>
 2007a54:	e5944000 	ldr	r4, [r4]
 2007a58:	e1530004 	cmp	r3, r4
 2007a5c:	1a000089 	bne	2007c88 <fail_test_ldm_stm>
 2007a60:	e2800001 	add	r0, r0, #1
 2007a64:	e59f3258 	ldr	r3, [pc, #600]	; 2007cc4 <fail_test_ldm_stm+0x3c>
 2007a68:	e2833004 	add	r3, r3, #4
 2007a6c:	e1530001 	cmp	r3, r1
 2007a70:	1a000084 	bne	2007c88 <fail_test_ldm_stm>
 2007a74:	e2800001 	add	r0, r0, #1
 2007a78:	e59f1240 	ldr	r1, [pc, #576]	; 2007cc0 <fail_test_ldm_stm+0x38>
 2007a7c:	e8b10002 	ldm	r1!, {r1}
 2007a80:	e59f3238 	ldr	r3, [pc, #568]	; 2007cc0 <fail_test_ldm_stm+0x38>
 2007a84:	e2833004 	add	r3, r3, #4
 2007a88:	e1530001 	cmp	r3, r1
 2007a8c:	1a00007d 	bne	2007c88 <fail_test_ldm_stm>
 2007a90:	e2800001 	add	r0, r0, #1
 2007a94:	e59f3224 	ldr	r3, [pc, #548]	; 2007cc0 <fail_test_ldm_stm+0x38>
 2007a98:	e8b3000e 	ldm	r3!, {r1, r2, r3}
 2007a9c:	e59f421c 	ldr	r4, [pc, #540]	; 2007cc0 <fail_test_ldm_stm+0x38>
 2007aa0:	e4945004 	ldr	r5, [r4], #4
 2007aa4:	e1550001 	cmp	r5, r1
 2007aa8:	1a000076 	bne	2007c88 <fail_test_ldm_stm>
 2007aac:	e2800001 	add	r0, r0, #1
 2007ab0:	e4945004 	ldr	r5, [r4], #4
 2007ab4:	e1550002 	cmp	r5, r2
 2007ab8:	1a000072 	bne	2007c88 <fail_test_ldm_stm>
 2007abc:	e2800001 	add	r0, r0, #1
 2007ac0:	e4945004 	ldr	r5, [r4], #4
 2007ac4:	e1550003 	cmp	r5, r3
 2007ac8:	1a00006e 	bne	2007c88 <fail_test_ldm_stm>
 2007acc:	e2800001 	add	r0, r0, #1
 2007ad0:	e59f21e8 	ldr	r2, [pc, #488]	; 2007cc0 <fail_test_ldm_stm+0x38>
 2007ad4:	e8b2000e 	ldm	r2!, {r1, r2, r3}
 2007ad8:	e59f41e0 	ldr	r4, [pc, #480]	; 2007cc0 <fail_test_ldm_stm+0x38>
 2007adc:	e4945008 	ldr	r5, [r4], #8
 2007ae0:	e1550001 	cmp	r5, r1
 2007ae4:	1a000067 	bne	2007c88 <fail_test_ldm_stm>
 2007ae8:	e2800001 	add	r0, r0, #1
 2007aec:	e4945004 	ldr	r5, [r4], #4
 2007af0:	e1550003 	cmp	r5, r3
 2007af4:	1a000063 	bne	2007c88 <fail_test_ldm_stm>
 2007af8:	e2800001 	add	r0, r0, #1
 2007afc:	e59f11bc 	ldr	r1, [pc, #444]	; 2007cc0 <fail_test_ldm_stm+0x38>
 2007b00:	e281100c 	add	r1, r1, #12
 2007b04:	e1510002 	cmp	r1, r2
 2007b08:	1a00005e 	bne	2007c88 <fail_test_ldm_stm>
 2007b0c:	e2800001 	add	r0, r0, #1
 2007b10:	e59f21a8 	ldr	r2, [pc, #424]	; 2007cc0 <fail_test_ldm_stm+0x38>
 2007b14:	e8b20000 	ldm	r2!, {}	; <UNPREDICTABLE>
 2007b18:	e59f31a0 	ldr	r3, [pc, #416]	; 2007cc0 <fail_test_ldm_stm+0x38>
 2007b1c:	e2833040 	add	r3, r3, #64	; 0x40
 2007b20:	e1530002 	cmp	r3, r2
 2007b24:	1a000057 	bne	2007c88 <fail_test_ldm_stm>
 2007b28:	e2800001 	add	r0, r0, #1
 2007b2c:	e59fd194 	ldr	r13, [pc, #404]	; 2007cc8 <fail_test_ldm_stm+0x40>
 2007b30:	e3a0e000 	mov	r14, #0
 2007b34:	e3a01012 	mov	r1, #18
 2007b38:	e129f001 	msr	CPSR_fc, r1
 2007b3c:	e59fd17c 	ldr	r13, [pc, #380]	; 2007cc0 <fail_test_ldm_stm+0x38>
 2007b40:	e3a0e000 	mov	r14, #0
 2007b44:	e8fd4000 	ldm	r13!, {r14}^
 2007b48:	e3a03000 	mov	r3, #0
 2007b4c:	e153000e 	cmp	r3, r14
 2007b50:	1a00004c 	bne	2007c88 <fail_test_ldm_stm>
 2007b54:	e2800001 	add	r0, r0, #1
 2007b58:	e59f3160 	ldr	r3, [pc, #352]	; 2007cc0 <fail_test_ldm_stm+0x38>
 2007b5c:	e2833004 	add	r3, r3, #4
 2007b60:	e153000d 	cmp	r3, r13
 2007b64:	1a000047 	bne	2007c88 <fail_test_ldm_stm>
 2007b68:	e2800001 	add	r0, r0, #1
 2007b6c:	e3a0101f 	mov	r1, #31
 2007b70:	e129f001 	msr	CPSR_fc, r1
 2007b74:	e59f3144 	ldr	r3, [pc, #324]	; 2007cc0 <fail_test_ldm_stm+0x38>
 2007b78:	e5933000 	ldr	r3, [r3]
 2007b7c:	e153000e 	cmp	r3, r14
 2007b80:	1a000040 	bne	2007c88 <fail_test_ldm_stm>
 2007b84:	e2800001 	add	r0, r0, #1
 2007b88:	e59f3138 	ldr	r3, [pc, #312]	; 2007cc8 <fail_test_ldm_stm+0x40>
 2007b8c:	e153000d 	cmp	r3, r13
 2007b90:	1a00003c 	bne	2007c88 <fail_test_ldm_stm>
 2007b94:	e2800001 	add	r0, r0, #1
 2007b98:	e59fd128 	ldr	r13, [pc, #296]	; 2007cc8 <fail_test_ldm_stm+0x40>
 2007b9c:	e3a01012 	mov	r1, #18
 2007ba0:	e129f001 	msr	CPSR_fc, r1
 2007ba4:	e59fd114 	ldr	r13, [pc, #276]	; 2007cc0 <fail_test_ldm_stm+0x38>
 2007ba8:	e8dd2000 	ldm	r13, {r13}^
 2007bac:	e59f310c 	ldr	r3, [pc, #268]	; 2007cc0 <fail_test_ldm_stm+0x38>
 2007bb0:	e153000d 	cmp	r3, r13
 2007bb4:	1a000033 	bne	2007c88 <fail_test_ldm_stm>
 2007bb8:	e2800001 	add	r0, r0, #1
 2007bbc:	e3a0101f 	mov	r1, #31
 2007bc0:	e129f001 	msr	CPSR_fc, r1
 2007bc4:	e59f30f4 	ldr	r3, [pc, #244]	; 2007cc0 <fail_test_ldm_stm+0x38>
 2007bc8:	e5933000 	ldr	r3, [r3]
 2007bcc:	e153000d 	cmp	r3, r13
 2007bd0:	1a00002c 	bne	2007c88 <fail_test_ldm_stm>
 2007bd4:	e2800001 	add	r0, r0, #1
 2007bd8:	e59f10e4 	ldr	r1, [pc, #228]	; 2007cc4 <fail_test_ldm_stm+0x3c>
 2007bdc:	e8a10002 	stmia	r1!, {r1}
 2007be0:	e59f30dc 	ldr	r3, [pc, #220]	; 2007cc4 <fail_test_ldm_stm+0x3c>
 2007be4:	e2833004 	add	r3, r3, #4
 2007be8:	e1530001 	cmp	r3, r1
 2007bec:	1a000025 	bne	2007c88 <fail_test_ldm_stm>
 2007bf0:	e2800001 	add	r0, r0, #1
 2007bf4:	e59f30c8 	ldr	r3, [pc, #200]	; 2007cc4 <fail_test_ldm_stm+0x3c>
 2007bf8:	e5932000 	ldr	r2, [r3]
 2007bfc:	e1520003 	cmp	r2, r3
 2007c00:	1a000020 	bne	2007c88 <fail_test_ldm_stm>
 2007c04:	e2800001 	add	r0, r0, #1
 2007c08:	e59f30b0 	ldr	r3, [pc, #176]	; 2007cc0 <fail_test_ldm_stm+0x38>
 2007c0c:	e4932004 	ldr	r2, [r3], #4
 2007c10:	e4931004 	ldr	r1, [r3], #4
 2007c14:	e59f30a8 	ldr	r3, [pc, #168]	; 2007cc4 <fail_test_ldm_stm+0x3c>
 2007c18:	e8a3000e 	stmia	r3!, {r1, r2, r3}
 2007c1c:	e59f409c 	ldr	r4, [pc, #156]	; 2007cc0 <fail_test_ldm_stm+0x38>
 2007c20:	e5944004 	ldr	r4, [r4, #4]
 2007c24:	e59f5098 	ldr	r5, [pc, #152]	; 2007cc4 <fail_test_ldm_stm+0x3c>
 2007c28:	e5955000 	ldr	r5, [r5]
 2007c2c:	e1540005 	cmp	r4, r5
 2007c30:	1a000014 	bne	2007c88 <fail_test_ldm_stm>
 2007c34:	e2800001 	add	r0, r0, #1
 2007c38:	e59f4080 	ldr	r4, [pc, #128]	; 2007cc0 <fail_test_ldm_stm+0x38>
 2007c3c:	e5944000 	ldr	r4, [r4]
 2007c40:	e59f507c 	ldr	r5, [pc, #124]	; 2007cc4 <fail_test_ldm_stm+0x3c>
 2007c44:	e5955004 	ldr	r5, [r5, #4]
 2007c48:	e1540005 	cmp	r4, r5
 2007c4c:	1a00000d 	bne	2007c88 <fail_test_ldm_stm>
 2007c50:	e2800001 	add	r0, r0, #1
 2007c54:	e59f4068 	ldr	r4, [pc, #104]	; 2007cc4 <fail_test_ldm_stm+0x3c>
 2007c58:	e5945008 	ldr	r5, [r4, #8]
 2007c5c:	e1540005 	cmp	r4, r5
 2007c60:	1a000008 	bne	2007c88 <fail_test_ldm_stm>
 2007c64:	e2800001 	add	r0, r0, #1
 2007c68:	e59f4054 	ldr	r4, [pc, #84]	; 2007cc4 <fail_test_ldm_stm+0x3c>
 2007c6c:	e284400c 	add	r4, r4, #12
 2007c70:	e1540003 	cmp	r4, r3
 2007c74:	1a000003 	bne	2007c88 <fail_test_ldm_stm>
 2007c78:	e2800001 	add	r0, r0, #1

02007c7c <end_test>:
 2007c7c:	e59fc038 	ldr	r12, [pc, #56]	; 2007cbc <fail_test_ldm_stm+0x34>
 2007c80:	e8bc6ffe 	ldm	r12!, {r1, r2, r3, r4, r5, r6, r7, r8, r9, r10, r11, r13, r14}
 2007c84:	e12fff1e 	bx	r14

02007c88 <fail_test_ldm_stm>:
 2007c88:	e59fc02c 	ldr	r12, [pc, #44]	; 2007cbc <fail_test_ldm_stm+0x34>
 2007c8c:	e8bc6ffe 	ldm	r12!, {r1, r2, r3, r4, r5, r6, r7, r8, r9, r10, r11, r13, r14}
 2007c90:	eafff465 	b	2004e2c <fail_test>
 2007c94:	fffc1234 			; <UNDEFINED> instruction: 0xfffc1234
 2007c98:	fffffeda 			; <UNDEFINED> instruction: 0xfffffeda
 2007c9c:	00000207 	andeq	r0, r0, r7, lsl #4
 2007ca0:	00001442 	andeq	r1, r0, r2, asr #8
 2007ca4:	12345678 	eorsne	r5, r4, #120, 12	; 0x7800000
 2007ca8:	14180678 	ldrne	r0, [r8], #-1656	; 0xfffff988
 2007cac:	00000f0d 	andeq	r0, r0, r13, lsl #30
 2007cb0:	02004e2c 	andeq	r4, r0, #44, 28	; 0x2c0
 2007cb4:	02002ccc 	andeq	r2, r0, #204, 24	; 0xcc00
 2007cb8:	02002cd8 	andeq	r2, r0, #216, 24	; 0xd800
 2007cbc:	0200797c 	andeq	r7, r0, #124, 18	; 0x1f0000
 2007cc0:	02007964 	andeq	r7, r0, #100, 18	; 0x190000
 2007cc4:	020079bc 	andeq	r7, r0, #188, 18	; 0x2f0000
 2007cc8:	0200794c 	andeq	r7, r0, #76, 18	; 0x130000

02007ccc <enable_trace>:
 2007ccc:	e59f3008 	ldr	r3, [pc, #8]	; 2007cdc <enable_trace+0x10>
 2007cd0:	e59f2008 	ldr	r2, [pc, #8]	; 2007ce0 <enable_trace+0x14>
 2007cd4:	e5832400 	str	r2, [r3, #1024]	; 0x400
 2007cd8:	e12fff1e 	bx	r14
 2007cdc:	08004000 	stmdaeq	r0, {r14}
 2007ce0:	08004400 	stmdaeq	r0, {r10, r14}

02007ce4 <disable_trace>:
 2007ce4:	e59f3008 	ldr	r3, [pc, #8]	; 2007cf4 <disable_trace+0x10>
 2007ce8:	e59f2008 	ldr	r2, [pc, #8]	; 2007cf8 <disable_trace+0x14>
 2007cec:	e5832500 	str	r2, [r3, #1280]	; 0x500
 2007cf0:	e12fff1e 	bx	r14
 2007cf4:	08005000 	stmdaeq	r0, {r12, r14}
 2007cf8:	08005500 	stmdaeq	r0, {r8, r10, r12, r14}

02007cfc <wait_busy>:
 2007cfc:	e2500001 	subs	r0, r0, #1
 2007d00:	1afffffd 	bne	2007cfc <wait_busy>
 2007d04:	e12fff1e 	bx	r14

02007d08 <l_EIC>:
 2007d08:	e10f3000 	mrs	r3, CPSR
 2007d0c:	e3c33080 	bic	r3, r3, #128	; 0x80
 2007d10:	e121f003 	msr	CPSR_c, r3
 2007d14:	e12fff1e 	bx	r14

02007d18 <l_DIC>:
 2007d18:	e10f3000 	mrs	r3, CPSR
 2007d1c:	e3833080 	orr	r3, r3, #128	; 0x80
 2007d20:	e121f003 	msr	CPSR_c, r3
 2007d24:	e12fff1e 	bx	r14

02007d28 <call_fncptr>:
 2007d28:	e12fff10 	bx	r0

02007d2c <memcpy>:
 2007d2c:	e352000f 	cmp	r2, #15
 2007d30:	9a000036 	bls	2007e10 <memcpy+0xe4>
 2007d34:	e1803001 	orr	r3, r0, r1
 2007d38:	e3130003 	tst	r3, #3
 2007d3c:	1a00003f 	bne	2007e40 <memcpy+0x114>
 2007d40:	e242c010 	sub	r12, r2, #16
 2007d44:	e92d40f0 	push	{r4, r5, r6, r7, r14}
 2007d48:	e2814020 	add	r4, r1, #32
 2007d4c:	e3cce00f 	bic	r14, r12, #15
 2007d50:	e2813010 	add	r3, r1, #16
 2007d54:	e2806010 	add	r6, r0, #16
 2007d58:	e084400e 	add	r4, r4, r14
 2007d5c:	e1a0522c 	lsr	r5, r12, #4
 2007d60:	e513e00c 	ldr	r14, [r3, #-12]
 2007d64:	e513c008 	ldr	r12, [r3, #-8]
 2007d68:	e5137010 	ldr	r7, [r3, #-16]
 2007d6c:	e506e00c 	str	r14, [r6, #-12]
 2007d70:	e2833010 	add	r3, r3, #16
 2007d74:	e513e014 	ldr	r14, [r3, #-20]	; 0xffffffec
 2007d78:	e1530004 	cmp	r3, r4
 2007d7c:	e9065000 	stmdb	r6, {r12, r14}
 2007d80:	e5067010 	str	r7, [r6, #-16]
 2007d84:	e2866010 	add	r6, r6, #16
 2007d88:	1afffff4 	bne	2007d60 <memcpy+0x34>
 2007d8c:	e285c001 	add	r12, r5, #1
 2007d90:	e312000c 	tst	r2, #12
 2007d94:	e202300f 	and	r3, r2, #15
 2007d98:	e081120c 	add	r1, r1, r12, lsl #4
 2007d9c:	01a02003 	moveq	r2, r3
 2007da0:	e080c20c 	add	r12, r0, r12, lsl #4
 2007da4:	0a00000d 	beq	2007de0 <memcpy+0xb4>
 2007da8:	e1a04001 	mov	r4, r1
 2007dac:	e2433004 	sub	r3, r3, #4
 2007db0:	e3c36003 	bic	r6, r3, #3
 2007db4:	e1a0e123 	lsr	r14, r3, #2
 2007db8:	e08c6006 	add	r6, r12, r6
 2007dbc:	e24c3004 	sub	r3, r12, #4
 2007dc0:	e4945004 	ldr	r5, [r4], #4
 2007dc4:	e5a35004 	str	r5, [r3, #4]!
 2007dc8:	e1530006 	cmp	r3, r6
 2007dcc:	1afffffb 	bne	2007dc0 <memcpy+0x94>
 2007dd0:	e28e3001 	add	r3, r14, #1
 2007dd4:	e2022003 	and	r2, r2, #3
 2007dd8:	e08cc103 	add	r12, r12, r3, lsl #2
 2007ddc:	e0811103 	add	r1, r1, r3, lsl #2
 2007de0:	e3520000 	cmp	r2, #0
 2007de4:	e2423001 	sub	r3, r2, #1
 2007de8:	12833001 	addne	r3, r3, #1
 2007dec:	124c2001 	subne	r2, r12, #1
 2007df0:	10813003 	addne	r3, r1, r3
 2007df4:	0a000003 	beq	2007e08 <memcpy+0xdc>
 2007df8:	e4d1c001 	ldrb	r12, [r1], #1
 2007dfc:	e1510003 	cmp	r1, r3
 2007e00:	e5e2c001 	strb	r12, [r2, #1]!
 2007e04:	1afffffb 	bne	2007df8 <memcpy+0xcc>
 2007e08:	e8bd40f0 	pop	{r4, r5, r6, r7, r14}
 2007e0c:	e12fff1e 	bx	r14
 2007e10:	e3520000 	cmp	r2, #0
 2007e14:	e1a0c000 	mov	r12, r0
 2007e18:	e2423001 	sub	r3, r2, #1
 2007e1c:	012fff1e 	bxeq	r14
 2007e20:	e2833001 	add	r3, r3, #1
 2007e24:	e24c2001 	sub	r2, r12, #1
 2007e28:	e0813003 	add	r3, r1, r3
 2007e2c:	e4d1c001 	ldrb	r12, [r1], #1
 2007e30:	e1510003 	cmp	r1, r3
 2007e34:	e5e2c001 	strb	r12, [r2, #1]!
 2007e38:	1afffffb 	bne	2007e2c <memcpy+0x100>
 2007e3c:	e12fff1e 	bx	r14
 2007e40:	e1a0c000 	mov	r12, r0
 2007e44:	e2423001 	sub	r3, r2, #1
 2007e48:	eafffff4 	b	2007e20 <memcpy+0xf4>

02007e4c <memset>:
 2007e4c:	e3100003 	tst	r0, #3
 2007e50:	0a000040 	beq	2007f58 <memset+0x10c>
 2007e54:	e3520000 	cmp	r2, #0
 2007e58:	e2422001 	sub	r2, r2, #1
 2007e5c:	012fff1e 	bxeq	r14
 2007e60:	e1a03000 	mov	r3, r0
 2007e64:	e201c0ff 	and	r12, r1, #255	; 0xff
 2007e68:	ea000002 	b	2007e78 <memset+0x2c>
 2007e6c:	e2422001 	sub	r2, r2, #1
 2007e70:	e3720001 	cmn	r2, #1
 2007e74:	012fff1e 	bxeq	r14
 2007e78:	e4c3c001 	strb	r12, [r3], #1
 2007e7c:	e3130003 	tst	r3, #3
 2007e80:	1afffff9 	bne	2007e6c <memset+0x20>
 2007e84:	e3520003 	cmp	r2, #3
 2007e88:	9a000028 	bls	2007f30 <memset+0xe4>
 2007e8c:	e92d4030 	push	{r4, r5, r14}
 2007e90:	e201e0ff 	and	r14, r1, #255	; 0xff
 2007e94:	e18ee40e 	orr	r14, r14, r14, lsl #8
 2007e98:	e352000f 	cmp	r2, #15
 2007e9c:	e18ee80e 	orr	r14, r14, r14, lsl #16
 2007ea0:	9a00002e 	bls	2007f60 <memset+0x114>
 2007ea4:	e242c010 	sub	r12, r2, #16
 2007ea8:	e3cc400f 	bic	r4, r12, #15
 2007eac:	e2835020 	add	r5, r3, #32
 2007eb0:	e0855004 	add	r5, r5, r4
 2007eb4:	e1a0422c 	lsr	r4, r12, #4
 2007eb8:	e283c010 	add	r12, r3, #16
 2007ebc:	e50ce010 	str	r14, [r12, #-16]
 2007ec0:	e50ce00c 	str	r14, [r12, #-12]
 2007ec4:	e50ce008 	str	r14, [r12, #-8]
 2007ec8:	e50ce004 	str	r14, [r12, #-4]
 2007ecc:	e28cc010 	add	r12, r12, #16
 2007ed0:	e15c0005 	cmp	r12, r5
 2007ed4:	1afffff8 	bne	2007ebc <memset+0x70>
 2007ed8:	e284c001 	add	r12, r4, #1
 2007edc:	e312000c 	tst	r2, #12
 2007ee0:	e083c20c 	add	r12, r3, r12, lsl #4
 2007ee4:	e202200f 	and	r2, r2, #15
 2007ee8:	0a000018 	beq	2007f50 <memset+0x104>
 2007eec:	e2423004 	sub	r3, r2, #4
 2007ef0:	e3c33003 	bic	r3, r3, #3
 2007ef4:	e2833004 	add	r3, r3, #4
 2007ef8:	e08c3003 	add	r3, r12, r3
 2007efc:	e48ce004 	str	r14, [r12], #4
 2007f00:	e153000c 	cmp	r3, r12
 2007f04:	1afffffc 	bne	2007efc <memset+0xb0>
 2007f08:	e2022003 	and	r2, r2, #3
 2007f0c:	e3520000 	cmp	r2, #0
 2007f10:	120110ff 	andne	r1, r1, #255	; 0xff
 2007f14:	10832002 	addne	r2, r3, r2
 2007f18:	0a000002 	beq	2007f28 <memset+0xdc>
 2007f1c:	e4c31001 	strb	r1, [r3], #1
 2007f20:	e1520003 	cmp	r2, r3
 2007f24:	1afffffc 	bne	2007f1c <memset+0xd0>
 2007f28:	e8bd4030 	pop	{r4, r5, r14}
 2007f2c:	e12fff1e 	bx	r14
 2007f30:	e3520000 	cmp	r2, #0
 2007f34:	012fff1e 	bxeq	r14
 2007f38:	e20110ff 	and	r1, r1, #255	; 0xff
 2007f3c:	e0832002 	add	r2, r3, r2
 2007f40:	e4c31001 	strb	r1, [r3], #1
 2007f44:	e1520003 	cmp	r2, r3
 2007f48:	1afffffc 	bne	2007f40 <memset+0xf4>
 2007f4c:	e12fff1e 	bx	r14
 2007f50:	e1a0300c 	mov	r3, r12
 2007f54:	eaffffec 	b	2007f0c <memset+0xc0>
 2007f58:	e1a03000 	mov	r3, r0
 2007f5c:	eaffffc8 	b	2007e84 <memset+0x38>
 2007f60:	e1a0c003 	mov	r12, r3
 2007f64:	eaffffe0 	b	2007eec <memset+0xa0>

02007f68 <menu_index>:
 2007f68:	00000000 	andeq	r0, r0, r0

02007f6c <val_IPCSYNC>:
	...

02007f6e <val_IPCFIFOCNT>:
	...

02007f70 <FIFO_length>:
 2007f70:	00000000 	andeq	r0, r0, r0

02007f74 <val_IME>:
 2007f74:	00000000 	andeq	r0, r0, r0

02007f78 <val_IE>:
 2007f78:	00000000 	andeq	r0, r0, r0

02007f7c <val_IF>:
 2007f7c:	00000000 	andeq	r0, r0, r0

02007f80 <_ZL5magic>:
 2007f80:	00000000 	andeq	r0, r0, r0

02007f84 <_ZL5magic>:
 2007f84:	00000000 	andeq	r0, r0, r0

Disassembly of section .data:

02007f88 <menu_selected>:
 2007f88:	02007fdc 	andeq	r7, r0, #220, 30	; 0x370

Disassembly of section .rodata:

02007f8c <_ZL7palette>:
 2007f8c:	294a0000 	stmdbcs	r10, {}^	; <UNPREDICTABLE>
 2007f90:	7fff56b5 	svcvc	0x00ff56b5

02007f94 <menu_initialstate>:
 2007f94:	02007fe8 	andeq	r7, r0, #232, 30	; 0x3a0
 2007f98:	02008db8 	andeq	r8, r0, #184, 26	; 0x2e00
 2007f9c:	02007fdc 	andeq	r7, r0, #220, 30	; 0x370

02007fa0 <menu_memory>:
 2007fa0:	0200800c 	andeq	r8, r0, #12
 2007fa4:	02008dc8 	andeq	r8, r0, #200, 26	; 0x3200
 2007fa8:	02007fdc 	andeq	r7, r0, #220, 30	; 0x370

02007fac <menu_dsmath>:
 2007fac:	0200803c 	andeq	r8, r0, #60	; 0x3c
 2007fb0:	02008dd8 	andeq	r8, r0, #216, 26	; 0x3600
 2007fb4:	02007fdc 	andeq	r7, r0, #220, 30	; 0x370

02007fb8 <menu_ipc>:
 2007fb8:	02008084 	andeq	r8, r0, #132	; 0x84
 2007fbc:	02008de0 	andeq	r8, r0, #224, 26	; 0x3800
 2007fc0:	02007fdc 	andeq	r7, r0, #220, 30	; 0x370

02007fc4 <menu_armv5>:
 2007fc4:	020080b4 	andeq	r8, r0, #180	; 0xb4
 2007fc8:	02008dec 	andeq	r8, r0, #236, 26	; 0x3b00
 2007fcc:	02007fdc 	andeq	r7, r0, #220, 30	; 0x370

02007fd0 <menu_armv4>:
 2007fd0:	02008144 	andeq	r8, r0, #68, 2
 2007fd4:	02008df4 	andeq	r8, r0, #244, 26	; 0x3d00
 2007fd8:	02007fdc 	andeq	r7, r0, #220, 30	; 0x370

02007fdc <menu_main>:
 2007fdc:	0200815c 	andeq	r8, r0, #92, 2
 2007fe0:	02008dfc 	andeq	r8, r0, #252, 26	; 0x3f00
 2007fe4:	00000000 	andeq	r0, r0, r0

02007fe8 <_ZL25menu_initialstate_entries>:
 2007fe8:	02008e0c 	andeq	r8, r0, #12, 28	; 0xc0
 2007fec:	020050cc 	andeq	r5, r0, #204	; 0xcc
 2007ff0:	00000002 	andeq	r0, r0, r2
 2007ff4:	02008e1c 	andeq	r8, r0, #28, 28	; 0x1c0
 2007ff8:	02005400 	andeq	r5, r0, #0, 8
 2007ffc:	00000002 	andeq	r0, r0, r2
	...

0200800c <_ZL19menu_memory_entries>:
 200800c:	02008e24 	andeq	r8, r0, #36, 28	; 0x240
 2008010:	020063d0 	andeq	r6, r0, #208, 6	; 0x40000003
 2008014:	00000000 	andeq	r0, r0, r0
 2008018:	02008e30 	andeq	r8, r0, #48, 28	; 0x300
 200801c:	02005f8c 	andeq	r5, r0, #140, 30	; 0x230
 2008020:	00000000 	andeq	r0, r0, r0
 2008024:	02008e3c 	andeq	r8, r0, #60, 28	; 0x3c0
 2008028:	02005c10 	andeq	r5, r0, #16, 24	; 0x1000
	...

0200803c <_ZL19menu_dsmath_entries>:
 200803c:	02008e40 	andeq	r8, r0, #64, 28	; 0x400
 2008040:	02005b00 	andeq	r5, r0, #0, 22
 2008044:	00000000 	andeq	r0, r0, r0
 2008048:	02008e48 	andeq	r8, r0, #72, 28	; 0x480
 200804c:	02005b88 	andeq	r5, r0, #136, 22	; 0x22000
 2008050:	00000000 	andeq	r0, r0, r0
 2008054:	02008e50 	andeq	r8, r0, #80, 28	; 0x500
 2008058:	02004fb4 	andeq	r4, r0, #180, 30	; 0x2d0
 200805c:	00000000 	andeq	r0, r0, r0
 2008060:	02008e5c 	andeq	r8, r0, #92, 28	; 0x5c0
 2008064:	02004fd4 	andeq	r4, r0, #212, 30	; 0x350
 2008068:	00000000 	andeq	r0, r0, r0
 200806c:	02008e68 	andeq	r8, r0, #104, 28	; 0x680
 2008070:	02004ff4 	andeq	r4, r0, #244, 30	; 0x3d0
	...

02008084 <_ZL16menu_ipc_entries>:
 2008084:	02008e74 	andeq	r8, r0, #116, 28	; 0x740
 2008088:	0200593c 	andeq	r5, r0, #60, 18	; 0xf0000
 200808c:	00000000 	andeq	r0, r0, r0
 2008090:	02008e7c 	andeq	r8, r0, #124, 28	; 0x7c0
 2008094:	0200549c 	andeq	r5, r0, #156, 8	; 0x9c000000
 2008098:	00000000 	andeq	r0, r0, r0
 200809c:	02008e84 	andeq	r8, r0, #132, 28	; 0x840
 20080a0:	02005820 	andeq	r5, r0, #32, 16	; 0x200000
	...

020080b4 <_ZL18menu_armv5_entries>:
 20080b4:	02008e90 	andeq	r8, r0, #144, 28	; 0x900
 20080b8:	020069f0 	andeq	r6, r0, #240, 18	; 0x3c0000
 20080bc:	00000000 	andeq	r0, r0, r0
 20080c0:	02008e94 	andeq	r8, r0, #148, 28	; 0x940
 20080c4:	02006a74 	andeq	r6, r0, #116, 20	; 0x74000
 20080c8:	00000000 	andeq	r0, r0, r0
 20080cc:	02008ea0 	andeq	r8, r0, #160, 28	; 0xa00
 20080d0:	02006db8 	andeq	r6, r0, #184, 26	; 0x2e00
 20080d4:	00000000 	andeq	r0, r0, r0
 20080d8:	02008eb0 	andeq	r8, r0, #176, 28	; 0xb00
 20080dc:	02007428 	andeq	r7, r0, #40, 8	; 0x28000000
 20080e0:	00000000 	andeq	r0, r0, r0
 20080e4:	02008eb8 	andeq	r8, r0, #184, 28	; 0xb80
 20080e8:	0200727c 	andeq	r7, r0, #124, 4	; 0xc0000007
 20080ec:	00000000 	andeq	r0, r0, r0
 20080f0:	02008ec0 	andeq	r8, r0, #192, 28	; 0xc00
 20080f4:	02007600 	andeq	r7, r0, #0, 12
 20080f8:	00000000 	andeq	r0, r0, r0
 20080fc:	02008ec8 	andeq	r8, r0, #200, 28	; 0xc80
 2008100:	020074a8 	andeq	r7, r0, #168, 8	; 0xa8000000
 2008104:	00000000 	andeq	r0, r0, r0
 2008108:	02008ed0 	andeq	r8, r0, #208, 28	; 0xd00
 200810c:	020076b8 	andeq	r7, r0, #184, 12	; 0xb800000
 2008110:	00000000 	andeq	r0, r0, r0
 2008114:	02008ed8 	andeq	r8, r0, #216, 28	; 0xd80
 2008118:	020077a4 	andeq	r7, r0, #164, 14	; 0x2900000
 200811c:	00000000 	andeq	r0, r0, r0
 2008120:	02008edc 	andeq	r8, r0, #220, 28	; 0xdc0
 2008124:	02007854 	andeq	r7, r0, #84, 16	; 0x540000
 2008128:	00000000 	andeq	r0, r0, r0
 200812c:	02008efc 	andeq	r8, r0, #252, 28	; 0xfc0
 2008130:	020079fc 	andeq	r7, r0, #252, 18	; 0x3f0000
	...

02008144 <_ZL18menu_armv4_entries>:
 2008144:	02008f08 	andeq	r8, r0, #8, 30
 2008148:	0200696c 	andeq	r6, r0, #108, 18	; 0x1b0000
	...

0200815c <_ZL17menu_main_entries>:
 200815c:	02008df4 	andeq	r8, r0, #244, 26	; 0x3d00
 2008160:	02007fd0 	andeq	r7, r0, #208, 30	; 0x340
 2008164:	00000001 	andeq	r0, r0, r1
 2008168:	02008dec 	andeq	r8, r0, #236, 26	; 0x3b00
 200816c:	02007fc4 	andeq	r7, r0, #196, 30	; 0x310
 2008170:	00000001 	andeq	r0, r0, r1
 2008174:	02008f18 	andeq	r8, r0, #24, 30	; 0x60
 2008178:	02007fb8 	andeq	r7, r0, #184, 30	; 0x2e0
 200817c:	00000001 	andeq	r0, r0, r1
 2008180:	02008dd8 	andeq	r8, r0, #216, 26	; 0x3600
 2008184:	02007fac 	andeq	r7, r0, #172, 30	; 0x2b0
 2008188:	00000001 	andeq	r0, r0, r1
 200818c:	02008f1c 	andeq	r8, r0, #28, 30	; 0x70
 2008190:	02007fa0 	andeq	r7, r0, #160, 30	; 0x280
 2008194:	00000001 	andeq	r0, r0, r1
 2008198:	02008db8 	andeq	r8, r0, #184, 26	; 0x2e00
 200819c:	02007f94 	andeq	r7, r0, #148, 30	; 0x250
 20081a0:	00000001 	andeq	r0, r0, r1
	...

020081b0 <_ZL14div32_32_tests>:
 20081b0:	00000043 	andeq	r0, r0, r3, asr #32
 20081b4:	00000000 	andeq	r0, r0, r0
 20081b8:	0000000a 	andeq	r0, r0, r10
 20081bc:	00000000 	andeq	r0, r0, r0
 20081c0:	00000006 	andeq	r0, r0, r6
 20081c4:	00000000 	andeq	r0, r0, r0
 20081c8:	00000007 	andeq	r0, r0, r7
	...
 20081d4:	00007ae7 	andeq	r7, r0, r7, ror #21
 20081d8:	00000000 	andeq	r0, r0, r0
 20081dc:	000001c8 	andeq	r0, r0, r8, asr #3
 20081e0:	00000000 	andeq	r0, r0, r0
 20081e4:	00000044 	andeq	r0, r0, r4, asr #32
 20081e8:	00000000 	andeq	r0, r0, r0
 20081ec:	000001c7 	andeq	r0, r0, r7, asr #3
	...
 20081f8:	00007ae8 	andeq	r7, r0, r8, ror #21
 20081fc:	00000000 	andeq	r0, r0, r0
 2008200:	000001c8 	andeq	r0, r0, r8, asr #3
 2008204:	00000000 	andeq	r0, r0, r0
 2008208:	00000045 	andeq	r0, r0, r5, asr #32
	...
 200821c:	00007ae9 	andeq	r7, r0, r9, ror #21
 2008220:	00000000 	andeq	r0, r0, r0
 2008224:	000001c8 	andeq	r0, r0, r8, asr #3
 2008228:	00000000 	andeq	r0, r0, r0
 200822c:	00000045 	andeq	r0, r0, r5, asr #32
 2008230:	00000000 	andeq	r0, r0, r0
 2008234:	00000001 	andeq	r0, r0, r1
	...
 2008240:	ffffff74 			; <UNDEFINED> instruction: 0xffffff74
 2008244:	0000002c 	andeq	r0, r0, r12, lsr #32
 2008248:	00000012 	andeq	r0, r0, r2, lsl r0
 200824c:	00000001 	andeq	r0, r0, r1
 2008250:	fffffff9 			; <UNDEFINED> instruction: 0xfffffff9
 2008254:	ffffffff 			; <UNDEFINED> instruction: 0xffffffff
 2008258:	fffffff2 			; <UNDEFINED> instruction: 0xfffffff2
 200825c:	ffffffff 			; <UNDEFINED> instruction: 0xffffffff
 2008260:	00000000 	andeq	r0, r0, r0
 2008264:	fffffcd7 			; <UNDEFINED> instruction: 0xfffffcd7
 2008268:	0000007b 	andeq	r0, r0, r11, ror r0
 200826c:	00000012 	andeq	r0, r0, r2, lsl r0
 2008270:	000000bc 	strheq	r0, [r0], -r12
 2008274:	ffffffd4 			; <UNDEFINED> instruction: 0xffffffd4
 2008278:	ffffffff 			; <UNDEFINED> instruction: 0xffffffff
 200827c:	ffffffef 			; <UNDEFINED> instruction: 0xffffffef
 2008280:	ffffffff 			; <UNDEFINED> instruction: 0xffffffff
 2008284:	00000000 	andeq	r0, r0, r0
 2008288:	fffffcd6 			; <UNDEFINED> instruction: 0xfffffcd6
 200828c:	ffffff85 			; <UNDEFINED> instruction: 0xffffff85
 2008290:	00000012 	andeq	r0, r0, r2, lsl r0
 2008294:	0000000b 	andeq	r0, r0, r11
 2008298:	ffffffd3 			; <UNDEFINED> instruction: 0xffffffd3
 200829c:	ffffffff 			; <UNDEFINED> instruction: 0xffffffff
	...
 20082ac:	fffffcd5 			; <UNDEFINED> instruction: 0xfffffcd5
 20082b0:	00000000 	andeq	r0, r0, r0
 20082b4:	00000012 	andeq	r0, r0, r2, lsl r0
 20082b8:	ffffffcd 			; <UNDEFINED> instruction: 0xffffffcd
 20082bc:	ffffffd3 			; <UNDEFINED> instruction: 0xffffffd3
 20082c0:	ffffffff 			; <UNDEFINED> instruction: 0xffffffff
 20082c4:	ffffffff 			; <UNDEFINED> instruction: 0xffffffff
 20082c8:	ffffffff 			; <UNDEFINED> instruction: 0xffffffff
 20082cc:	00000000 	andeq	r0, r0, r0
 20082d0:	00000331 	andeq	r0, r0, r1, lsr r3
 20082d4:	fffffffb 			; <UNDEFINED> instruction: 0xfffffffb
 20082d8:	fffffff6 			; <UNDEFINED> instruction: 0xfffffff6
 20082dc:	fffffffb 			; <UNDEFINED> instruction: 0xfffffffb
 20082e0:	ffffffaf 			; <UNDEFINED> instruction: 0xffffffaf
 20082e4:	ffffffff 			; <UNDEFINED> instruction: 0xffffffff
 20082e8:	00000007 	andeq	r0, r0, r7
	...
 20082f4:	0000032a 	andeq	r0, r0, r10, lsr #6
 20082f8:	fffffffb 			; <UNDEFINED> instruction: 0xfffffffb
 20082fc:	fffffff6 			; <UNDEFINED> instruction: 0xfffffff6
 2008300:	fffffffb 			; <UNDEFINED> instruction: 0xfffffffb
 2008304:	ffffffaf 			; <UNDEFINED> instruction: 0xffffffaf
 2008308:	ffffffff 			; <UNDEFINED> instruction: 0xffffffff
	...
 2008318:	0000032b 	andeq	r0, r0, r11, lsr #6
 200831c:	fffffffa 			; <UNDEFINED> instruction: 0xfffffffa
 2008320:	fffffff6 			; <UNDEFINED> instruction: 0xfffffff6
 2008324:	00000213 	andeq	r0, r0, r3, lsl r2
 2008328:	ffffffaf 			; <UNDEFINED> instruction: 0xffffffaf
 200832c:	ffffffff 			; <UNDEFINED> instruction: 0xffffffff
 2008330:	00000001 	andeq	r0, r0, r1
	...
 200833c:	00000329 	andeq	r0, r0, r9, lsr #6
 2008340:	00000005 	andeq	r0, r0, r5
 2008344:	fffffff6 			; <UNDEFINED> instruction: 0xfffffff6
 2008348:	000000fc 	strdeq	r0, [r0], -r12
 200834c:	ffffffb0 			; <UNDEFINED> instruction: 0xffffffb0
 2008350:	ffffffff 			; <UNDEFINED> instruction: 0xffffffff
 2008354:	00000009 	andeq	r0, r0, r9
	...
 2008360:	ffffffca 			; <UNDEFINED> instruction: 0xffffffca
 2008364:	000000f4 	strdeq	r0, [r0], -r4
 2008368:	fffffff6 			; <UNDEFINED> instruction: 0xfffffff6
 200836c:	000001ac 	andeq	r0, r0, r12, lsr #3
 2008370:	00000005 	andeq	r0, r0, r5
 2008374:	00000000 	andeq	r0, r0, r0
 2008378:	fffffffc 			; <UNDEFINED> instruction: 0xfffffffc
 200837c:	ffffffff 			; <UNDEFINED> instruction: 0xffffffff
 2008380:	00000000 	andeq	r0, r0, r0
 2008384:	ffffffc5 			; <UNDEFINED> instruction: 0xffffffc5
 2008388:	000000f4 	strdeq	r0, [r0], -r4
 200838c:	fffffff6 			; <UNDEFINED> instruction: 0xfffffff6
 2008390:	000001ac 	andeq	r0, r0, r12, lsr #3
 2008394:	00000005 	andeq	r0, r0, r5
 2008398:	00000000 	andeq	r0, r0, r0
 200839c:	fffffff7 			; <UNDEFINED> instruction: 0xfffffff7
 20083a0:	ffffffff 			; <UNDEFINED> instruction: 0xffffffff
 20083a4:	00000000 	andeq	r0, r0, r0
 20083a8:	ffffffc4 			; <UNDEFINED> instruction: 0xffffffc4
 20083ac:	000000f4 	strdeq	r0, [r0], -r4
 20083b0:	fffffff6 			; <UNDEFINED> instruction: 0xfffffff6
 20083b4:	000001ac 	andeq	r0, r0, r12, lsr #3
 20083b8:	00000006 	andeq	r0, r0, r6
	...
 20083cc:	ffffffc3 			; <UNDEFINED> instruction: 0xffffffc3
 20083d0:	000000f4 	strdeq	r0, [r0], -r4
 20083d4:	fffffff6 			; <UNDEFINED> instruction: 0xfffffff6
 20083d8:	000001ac 	andeq	r0, r0, r12, lsr #3
 20083dc:	00000006 	andeq	r0, r0, r6
 20083e0:	00000000 	andeq	r0, r0, r0
 20083e4:	ffffffff 			; <UNDEFINED> instruction: 0xffffffff
 20083e8:	ffffffff 			; <UNDEFINED> instruction: 0xffffffff
 20083ec:	00000000 	andeq	r0, r0, r0
 20083f0:	000000bc 	strheq	r0, [r0], -r12
 20083f4:	00000000 	andeq	r0, r0, r0
 20083f8:	00000001 	andeq	r0, r0, r1
 20083fc:	00000000 	andeq	r0, r0, r0
 2008400:	000000bc 	strheq	r0, [r0], -r12
	...
 2008414:	ffffff85 			; <UNDEFINED> instruction: 0xffffff85
 2008418:	00000000 	andeq	r0, r0, r0
 200841c:	00000001 	andeq	r0, r0, r1
 2008420:	00000000 	andeq	r0, r0, r0
 2008424:	ffffff85 			; <UNDEFINED> instruction: 0xffffff85
 2008428:	ffffffff 			; <UNDEFINED> instruction: 0xffffffff
	...
 2008438:	00000266 	andeq	r0, r0, r6, ror #4
 200843c:	00000000 	andeq	r0, r0, r0
 2008440:	ffffffff 			; <UNDEFINED> instruction: 0xffffffff
 2008444:	00000000 	andeq	r0, r0, r0
 2008448:	fffffd9a 			; <UNDEFINED> instruction: 0xfffffd9a
 200844c:	ffffffff 			; <UNDEFINED> instruction: 0xffffffff
	...
 200845c:	fffffdd5 			; <UNDEFINED> instruction: 0xfffffdd5
 2008460:	00000000 	andeq	r0, r0, r0
 2008464:	ffffffff 			; <UNDEFINED> instruction: 0xffffffff
 2008468:	00000000 	andeq	r0, r0, r0
 200846c:	0000022b 	andeq	r0, r0, r11, lsr #4
	...
 2008480:	80000000 	andhi	r0, r0, r0
 2008484:	00000000 	andeq	r0, r0, r0
 2008488:	ffffffff 			; <UNDEFINED> instruction: 0xffffffff
 200848c:	00000000 	andeq	r0, r0, r0
 2008490:	80000000 	andhi	r0, r0, r0
	...
 20084a4:	0000007b 	andeq	r0, r0, r11, ror r0
	...
 20084b0:	0000022b 	andeq	r0, r0, r11, lsr #4
 20084b4:	ffffffff 			; <UNDEFINED> instruction: 0xffffffff
 20084b8:	00000000 	andeq	r0, r0, r0
 20084bc:	0000007b 	andeq	r0, r0, r11, ror r0
	...
 20084c8:	ffffff85 			; <UNDEFINED> instruction: 0xffffff85
	...
 20084d4:	0000022b 	andeq	r0, r0, r11, lsr #4
 20084d8:	00000001 	andeq	r0, r0, r1
 20084dc:	ffffffff 			; <UNDEFINED> instruction: 0xffffffff
 20084e0:	ffffff85 			; <UNDEFINED> instruction: 0xffffff85
 20084e4:	ffffffff 			; <UNDEFINED> instruction: 0xffffffff
	...
 20084f8:	0000022b 	andeq	r0, r0, r11, lsr #4
 20084fc:	ffffffff 			; <UNDEFINED> instruction: 0xffffffff
	...
 2008510:	000001c8 	andeq	r0, r0, r8, asr #3
	...
 2008520:	ffffffff 			; <UNDEFINED> instruction: 0xffffffff
 2008524:	00000000 	andeq	r0, r0, r0
 2008528:	000001c8 	andeq	r0, r0, r8, asr #3
 200852c:	00000000 	andeq	r0, r0, r0
 2008530:	00000001 	andeq	r0, r0, r1
 2008534:	fffffe38 			; <UNDEFINED> instruction: 0xfffffe38
	...
 2008544:	00000001 	andeq	r0, r0, r1
 2008548:	ffffffff 			; <UNDEFINED> instruction: 0xffffffff
 200854c:	fffffe38 			; <UNDEFINED> instruction: 0xfffffe38
 2008550:	ffffffff 			; <UNDEFINED> instruction: 0xffffffff
 2008554:	00000001 	andeq	r0, r0, r1
	...
 2008568:	ffffffff 			; <UNDEFINED> instruction: 0xffffffff
	...
 2008578:	00000001 	andeq	r0, r0, r1

0200857c <_ZL14div64_32_tests>:
 200857c:	ccae685d 	stcgt	8, cr6, [r14], #372	; 0x174
 2008580:	5925fa0b 	stmdbpl	r5!, {r0, r1, r3, r9, r11, r12, r13, r14, r15}
 2008584:	0e18d8d6 	mrceq	8, 0, r13, cr8, cr6, {6}
 2008588:	abbb6885 	blge	ee27a4 <_start-0x111d95c>
 200858c:	52eae999 	rscpl	r14, r10, #2506752	; 0x264000
 2008590:	00000006 	andeq	r0, r0, r6
 2008594:	02de0a77 	sbcseq	r0, r14, #487424	; 0x77000
	...
 20085a0:	806d5074 	rsbhi	r5, r13, r4, ror r0
 20085a4:	d1e29c22 	mvnle	r9, r2, lsr #24
 20085a8:	195dffb6 	ldmdbne	r13, {r1, r2, r4, r5, r7, r8, r9, r10, r11, r12, r13, r14, r15}^
 20085ac:	ba6a150a 	blt	3a8d9dc <_ZL12sqrt64_tests+0x1a84d70>
 20085b0:	2e9e9d5f 	mrccs	13, 4, r9, cr14, cr15, {2}
 20085b4:	fffffffe 			; <UNDEFINED> instruction: 0xfffffffe
 20085b8:	ea64cdea 	b	393bd68 <_ZL12sqrt64_tests+0x19330fc>
 20085bc:	ffffffff 			; <UNDEFINED> instruction: 0xffffffff
 20085c0:	00000000 	andeq	r0, r0, r0
 20085c4:	7291f5d9 	addsvc	r15, r1, #910163968	; 0x36400000
 20085c8:	6ebff54c 	cdpvs	5, 11, cr15, cr15, cr12, {2}
 20085cc:	072e2d38 			; <UNDEFINED> instruction: 0x072e2d38
 20085d0:	e8aad872 	stmia	r10!, {r1, r4, r5, r6, r11, r12, r14, r15}
 20085d4:	6c88798d 			; <UNDEFINED> instruction: 0x6c88798d
 20085d8:	0000000f 	andeq	r0, r0, r15
 20085dc:	05039601 	streq	r9, [r3, #-1537]	; 0xfffff9ff
	...
 20085e8:	83741881 	cmnhi	r4, #8454144	; 0x810000
 20085ec:	43fdc1c7 	mvnsmi	r12, #-1073741775	; 0xc0000031
 20085f0:	4ff12872 	svcmi	0x00f12872
 20085f4:	db68f5f7 	blle	3a45dd8 <_ZL12sqrt64_tests+0x1a3d16c>
 20085f8:	d9bad10b 	ldmible	r10!, {r0, r1, r3, r8, r12, r14, r15}
 20085fc:	00000000 	andeq	r0, r0, r0
 2008600:	2d3e499b 			; <UNDEFINED> instruction: 0x2d3e499b
	...
 200860c:	bd72f4c2 	cfldrdlt	mvd15, [r2, #-776]!	; 0xfffffcf8
 2008610:	09ea2839 	stmibeq	r10!, {r0, r3, r4, r5, r11, r13}^
 2008614:	b176b6bb 	ldrhlt	r11, [r6, #-107]!	; 0xffffff95
 2008618:	e985e751 	stmib	r5, {r0, r4, r6, r8, r9, r10, r13, r14, r15}
 200861c:	dfae8559 	svcle	0x00ae8559
 2008620:	ffffffff 			; <UNDEFINED> instruction: 0xffffffff
 2008624:	462446bf 			; <UNDEFINED> instruction: 0x462446bf
	...
 2008630:	d9204a08 	stmdble	r0!, {r3, r9, r11, r14}
 2008634:	a39bb2b8 	orrsge	r11, r11, #184, 4	; 0x8000000b
 2008638:	dbf0b392 	blle	1c35488 <_start-0x3cac78>
 200863c:	74f1a2c8 	ldrbtvc	r10, [r1], #712	; 0x2c8
 2008640:	8feb683b 	svchi	0x00eb683b
 2008644:	00000002 	andeq	r0, r0, r2
 2008648:	faad9762 	blx	b6e3d8 <_start-0x1491d28>
 200864c:	ffffffff 			; <UNDEFINED> instruction: 0xffffffff
 2008650:	00000000 	andeq	r0, r0, r0
 2008654:	b0125148 	andslt	r5, r2, r8, asr #2
 2008658:	0d9f0736 	ldceq	7, cr0, [r15, #216]	; 2008738 <_ZL14div64_32_tests+0x1bc>
 200865c:	237e8059 	cmncs	r14, #89	; 0x59
 2008660:	b30add2c 	movwlt	r13, #44332	; 0xad2c
 2008664:	623e0a69 	eorsvs	r0, r14, #430080	; 0x69000
 2008668:	00000000 	andeq	r0, r0, r0
 200866c:	089e32c7 	ldmeq	r14, {r0, r1, r2, r6, r7, r9, r12, r13}
	...
 2008678:	f5b1c3a0 			; <UNDEFINED> instruction: 0xf5b1c3a0
 200867c:	8af3f163 	bhi	1d04c10 <_start-0x2fb4f0>
 2008680:	e4f359a0 	ldrbt	r5, [r3], #2464	; 0x9a0
 2008684:	ea11c6b2 	b	247a154 <_ZL12sqrt64_tests+0x4714e8>
 2008688:	53c0a754 	bicpl	r10, r0, #84, 14	; 0x1500000
 200868c:	00000004 	andeq	r0, r0, r4
 2008690:	fe60fb20 	vselge.f64	d31, d0, d16
 2008694:	ffffffff 			; <UNDEFINED> instruction: 0xffffffff
 2008698:	00000000 	andeq	r0, r0, r0
 200869c:	4d668fa1 	stclmi	15, cr8, [r6, #-644]!	; 0xfffffd7c
 20086a0:	2044d84c 	subcs	r13, r4, r12, asr #16
 20086a4:	1a5cffaa 	bne	3748554 <_ZL12sqrt64_tests+0x173f8e8>
 20086a8:	9bc894a1 	blls	122d934 <_start-0xdd27cc>
 20086ac:	3958bfb0 	ldmdbcc	r8, {r4, r5, r7, r8, r9, r10, r11, r12, r13, r15}^
 20086b0:	00000001 	andeq	r0, r0, r1
 20086b4:	0e46f4c1 	cdpeq	4, 4, cr15, cr6, cr1, {6}
	...
 20086c0:	186ba75c 	stmdane	r11!, {r2, r3, r4, r6, r8, r9, r10, r13, r15}^
 20086c4:	3a4c565b 	bcc	331e038 <_ZL12sqrt64_tests+0x13153cc>
 20086c8:	a8dc2568 	ldmge	r12, {r3, r5, r6, r8, r10, r13}^
 20086cc:	adcde85c 	stclge	8, cr14, [r13, #368]	; 0x170
 20086d0:	54bb4a64 	ldrtpl	r4, [r11], #2660	; 0xa64
 20086d4:	ffffffff 			; <UNDEFINED> instruction: 0xffffffff
 20086d8:	0ca4fabc 	vstmiaeq	r4!, {s30-s217}
	...
 20086e4:	73186782 	tstvc	r8, #34078720	; 0x2080000
 20086e8:	41e9fa8e 	mvnmi	r15, r14, lsl #21
 20086ec:	b9f14bd2 	ldmiblt	r1!, {r1, r4, r6, r7, r8, r9, r11, r14}^
 20086f0:	227c6951 	rsbscs	r6, r12, #1327104	; 0x144000
 20086f4:	0f240af5 	svceq	0x00240af5
 20086f8:	ffffffff 			; <UNDEFINED> instruction: 0xffffffff
 20086fc:	1aaca388 	bne	b31524 <_start-0x14cebdc>
	...
 2008708:	00f79544 	rscseq	r9, r7, r4, asr #10
 200870c:	787f2241 	ldmdavc	r15!, {r0, r6, r9, r13}^	; <UNPREDICTABLE>
 2008710:	5a974696 	bpl	5da170 <_start-0x1a25f90>
 2008714:	033c7506 	teqeq	r12, #25165824	; 0x1800000
 2008718:	54829d5d 	strpl	r9, [r2], #3421	; 0xd5d
 200871c:	00000001 	andeq	r0, r0, r1
 2008720:	418cf2c6 	orrmi	r15, r12, r6, asr #5
	...
 200872c:	ec716d8c 	ldcl	13, cr6, [r1], #-560	; 0xfffffdd0
 2008730:	cdff014e 	ldfgte	f0, [r15, #312]!	; 2008870 <_ZL14div64_32_tests+0x2f4>
 2008734:	62e40ff8 	rscvs	r0, r4, #248, 30	; 0x3e0
 2008738:	f2c6c69a 			; <UNDEFINED> instruction: 0xf2c6c69a
 200873c:	7e8de87b 	mcrvc	8, 4, r14, cr13, cr11, {3}
 2008740:	ffffffff 			; <UNDEFINED> instruction: 0xffffffff
 2008744:	decd0164 	polleez	f0, f5, f4
 2008748:	ffffffff 			; <UNDEFINED> instruction: 0xffffffff
 200874c:	00000000 	andeq	r0, r0, r0
 2008750:	9533d3d7 	ldrls	r13, [r3, #-983]!	; 0xfffffc29
 2008754:	e02d17ca 	eor	r1, r13, r10, asr #15
 2008758:	f515f9f4 	pldw	[r5, #-2548]	; 0xfffff60c
 200875c:	701da0b4 	ldrhvc	r10, [r13], -r4
 2008760:	ea740ccc 	b	3d0ba98 <_ZL12sqrt64_tests+0x1d02e2c>
 2008764:	00000002 	andeq	r0, r0, r2
 2008768:	f5693567 			; <UNDEFINED> instruction: 0xf5693567
 200876c:	ffffffff 			; <UNDEFINED> instruction: 0xffffffff
 2008770:	00000000 	andeq	r0, r0, r0
 2008774:	d07c56a1 	rsbsle	r5, r12, r1, lsr #13
 2008778:	8c39b68f 	ldchi	6, cr11, [r9], #-572	; 0xfffffdc4
 200877c:	4e1a8d35 	mrcmi	13, 0, r8, cr10, cr5, {1}
 2008780:	0fd271db 	svceq	0x00d271db
 2008784:	8486cc19 	strhi	r12, [r6], #3097	; 0xc19
 2008788:	fffffffe 			; <UNDEFINED> instruction: 0xfffffffe
 200878c:	c9a05074 	stmibgt	r0!, {r2, r4, r5, r6, r12, r14}
 2008790:	ffffffff 			; <UNDEFINED> instruction: 0xffffffff
 2008794:	00000000 	andeq	r0, r0, r0
 2008798:	0ab8ab48 	beq	e334c0 <_start-0x11ccc40>
 200879c:	bdb2a983 			; <UNDEFINED> instruction: 0xbdb2a983
 20087a0:	120e5e04 	andne	r5, r14, #4, 28	; 0x40
 20087a4:	255d2a2f 	ldrbcs	r2, [r13, #-2607]	; 0xfffff5d1
 20087a8:	53f7bb96 	mvnspl	r11, #153600	; 0x25800
 20087ac:	fffffffc 			; <UNDEFINED> instruction: 0xfffffffc
 20087b0:	f5c4a8f0 			; <UNDEFINED> instruction: 0xf5c4a8f0
 20087b4:	ffffffff 			; <UNDEFINED> instruction: 0xffffffff
	...
 20087c0:	80000000 	andhi	r0, r0, r0
 20087c4:	ffffffff 			; <UNDEFINED> instruction: 0xffffffff
	...
 20087d0:	80000000 	andhi	r0, r0, r0
	...
 20087e0:	0000007b 	andeq	r0, r0, r11, ror r0
 20087e4:	00000006 	andeq	r0, r0, r6
 20087e8:	00000000 	andeq	r0, r0, r0
 20087ec:	00000555 	andeq	r0, r0, r5, asr r5
 20087f0:	ffffffff 			; <UNDEFINED> instruction: 0xffffffff
 20087f4:	ffffffff 			; <UNDEFINED> instruction: 0xffffffff
 20087f8:	0000007b 	andeq	r0, r0, r11, ror r0
 20087fc:	00000006 	andeq	r0, r0, r6
 2008800:	00000000 	andeq	r0, r0, r0
 2008804:	ffffff85 			; <UNDEFINED> instruction: 0xffffff85
 2008808:	fffffff8 			; <UNDEFINED> instruction: 0xfffffff8
 200880c:	00000000 	andeq	r0, r0, r0
 2008810:	00000555 	andeq	r0, r0, r5, asr r5
 2008814:	00000001 	andeq	r0, r0, r1
 2008818:	00000000 	andeq	r0, r0, r0
 200881c:	ffffff85 			; <UNDEFINED> instruction: 0xffffff85
 2008820:	fffffff8 			; <UNDEFINED> instruction: 0xfffffff8
	...
 2008834:	00000555 	andeq	r0, r0, r5, asr r5
 2008838:	ffffffff 			; <UNDEFINED> instruction: 0xffffffff
 200883c:	ffffffff 			; <UNDEFINED> instruction: 0xffffffff
	...
 200884c:	000001c8 	andeq	r0, r0, r8, asr #3
 2008850:	00000006 	andeq	r0, r0, r6
	...
 200885c:	ffffffff 			; <UNDEFINED> instruction: 0xffffffff
 2008860:	ffffffff 			; <UNDEFINED> instruction: 0xffffffff
 2008864:	000001c8 	andeq	r0, r0, r8, asr #3
 2008868:	00000006 	andeq	r0, r0, r6
 200886c:	00000001 	andeq	r0, r0, r1
 2008870:	fffffe38 			; <UNDEFINED> instruction: 0xfffffe38
 2008874:	fffffff8 			; <UNDEFINED> instruction: 0xfffffff8
	...
 2008880:	00000001 	andeq	r0, r0, r1
 2008884:	00000000 	andeq	r0, r0, r0
 2008888:	fffffe38 			; <UNDEFINED> instruction: 0xfffffe38
 200888c:	fffffff8 			; <UNDEFINED> instruction: 0xfffffff8
 2008890:	00000001 	andeq	r0, r0, r1
	...
 20088a4:	ffffffff 			; <UNDEFINED> instruction: 0xffffffff
 20088a8:	ffffffff 			; <UNDEFINED> instruction: 0xffffffff
	...
 20088b4:	00000001 	andeq	r0, r0, r1

020088b8 <_ZL14div64_64_tests>:
 20088b8:	6bf84f69 	blvs	1e1c664 <_start-0x1e3a9c>
 20088bc:	accc50c6 	stclge	0, cr5, [r12], {198}	; 0xc6
 20088c0:	16949cbe 			; <UNDEFINED> instruction: 0x16949cbe
 20088c4:	758ff89e 	strvc	r15, [pc, #2206]	; 200916a <_ZL12sqrt64_tests+0x4fe>
	...
 20088d0:	6bf84f69 	blvs	1e1c67c <_start-0x1e3a84>
 20088d4:	accc50c6 	stclge	0, cr5, [r12], {198}	; 0xc6
 20088d8:	00000000 	andeq	r0, r0, r0
 20088dc:	d441e4ca 	strble	r14, [r1], #-1226	; 0xfffffb36
 20088e0:	a6a1aabe 			; <UNDEFINED> instruction: 0xa6a1aabe
 20088e4:	9f2d5caa 	svcls	0x002d5caa
 20088e8:	7591fb79 	ldrvc	r15, [r1, #2937]	; 0xb79
	...
 20088f4:	d441e4ca 	strble	r14, [r1], #-1226	; 0xfffffb36
 20088f8:	a6a1aabe 			; <UNDEFINED> instruction: 0xa6a1aabe
 20088fc:	00000000 	andeq	r0, r0, r0
 2008900:	d34ae5cb 	movtle	r14, #42443	; 0xa5cb
 2008904:	3440f8a8 	strbcc	r15, [r0], #-2216	; 0xfffff758	; <UNPREDICTABLE>
 2008908:	05b8b3fc 	ldreq	r11, [r8, #1020]!	; 0x3fc
 200890c:	00000000 	andeq	r0, r0, r0
 2008910:	22050ce7 	andcs	r0, r5, #59136	; 0xe700
 2008914:	00000009 	andeq	r0, r0, r9
 2008918:	0544ad67 	strbeq	r10, [r4, #-3431]	; 0xfffff299
	...
 2008924:	c48cbdee 	strgt	r11, [r12], #3566	; 0xdee
 2008928:	039ea643 	orrseq	r10, r14, #70254592	; 0x4300000
 200892c:	6d26267e 	stcvs	6, cr2, [r6, #-504]!	; 0xfffffe08
 2008930:	5cee6ba4 	vstmiapl	r14!, {d22-<overflow reg d39>}
	...
 200893c:	c48cbdee 	strgt	r11, [r12], #3566	; 0xdee
 2008940:	039ea643 	orrseq	r10, r14, #70254592	; 0x4300000
 2008944:	00000000 	andeq	r0, r0, r0
 2008948:	e451c73d 	ldrb	r12, [r1], #-1853	; 0xfffff8c3
 200894c:	6fb01bc4 	svcvs	0x00b01bc4
 2008950:	e9ec0963 	stmib	r12!, {r0, r1, r5, r6, r8, r11}^
 2008954:	9b408dac 	blls	302c00c <_ZL12sqrt64_tests+0x10233a0>
 2008958:	ffffffff 			; <UNDEFINED> instruction: 0xffffffff
 200895c:	ffffffff 			; <UNDEFINED> instruction: 0xffffffff
 2008960:	ce3dd0a0 	cdpgt	0, 3, cr13, cr13, cr0, {5}
 2008964:	0af0a971 	beq	1c32f30 <_start-0x3cd1d0>
 2008968:	00000000 	andeq	r0, r0, r0
 200896c:	3e51fb3e 	vmovcc.s8	r15, d1[1]
 2008970:	339ca0ed 	orrscc	r10, r12, #237	; 0xed
 2008974:	fabd8205 	blx	f69190 <_start-0x1096f70>
 2008978:	3ce3af82 	stclcc	15, cr10, [r3], #520	; 0x208
	...
 2008984:	3e51fb3e 	vmovcc.s8	r15, d1[1]
 2008988:	339ca0ed 	orrscc	r10, r12, #237	; 0xed
 200898c:	00000000 	andeq	r0, r0, r0
 2008990:	140450bb 	strne	r5, [r4], #-187	; 0xffffff45
 2008994:	354a66af 	strbcc	r6, [r10, #-1711]	; 0xfffff951
 2008998:	59ae4216 	stmibpl	r14!, {r1, r2, r4, r9, r14}
 200899c:	0195486a 	orrseq	r4, r5, r10, ror #16
 20089a0:	00000021 	andeq	r0, r0, r1, lsr #32
 20089a4:	00000000 	andeq	r0, r0, r0
 20089a8:	848dcbe5 	strhi	r12, [r13], #3045	; 0xbe5
 20089ac:	010c10f9 	strdeq	r1, [r12, -r9]
 20089b0:	00000000 	andeq	r0, r0, r0
 20089b4:	83863bd7 	orrhi	r3, r6, #220160	; 0x35c00
 20089b8:	7d69b1b2 	stfvcp	f3, [r9, #-712]!	; 0xfffffd38
 20089bc:	4438bfdd 	ldrtmi	r11, [r8], #-4061	; 0xfffff023
 20089c0:	6dbd22d3 	lfmvs	f2, 4, [r13, #844]!	; 0x34c
 20089c4:	00000001 	andeq	r0, r0, r1
 20089c8:	00000000 	andeq	r0, r0, r0
 20089cc:	3f4d7bfa 	svccc	0x004d7bfa
 20089d0:	0fac8edf 	svceq	0x00ac8edf
 20089d4:	00000000 	andeq	r0, r0, r0
 20089d8:	9f5201c8 	svcls	0x005201c8
 20089dc:	7a56eba7 	bvc	35c3880 <_ZL12sqrt64_tests+0x15bac14>
 20089e0:	2642ca78 			; <UNDEFINED> instruction: 0x2642ca78
 20089e4:	754a7d71 	strbvc	r7, [r10, #-3441]	; 0xfffff28f
 20089e8:	00000001 	andeq	r0, r0, r1
 20089ec:	00000000 	andeq	r0, r0, r0
 20089f0:	790f3750 	stmdbvc	r15, {r4, r6, r8, r9, r10, r12, r13}	; <UNPREDICTABLE>
 20089f4:	050c6e36 	streq	r6, [r12, #-3638]	; 0xfffff1ca
 20089f8:	00000000 	andeq	r0, r0, r0
 20089fc:	17f6ecde 	ubfxne	r14, r14, #25, #23
 2008a00:	9096476d 	addsls	r4, r6, r13, ror #14
 2008a04:	d9a8c491 	stmible	r8!, {r0, r4, r7, r10, r14, r15}
 2008a08:	6ff93349 	svcvs	0x00f93349
	...
 2008a14:	17f6ecde 	ubfxne	r14, r14, #25, #23
 2008a18:	9096476d 	addsls	r4, r6, r13, ror #14
 2008a1c:	00000000 	andeq	r0, r0, r0
 2008a20:	78521eaa 	ldmdavc	r2, {r1, r3, r5, r7, r9, r10, r11, r12}^
 2008a24:	bde47a5d 			; <UNDEFINED> instruction: 0xbde47a5d
 2008a28:	72b6811c 	adcsvc	r8, r6, #28, 2
 2008a2c:	2864c2d3 	stmdacs	r4!, {r0, r1, r4, r6, r7, r9, r14, r15}^
 2008a30:	ffffffff 			; <UNDEFINED> instruction: 0xffffffff
 2008a34:	ffffffff 			; <UNDEFINED> instruction: 0xffffffff
 2008a38:	eb089fc6 	bl	2230958 <_ZL12sqrt64_tests+0x227cec>
 2008a3c:	e6493d30 			; <UNDEFINED> instruction: 0xe6493d30
 2008a40:	00000000 	andeq	r0, r0, r0
 2008a44:	2bf6cb73 	blcs	1dbb818 <_start-0x2448e8>
 2008a48:	501a370f 	andspl	r3, r10, r15, lsl #14
 2008a4c:	b582bdd6 	strlt	r11, [r2, #3542]	; 0xdd6
 2008a50:	05b93e71 	ldreq	r3, [r9, #3697]!	; 0xe71
 2008a54:	0000000d 	andeq	r0, r0, r13
 2008a58:	00000000 	andeq	r0, r0, r0
 2008a5c:	f4532795 			; <UNDEFINED> instruction: 0xf4532795
 2008a60:	05b20b48 	ldreq	r0, [r2, #2888]!	; 0xb48
 2008a64:	00000000 	andeq	r0, r0, r0
 2008a68:	a2e10e01 	rscge	r0, r1, #1, 28
 2008a6c:	e4db166b 	ldrb	r1, [r11], #1643	; 0x66b
 2008a70:	b6672d53 			; <UNDEFINED> instruction: 0xb6672d53
 2008a74:	1e8541d2 	mcrne	1, 4, r4, cr5, cr2, {6}
	...
 2008a80:	a2e10e01 	rscge	r0, r1, #1, 28
 2008a84:	e4db166b 	ldrb	r1, [r11], #1643	; 0x66b
 2008a88:	00000000 	andeq	r0, r0, r0
 2008a8c:	65508791 	ldrbvs	r8, [r0, #-1937]	; 0xfffff86f
 2008a90:	395167bf 	ldmdbcc	r1, {r0, r1, r2, r3, r4, r5, r7, r8, r9, r10, r13, r14}^
 2008a94:	1ec3eb4c 			; <UNDEFINED> instruction: 0x1ec3eb4c
 2008a98:	00000000 	andeq	r0, r0, r0
 2008a9c:	dcf24b34 	vldmiale	r2!, {d20-<overflow reg d45>}
 2008aa0:	00000001 	andeq	r0, r0, r1
 2008aa4:	01bd7821 			; <UNDEFINED> instruction: 0x01bd7821
	...
 2008ab0:	57508b1c 	smmlapl	r0, r12, r11, r8
 2008ab4:	92fb4bc6 	rscsls	r4, r11, #202752	; 0x31800
 2008ab8:	74401965 	strbvc	r1, [r0], #-2405	; 0xfffff69b
 2008abc:	00000000 	andeq	r0, r0, r0
 2008ac0:	0fed098f 	svceq	0x00ed098f
 2008ac4:	ffffffff 			; <UNDEFINED> instruction: 0xffffffff
 2008ac8:	b91cceb1 	ldmdblt	r12, {r0, r4, r5, r7, r9, r10, r11, r14, r15}
 2008acc:	ffffffff 			; <UNDEFINED> instruction: 0xffffffff
 2008ad0:	00000000 	andeq	r0, r0, r0
 2008ad4:	70554849 	subsvc	r4, r5, r9, asr #16
 2008ad8:	b6f0b853 	usatlt	r11, #16, r3, asr #16
 2008adc:	7ef1b9d1 			; <UNDEFINED> instruction: 0x7ef1b9d1
 2008ae0:	bcb1839c 	ldclt	3, cr8, [r1], #624	; 0x270
 2008ae4:	00000001 	andeq	r0, r0, r1
 2008ae8:	00000000 	andeq	r0, r0, r0
 2008aec:	f1638e78 			; <UNDEFINED> instruction: 0xf1638e78
 2008af0:	fa3f34b6 	blx	2fd5dd0 <_ZL12sqrt64_tests+0xfcd164>
	...
 2008afc:	80000000 	andhi	r0, r0, r0
 2008b00:	ffffffff 			; <UNDEFINED> instruction: 0xffffffff
 2008b04:	ffffffff 			; <UNDEFINED> instruction: 0xffffffff
 2008b08:	00000000 	andeq	r0, r0, r0
 2008b0c:	80000000 	andhi	r0, r0, r0
	...
 2008b1c:	000001c8 	andeq	r0, r0, r8, asr #3
 2008b20:	00000006 	andeq	r0, r0, r6
	...
 2008b2c:	ffffffff 			; <UNDEFINED> instruction: 0xffffffff
 2008b30:	ffffffff 			; <UNDEFINED> instruction: 0xffffffff
 2008b34:	000001c8 	andeq	r0, r0, r8, asr #3
 2008b38:	00000006 	andeq	r0, r0, r6
 2008b3c:	00000001 	andeq	r0, r0, r1
 2008b40:	fffffe38 			; <UNDEFINED> instruction: 0xfffffe38
 2008b44:	fffffff8 			; <UNDEFINED> instruction: 0xfffffff8
	...
 2008b50:	00000001 	andeq	r0, r0, r1
 2008b54:	00000000 	andeq	r0, r0, r0
 2008b58:	fffffe38 			; <UNDEFINED> instruction: 0xfffffe38
 2008b5c:	fffffff8 			; <UNDEFINED> instruction: 0xfffffff8
 2008b60:	00000001 	andeq	r0, r0, r1
	...
 2008b74:	ffffffff 			; <UNDEFINED> instruction: 0xffffffff
 2008b78:	ffffffff 			; <UNDEFINED> instruction: 0xffffffff
	...
 2008b84:	00000001 	andeq	r0, r0, r1
 2008b88:	02008f50 	andeq	r8, r0, #80, 30	; 0x140
 2008b8c:	02008f58 	andeq	r8, r0, #88, 30	; 0x160
 2008b90:	02008f60 	andeq	r8, r0, #96, 30	; 0x180
 2008b94:	02008f68 	andeq	r8, r0, #104, 30	; 0x1a0
 2008b98:	02008f70 	andeq	r8, r0, #112, 30	; 0x1c0
 2008b9c:	02008f78 	andeq	r8, r0, #120, 30	; 0x1e0
 2008ba0:	02008f80 	andeq	r8, r0, #128, 30	; 0x200
 2008ba4:	02008f88 	andeq	r8, r0, #136, 30	; 0x220
 2008ba8:	02008f90 	andeq	r8, r0, #144, 30	; 0x240
 2008bac:	02008f98 	andeq	r8, r0, #152, 30	; 0x260
 2008bb0:	02008fa0 	andeq	r8, r0, #160, 30	; 0x280
 2008bb4:	02008fa8 	andeq	r8, r0, #168, 30	; 0x2a0
 2008bb8:	02008fb0 	andeq	r8, r0, #176, 30	; 0x2c0
 2008bbc:	02008fb8 	andeq	r8, r0, #184, 30	; 0x2e0
 2008bc0:	02008fc0 	andeq	r8, r0, #192, 30	; 0x300
 2008bc4:	02008fc8 	andeq	r8, r0, #200, 30	; 0x320
 2008bc8:	02008fd0 	andeq	r8, r0, #208, 30	; 0x340
 2008bcc:	02008fd8 	andeq	r8, r0, #216, 30	; 0x360

02008bd0 <_ZL12sqrt32_tests>:
	...
 2008bdc:	00000001 	andeq	r0, r0, r1
 2008be0:	00000000 	andeq	r0, r0, r0
 2008be4:	00000001 	andeq	r0, r0, r1
 2008be8:	00000003 	andeq	r0, r0, r3
 2008bec:	00000000 	andeq	r0, r0, r0
 2008bf0:	00000001 	andeq	r0, r0, r1
 2008bf4:	00000004 	andeq	r0, r0, r4
 2008bf8:	00000000 	andeq	r0, r0, r0
 2008bfc:	00000002 	andeq	r0, r0, r2
 2008c00:	00000005 	andeq	r0, r0, r5
 2008c04:	00000000 	andeq	r0, r0, r0
 2008c08:	00000002 	andeq	r0, r0, r2
 2008c0c:	0000008f 	andeq	r0, r0, r15, lsl #1
 2008c10:	00000012 	andeq	r0, r0, r2, lsl r0
 2008c14:	0000000b 	andeq	r0, r0, r11
 2008c18:	00000090 	muleq	r0, r0, r0
 2008c1c:	ffffffff 			; <UNDEFINED> instruction: 0xffffffff
 2008c20:	0000000c 	andeq	r0, r0, r12
 2008c24:	00000091 	muleq	r0, r1, r0
 2008c28:	000001bc 			; <UNDEFINED> instruction: 0x000001bc
 2008c2c:	0000000c 	andeq	r0, r0, r12
 2008c30:	40000000 	andmi	r0, r0, r0
 2008c34:	ffffffdf 			; <UNDEFINED> instruction: 0xffffffdf
 2008c38:	00008000 	andeq	r8, r0, r0
 2008c3c:	fffe0000 			; <UNDEFINED> instruction: 0xfffe0000
 2008c40:	0000022b 	andeq	r0, r0, r11, lsr #4
 2008c44:	0000fffe 	strdeq	r15, [r0], -r14
 2008c48:	fffe0001 			; <UNDEFINED> instruction: 0xfffe0001
 2008c4c:	0000022b 	andeq	r0, r0, r11, lsr #4
 2008c50:	0000ffff 	strdeq	r15, [r0], -r15	; <UNPREDICTABLE>
 2008c54:	fffe0002 			; <UNDEFINED> instruction: 0xfffe0002
 2008c58:	0000022b 	andeq	r0, r0, r11, lsr #4
 2008c5c:	0000ffff 	strdeq	r15, [r0], -r15	; <UNPREDICTABLE>
 2008c60:	ffffffff 			; <UNDEFINED> instruction: 0xffffffff
 2008c64:	0000022b 	andeq	r0, r0, r11, lsr #4
 2008c68:	0000ffff 	strdeq	r15, [r0], -r15	; <UNPREDICTABLE>

02008c6c <_ZL12sqrt64_tests>:
	...
 2008c78:	00000001 	andeq	r0, r0, r1
 2008c7c:	00000000 	andeq	r0, r0, r0
 2008c80:	00000001 	andeq	r0, r0, r1
 2008c84:	00000003 	andeq	r0, r0, r3
 2008c88:	00000000 	andeq	r0, r0, r0
 2008c8c:	00000001 	andeq	r0, r0, r1
 2008c90:	00000004 	andeq	r0, r0, r4
 2008c94:	00000000 	andeq	r0, r0, r0
 2008c98:	00000002 	andeq	r0, r0, r2
 2008c9c:	00000005 	andeq	r0, r0, r5
 2008ca0:	00000000 	andeq	r0, r0, r0
 2008ca4:	00000002 	andeq	r0, r0, r2
 2008ca8:	0000008f 	andeq	r0, r0, r15, lsl #1
 2008cac:	00000000 	andeq	r0, r0, r0
 2008cb0:	0000000b 	andeq	r0, r0, r11
 2008cb4:	00000090 	muleq	r0, r0, r0
 2008cb8:	00000000 	andeq	r0, r0, r0
 2008cbc:	0000000c 	andeq	r0, r0, r12
 2008cc0:	00000091 	muleq	r0, r1, r0
 2008cc4:	00000000 	andeq	r0, r0, r0
 2008cc8:	0000000c 	andeq	r0, r0, r12
 2008ccc:	40000000 	andmi	r0, r0, r0
 2008cd0:	00000000 	andeq	r0, r0, r0
 2008cd4:	00008000 	andeq	r8, r0, r0
 2008cd8:	fffe0000 			; <UNDEFINED> instruction: 0xfffe0000
 2008cdc:	00000000 	andeq	r0, r0, r0
 2008ce0:	0000fffe 	strdeq	r15, [r0], -r14
 2008ce4:	fffe0001 			; <UNDEFINED> instruction: 0xfffe0001
 2008ce8:	00000000 	andeq	r0, r0, r0
 2008cec:	0000ffff 	strdeq	r15, [r0], -r15	; <UNPREDICTABLE>
 2008cf0:	fffe0002 			; <UNDEFINED> instruction: 0xfffe0002
 2008cf4:	00000000 	andeq	r0, r0, r0
 2008cf8:	0000ffff 	strdeq	r15, [r0], -r15	; <UNPREDICTABLE>
 2008cfc:	ffffffff 			; <UNDEFINED> instruction: 0xffffffff
 2008d00:	00000000 	andeq	r0, r0, r0
 2008d04:	0000ffff 	strdeq	r15, [r0], -r15	; <UNPREDICTABLE>
 2008d08:	00000000 	andeq	r0, r0, r0
 2008d0c:	00000001 	andeq	r0, r0, r1
 2008d10:	00010000 	andeq	r0, r1, r0
 2008d14:	00000001 	andeq	r0, r0, r1
 2008d18:	00000001 	andeq	r0, r0, r1
 2008d1c:	00010000 	andeq	r0, r1, r0
 2008d20:	00000000 	andeq	r0, r0, r0
 2008d24:	00000002 	andeq	r0, r0, r2
 2008d28:	00016a09 	andeq	r6, r1, r9, lsl #20
 2008d2c:	00000457 	andeq	r0, r0, r7, asr r4
 2008d30:	00000002 	andeq	r0, r0, r2
 2008d34:	00016a09 	andeq	r6, r1, r9, lsl #20
 2008d38:	000f423f 	andeq	r4, r15, r15, lsr r2	; <UNPREDICTABLE>
 2008d3c:	00000002 	andeq	r0, r0, r2
 2008d40:	00016a0f 	andeq	r6, r1, r15, lsl #20
 2008d44:	00000000 	andeq	r0, r0, r0
 2008d48:	10000000 	andne	r0, r0, r0
 2008d4c:	40000000 	andmi	r0, r0, r0
 2008d50:	00000001 	andeq	r0, r0, r1
 2008d54:	10000000 	andne	r0, r0, r0
 2008d58:	40000000 	andmi	r0, r0, r0
 2008d5c:	ffffffff 			; <UNDEFINED> instruction: 0xffffffff
 2008d60:	0fffffff 	svceq	0x00ffffff
 2008d64:	3fffffff 	svccc	0x00ffffff
 2008d68:	ffffffff 			; <UNDEFINED> instruction: 0xffffffff
 2008d6c:	ffffffff 			; <UNDEFINED> instruction: 0xffffffff
 2008d70:	ffffffff 			; <UNDEFINED> instruction: 0xffffffff

Disassembly of section .rodata._ZNK4Menu4drawEv.str1.4:

02008d74 <.rodata._ZNK4Menu4drawEv.str1.4>:
 2008d74:	50495720 	subpl	r5, r9, r0, lsr #14
 2008d78:	4f432020 	svcmi	0x00432020
 2008d7c:	4341544e 	movtmi	r5, #5198	; 0x144e
 2008d80:	52203a54 	eorpl	r3, r0, #84, 20	; 0x54000
 2008d84:	504b434f 	subpl	r4, r11, r15, asr #6
 2008d88:	53494c4f 	movtpl	r4, #40015	; 0x9c4f
 2008d8c:	00000048 	andeq	r0, r0, r8, asr #32
 2008d90:	59414d20 	stmdbpl	r1, {r5, r8, r10, r11, r14}^
 2008d94:	49545320 	ldmdbmi	r4, {r5, r8, r9, r12, r14}^
 2008d98:	43204c4c 			; <UNDEFINED> instruction: 0x43204c4c
 2008d9c:	41544e4f 	cmpmi	r4, r15, asr #28
 2008da0:	42204e49 	eormi	r4, r0, #1168	; 0x490
 2008da4:	20534755 	subscs	r4, r3, r5, asr r7
 2008da8:	Address 0x0000000002008da8 is out of bounds.


Disassembly of section .rodata.str1.4:

02008dac <.rodata.str1.4>:
 2008dac:	00004b4f 	andeq	r4, r0, r15, asr #22
 2008db0:	374d5241 	strbcc	r5, [r13, -r1, asr #4]
 2008db4:	00000000 	andeq	r0, r0, r0
 2008db8:	54494e49 	strbpl	r4, [r9], #-3657	; 0xfffff1b7
 2008dbc:	204c4149 	subcs	r4, r12, r9, asr #2
 2008dc0:	54415453 	strbpl	r5, [r1], #-1107	; 0xfffffbad
 2008dc4:	00000045 	andeq	r0, r0, r5, asr #32
 2008dc8:	4f4d454d 	svcmi	0x004d454d
 2008dcc:	43205952 			; <UNDEFINED> instruction: 0x43205952
 2008dd0:	52544e4f 	subspl	r4, r4, #1264	; 0x4f0
 2008dd4:	00004c4f 	andeq	r4, r0, r15, asr #24
 2008dd8:	4d205344 	stcmi	3, cr5, [r0, #-272]!	; 0xfffffef0
 2008ddc:	00485441 	subeq	r5, r8, r1, asr #8
 2008de0:	20435049 	subcs	r5, r3, r9, asr #32
 2008de4:	54534554 	ldrbpl	r4, [r3], #-1364	; 0xfffffaac
 2008de8:	00000053 	andeq	r0, r0, r3, asr r0
 2008dec:	764d5241 	strbvc	r5, [r13], -r1, asr #4
 2008df0:	00000035 	andeq	r0, r0, r5, lsr r0
 2008df4:	764d5241 	strbvc	r5, [r13], -r1, asr #4
 2008df8:	00000034 	andeq	r0, r0, r4, lsr r0
 2008dfc:	4b434f52 	blmi	30dcb4c <_ZL12sqrt64_tests+0x10d3ee0>
 2008e00:	53455257 	movtpl	r5, #21079	; 0x5257
 2008e04:	52454c54 	subpl	r4, r5, #84, 24	; 0x5400
 2008e08:	00000000 	andeq	r0, r0, r0
 2008e0c:	2f435049 	svccs	0x00435049
 2008e10:	2f515249 	svccs	0x00515249
 2008e14:	52535043 	subspl	r5, r3, #67	; 0x43
 2008e18:	00000000 	andeq	r0, r0, r0
 2008e1c:	35315043 	ldrcc	r5, [r1, #-67]!	; 0xffffffbd
 2008e20:	00000000 	andeq	r0, r0, r0
 2008e24:	4d415257 	sfmmi	f5, 2, [r1, #-348]	; 0xfffffea4
 2008e28:	544e4320 	strbpl	r4, [r14], #-800	; 0xfffffce0
 2008e2c:	00000000 	andeq	r0, r0, r0
 2008e30:	4d415256 	sfmmi	f5, 2, [r1, #-344]	; 0xfffffea8
 2008e34:	544e4320 	strbpl	r4, [r14], #-800	; 0xfffffce0
 2008e38:	00000000 	andeq	r0, r0, r0
 2008e3c:	004d4354 	subeq	r4, r13, r4, asr r3
 2008e40:	54525153 	ldrbpl	r5, [r2], #-339	; 0xfffffead
 2008e44:	00323320 	eorseq	r3, r2, r0, lsr #6
 2008e48:	54525153 	ldrbpl	r5, [r2], #-339	; 0xfffffead
 2008e4c:	00343620 	eorseq	r3, r4, r0, lsr #12
 2008e50:	20564944 	subscs	r4, r6, r4, asr #18
 2008e54:	332f3233 			; <UNDEFINED> instruction: 0x332f3233
 2008e58:	00000032 	andeq	r0, r0, r2, lsr r0
 2008e5c:	20564944 	subscs	r4, r6, r4, asr #18
 2008e60:	332f3436 			; <UNDEFINED> instruction: 0x332f3436
 2008e64:	00000032 	andeq	r0, r0, r2, lsr r0
 2008e68:	20564944 	subscs	r4, r6, r4, asr #18
 2008e6c:	362f3436 			; <UNDEFINED> instruction: 0x362f3436
 2008e70:	00000034 	andeq	r0, r0, r4, lsr r0
 2008e74:	53435049 	movtpl	r5, #12361	; 0x3049
 2008e78:	00434e59 	subeq	r4, r3, r9, asr r14
 2008e7c:	46435049 	strbmi	r5, [r3], -r9, asr #32
 2008e80:	004f4649 	subeq	r4, r15, r9, asr #12
 2008e84:	46435049 	strbmi	r5, [r3], -r9, asr #32
 2008e88:	204f4649 	subcs	r4, r15, r9, asr #12
 2008e8c:	00515249 	subseq	r5, r1, r9, asr #4
 2008e90:	005a4c43 	subseq	r4, r10, r3, asr #24
 2008e94:	44444151 	strbmi	r4, [r4], #-337	; 0xfffffeaf
 2008e98:	5351202c 	cmppl	r1, #44	; 0x2c
 2008e9c:	00004255 	andeq	r4, r0, r5, asr r2
 2008ea0:	44414451 	strbmi	r4, [r1], #-1105	; 0xfffffbaf
 2008ea4:	51202c44 			; <UNDEFINED> instruction: 0x51202c44
 2008ea8:	42555344 	subsmi	r5, r5, #68, 6	; 0x10000001
 2008eac:	00000000 	andeq	r0, r0, r0
 2008eb0:	4c554d53 	mrrcmi	13, 5, r4, r5, cr3
 2008eb4:	00007978 	andeq	r7, r0, r8, ror r9
 2008eb8:	414c4d53 	cmpmi	r12, r3, asr r13
 2008ebc:	00007978 	andeq	r7, r0, r8, ror r9
 2008ec0:	4c554d53 	mrrcmi	13, 5, r4, r5, cr3
 2008ec4:	00007957 	andeq	r7, r0, r7, asr r9
 2008ec8:	414c4d53 	cmpmi	r12, r3, asr r13
 2008ecc:	00007957 	andeq	r7, r0, r7, asr r9
 2008ed0:	414c4d53 	cmpmi	r12, r3, asr r13
 2008ed4:	0079784c 	rsbseq	r7, r9, r12, asr #16
 2008ed8:	00584c42 	subseq	r4, r8, r2, asr #24
 2008edc:	2052444c 	subscs	r4, r2, r12, asr #8
 2008ee0:	2c353172 	ldfcss	f3, [r5], #-456	; 0xfffffe38
 2008ee4:	504f5020 	subpl	r5, r15, r0, lsr #32
 2008ee8:	31727b20 	cmncc	r2, r0, lsr #22
 2008eec:	202c7d35 	eorcs	r7, r12, r5, lsr r13
 2008ef0:	204d444c 	subcs	r4, r13, r12, asr #8
 2008ef4:	3531727b 	ldrcc	r7, [r1, #-635]!	; 0xfffffd85
 2008ef8:	0000007d 	andeq	r0, r0, r13, ror r0
 2008efc:	204d444c 	subcs	r4, r13, r12, asr #8
 2008f00:	5453202f 	ldrbpl	r2, [r3], #-47	; 0xffffffd1
 2008f04:	0000004d 	andeq	r0, r0, r13, asr #32
 2008f08:	444e4f43 	strbmi	r4, [r14], #-3907	; 0xfffff0bd
 2008f0c:	4f495449 	svcmi	0x00495449
 2008f10:	4f43204e 	svcmi	0x0043204e
 2008f14:	00534544 	subseq	r4, r3, r4, asr #10
 2008f18:	00435049 	subeq	r5, r3, r9, asr #32
 2008f1c:	4f4d454d 	svcmi	0x004d454d
 2008f20:	00005952 	andeq	r5, r0, r2, asr r9
 2008f24:	394d5241 	stmdbcc	r13, {r0, r6, r9, r12, r14}^
 2008f28:	00000000 	andeq	r0, r0, r0
 2008f2c:	46435049 	strbmi	r5, [r3], -r9, asr #32
 2008f30:	434f4649 	movtmi	r4, #63049	; 0xf649
 2008f34:	0000544e 	andeq	r5, r0, r14, asr #8
 2008f38:	4f464946 	svcmi	0x00464946
 2008f3c:	4e454c20 	cdpmi	12, 4, cr4, cr5, cr0, {1}
 2008f40:	00000000 	andeq	r0, r0, r0
 2008f44:	00454d49 	subeq	r4, r5, r9, asr #26
 2008f48:	00004549 	andeq	r4, r0, r9, asr #10
 2008f4c:	00004649 	andeq	r4, r0, r9, asr #12
 2008f50:	432c3143 			; <UNDEFINED> instruction: 0x432c3143
 2008f54:	00302c30 	eorseq	r2, r0, r0, lsr r12
 2008f58:	432c3243 			; <UNDEFINED> instruction: 0x432c3243
 2008f5c:	00302c30 	eorseq	r2, r0, r0, lsr r12
 2008f60:	432c3243 			; <UNDEFINED> instruction: 0x432c3243
 2008f64:	00312c30 	eorseq	r2, r1, r0, lsr r12
 2008f68:	432c3343 			; <UNDEFINED> instruction: 0x432c3343
 2008f6c:	00302c30 	eorseq	r2, r0, r0, lsr r12
 2008f70:	432c3543 			; <UNDEFINED> instruction: 0x432c3543
 2008f74:	00302c30 	eorseq	r2, r0, r0, lsr r12
 2008f78:	432c3543 			; <UNDEFINED> instruction: 0x432c3543
 2008f7c:	00312c30 	eorseq	r2, r1, r0, lsr r12
 2008f80:	432c3543 			; <UNDEFINED> instruction: 0x432c3543
 2008f84:	00322c30 	eorseq	r2, r2, r0, lsr r12
 2008f88:	432c3543 			; <UNDEFINED> instruction: 0x432c3543
 2008f8c:	00332c30 	eorseq	r2, r3, r0, lsr r12
 2008f90:	432c3643 			; <UNDEFINED> instruction: 0x432c3643
 2008f94:	00302c30 	eorseq	r2, r0, r0, lsr r12
 2008f98:	432c3643 			; <UNDEFINED> instruction: 0x432c3643
 2008f9c:	00302c31 	eorseq	r2, r0, r1, lsr r12
 2008fa0:	432c3643 			; <UNDEFINED> instruction: 0x432c3643
 2008fa4:	00302c32 	eorseq	r2, r0, r2, lsr r12
 2008fa8:	432c3643 			; <UNDEFINED> instruction: 0x432c3643
 2008fac:	00302c33 	eorseq	r2, r0, r3, lsr r12
 2008fb0:	432c3643 			; <UNDEFINED> instruction: 0x432c3643
 2008fb4:	00302c34 	eorseq	r2, r0, r4, lsr r12
 2008fb8:	432c3643 			; <UNDEFINED> instruction: 0x432c3643
 2008fbc:	00302c35 	eorseq	r2, r0, r5, lsr r12
 2008fc0:	432c3643 			; <UNDEFINED> instruction: 0x432c3643
 2008fc4:	00302c36 	eorseq	r2, r0, r6, lsr r12
 2008fc8:	432c3643 			; <UNDEFINED> instruction: 0x432c3643
 2008fcc:	00302c37 	eorseq	r2, r0, r7, lsr r12
 2008fd0:	432c3943 			; <UNDEFINED> instruction: 0x432c3943
 2008fd4:	00302c31 	eorseq	r2, r0, r1, lsr r12
 2008fd8:	432c3943 			; <UNDEFINED> instruction: 0x432c3943
 2008fdc:	00312c31 	eorseq	r2, r1, r1, lsr r12

Disassembly of section .ARM.attributes:

00000000 <.ARM.attributes>:
   0:	00002641 	andeq	r2, r0, r1, asr #12
   4:	61656100 	cmnvs	r5, r0, lsl #2
   8:	01006962 	tsteq	r0, r2, ror #18
   c:	0000001c 	andeq	r0, r0, r12, lsl r0
  10:	45543505 	ldrbmi	r3, [r4, #-1285]	; 0xfffffafb
  14:	08040600 	stmdaeq	r4, {r9, r10}
  18:	12010901 	andne	r0, r1, #16384	; 0x4000
  1c:	15011404 	strne	r1, [r1, #-1028]	; 0xfffffbfc
  20:	18031701 	stmdane	r3, {r0, r8, r9, r10, r12}
  24:	Address 0x0000000000000024 is out of bounds.


Disassembly of section .comment:

00000000 <.comment>:
   0:	3a434347 	bcc	10d0d24 <_start-0xf2f3dc>
   4:	65642820 	strbvs	r2, [r4, #-2080]!	; 0xfffff7e0
   8:	74696b76 	strbtvc	r6, [r9], #-2934	; 0xfffff48a
   c:	204d5241 	subcs	r5, r13, r1, asr #4
  10:	656c6572 	strbvs	r6, [r12, #-1394]!	; 0xfffffa8e
  14:	20657361 	rsbcs	r7, r5, r1, ror #6
  18:	20293635 	eorcs	r3, r9, r5, lsr r6
  1c:	312e3131 			; <UNDEFINED> instruction: 0x312e3131
  20:	Address 0x0000000000000020 is out of bounds.

